---
triple:          'arm64-apple-darwin'
binary-path:     'build/engine'
relocations:
  - { offsetInCU: 0x26, offset: 0x26, size: 0x8, addend: 0x0, symName: __ZNK10Excecution4slipEdN3trd4SideE, symObjAddr: 0x0, symBinAddr: 0x100002EF0, symSize: 0x1C }
  - { offsetInCU: 0x326, offset: 0x326, size: 0x8, addend: 0x0, symName: __ZNK10Excecution4slipEdN3trd4SideE, symObjAddr: 0x0, symBinAddr: 0x100002EF0, symSize: 0x1C }
  - { offsetInCU: 0x5C, offset: 0x3C9, size: 0x8, addend: 0x0, symName: __ZNSt3__114in_place_indexILm0EEE, symObjAddr: 0x12E55, symBinAddr: 0x10001AAF0, symSize: 0x0 }
  - { offsetInCU: 0xA1, offset: 0x40E, size: 0x8, addend: 0x0, symName: __ZNSt3__18in_placeE, symObjAddr: 0x12E56, symBinAddr: 0x10001AAF1, symSize: 0x0 }
  - { offsetInCU: 0xD1, offset: 0x43E, size: 0x8, addend: 0x0, symName: __ZNSt3__119piecewise_constructE, symObjAddr: 0x12FC1, symBinAddr: 0x10001AC5C, symSize: 0x0 }
  - { offsetInCU: 0x132, offset: 0x49F, size: 0x8, addend: 0x0, symName: __ZNSt3__114in_place_indexILm1EEE, symObjAddr: 0x12FC2, symBinAddr: 0x10001AC5D, symSize: 0x0 }
  - { offsetInCU: 0x177, offset: 0x4E4, size: 0x8, addend: 0x0, symName: __ZNSt3__114in_place_indexILm2EEE, symObjAddr: 0x130E9, symBinAddr: 0x10001AD84, symSize: 0x0 }
  - { offsetInCU: 0x1BC, offset: 0x529, size: 0x8, addend: 0x0, symName: __ZNSt3__114in_place_indexILm3EEE, symObjAddr: 0x13210, symBinAddr: 0x10001AEAB, symSize: 0x0 }
  - { offsetInCU: 0x72A5, offset: 0x7612, size: 0x8, addend: 0x0, symName: '__ZNSt3__110__function10__not_nullB8ue170006IZN3trd8Backtest3runERKNS_6vectorINS2_3BarENS_9allocatorIS5_EEEER8StrategyE3$_0EEbRKT_', symObjAddr: 0x90C4, symBinAddr: 0x10000BFD0, symSize: 0x18 }
  - { offsetInCU: 0x72D6, offset: 0x7643, size: 0x8, addend: 0x0, symName: '__ZNSt3__110__function10__not_nullB8ue170006IZN3trd8Backtest3runERKNS_6vectorINS2_3BarENS_9allocatorIS5_EEEER8StrategyE3$_1EEbRKT_', symObjAddr: 0xB184, symBinAddr: 0x10000E090, symSize: 0x18 }
  - { offsetInCU: 0x7307, offset: 0x7674, size: 0x8, addend: 0x0, symName: '__ZNSt3__110__function10__not_nullB8ue170006IZN3trd8Backtest3runERKNS_6vectorINS2_3BarENS_9allocatorIS5_EEEER8StrategyE3$_2EEbRKT_', symObjAddr: 0xD0C4, symBinAddr: 0x10000FFD0, symSize: 0x18 }
  - { offsetInCU: 0x7338, offset: 0x76A5, size: 0x8, addend: 0x0, symName: '__ZNSt3__110__function10__not_nullB8ue170006IZN3trd8Backtest3runERKNS_6vectorINS2_3BarENS_9allocatorIS5_EEEER8StrategyE3$_3EEbRKT_', symObjAddr: 0xF010, symBinAddr: 0x100011F1C, symSize: 0x18 }
  - { offsetInCU: 0x7369, offset: 0x76D6, size: 0x8, addend: 0x0, symName: '__ZNSt3__110__function10__not_nullB8ue170006IZN3trd8Backtest3runERKNS_6vectorINS2_3BarENS_9allocatorIS5_EEEER8StrategyE3$_4EEbRKT_', symObjAddr: 0x10C7C, symBinAddr: 0x100013B88, symSize: 0x18 }
  - { offsetInCU: 0xBAC5, offset: 0xBE32, size: 0x8, addend: 0x0, symName: __ZNSt3__124__put_character_sequenceB8ue170006IcNS_11char_traitsIcEEEERNS_13basic_ostreamIT_T0_EES7_PKS4_m, symObjAddr: 0x83E8, symBinAddr: 0x10000B2F4, symSize: 0x1EC }
  - { offsetInCU: 0x1333C, offset: 0x136A9, size: 0x8, addend: 0x0, symName: __ZNSt3__1lsB8ue170006INS_11char_traitsIcEEEERNS_13basic_ostreamIcT_EES6_PKc, symObjAddr: 0x548, symBinAddr: 0x100003454, symSize: 0x48 }
  - { offsetInCU: 0x13382, offset: 0x136EF, size: 0x8, addend: 0x0, symName: __ZNSt3__14endlB8ue170006IcNS_11char_traitsIcEEEERNS_13basic_ostreamIT_T0_EES7_, symObjAddr: 0x5BC, symBinAddr: 0x1000034C8, symSize: 0x58 }
  - { offsetInCU: 0x133C3, offset: 0x13730, size: 0x8, addend: 0x0, symName: __ZNSt3__112__to_addressB8ue170006INS_7variantIJN6events11MarketEventENS2_11SignalEventENS2_10OrderEventENS2_9FillEventEEEEEEPT_S9_, symObjAddr: 0x187C, symBinAddr: 0x100004788, symSize: 0x14 }
  - { offsetInCU: 0x133F9, offset: 0x13766, size: 0x8, addend: 0x0, symName: __ZNSt3__112__to_addressB8ue170006INS_8functionIFvRKNS_7variantIJN6events11MarketEventENS3_11SignalEventENS3_10OrderEventENS3_9FillEventEEEEEEEEEPT_SE_, symObjAddr: 0x1E2C, symBinAddr: 0x100004D38, symSize: 0x14 }
  - { offsetInCU: 0x1342F, offset: 0x1379C, size: 0x8, addend: 0x0, symName: __ZNSt3__13maxB8ue170006ImEERKT_S3_S3_, symObjAddr: 0x23D0, symBinAddr: 0x1000052DC, symSize: 0x2C }
  - { offsetInCU: 0x13473, offset: 0x137E0, size: 0x8, addend: 0x0, symName: __ZNSt3__13minB8ue170006ImEERKT_S3_S3_, symObjAddr: 0x23FC, symBinAddr: 0x100005308, symSize: 0x2C }
  - { offsetInCU: 0x136A1, offset: 0x13A0E, size: 0x8, addend: 0x0, symName: __ZNSt3__13minB8ue170006ImNS_6__lessIvvEEEERKT_S5_S5_T0_, symObjAddr: 0x2488, symBinAddr: 0x100005394, symSize: 0x54 }
  - { offsetInCU: 0x13743, offset: 0x13AB0, size: 0x8, addend: 0x0, symName: __ZNSt3__120__throw_length_errorB8ue170006EPKc, symObjAddr: 0x2564, symBinAddr: 0x100005470, symSize: 0x64 }
  - { offsetInCU: 0x1376E, offset: 0x13ADB, size: 0x8, addend: 0x0, symName: __ZNSt3__13maxB8ue170006ImNS_6__lessIvvEEEERKT_S5_S5_T0_, symObjAddr: 0x26A8, symBinAddr: 0x1000055B4, symSize: 0x54 }
  - { offsetInCU: 0x137C9, offset: 0x13B36, size: 0x8, addend: 0x0, symName: __ZNSt3__119__allocate_at_leastB8ue170006INS_9allocatorINS_8functionIFvRKNS_7variantIJN6events11MarketEventENS4_11SignalEventENS4_10OrderEventENS4_9FillEventEEEEEEEEEEENS_19__allocation_resultINS_16allocator_traitsIT_E7pointerEEERSH_m, symObjAddr: 0x280C, symBinAddr: 0x100005718, symSize: 0x40 }
  - { offsetInCU: 0x1380C, offset: 0x13B79, size: 0x8, addend: 0x0, symName: __ZNSt3__117__libcpp_allocateB8ue170006Emm, symObjAddr: 0x2990, symBinAddr: 0x10000589C, symSize: 0x60 }
  - { offsetInCU: 0x13868, offset: 0x13BD5, size: 0x8, addend: 0x0, symName: __ZNSt3__124__is_overaligned_for_newB8ue170006Em, symObjAddr: 0x29F0, symBinAddr: 0x1000058FC, symSize: 0x20 }
  - { offsetInCU: 0x13896, offset: 0x13C03, size: 0x8, addend: 0x0, symName: __ZNSt3__121__libcpp_operator_newB8ue170006IJmSt11align_val_tEEEPvDpT_, symObjAddr: 0x2A10, symBinAddr: 0x10000591C, symSize: 0x2C }
  - { offsetInCU: 0x138E3, offset: 0x13C50, size: 0x8, addend: 0x0, symName: __ZNSt3__121__libcpp_operator_newB8ue170006IJmEEEPvDpT_, symObjAddr: 0x2A3C, symBinAddr: 0x100005948, symSize: 0x24 }
  - { offsetInCU: 0x1391C, offset: 0x13C89, size: 0x8, addend: 0x0, symName: __ZNSt3__142__uninitialized_allocator_move_if_noexceptB8ue170006INS_9allocatorINS_8functionIFvRKNS_7variantIJN6events11MarketEventENS4_11SignalEventENS4_10OrderEventENS4_9FillEventEEEEEEEEENS_16reverse_iteratorIPSD_EESH_SH_EET2_RT_T0_T1_SI_, symObjAddr: 0x2B7C, symBinAddr: 0x100005A88, symSize: 0x12C }
  - { offsetInCU: 0x139BD, offset: 0x13D2A, size: 0x8, addend: 0x0, symName: __ZNSt3__14swapB8ue170006IPNS_8functionIFvRKNS_7variantIJN6events11MarketEventENS3_11SignalEventENS3_10OrderEventENS3_9FillEventEEEEEEEEENS_9enable_ifIXaasr21is_move_constructibleIT_EE5valuesr18is_move_assignableISF_EE5valueEvE4typeERSF_SI_, symObjAddr: 0x2CF4, symBinAddr: 0x100005C00, symSize: 0x3C }
  - { offsetInCU: 0x13A10, offset: 0x13D7D, size: 0x8, addend: 0x0, symName: __ZNSt3__122__make_exception_guardB8ue170006INS_29_AllocatorDestroyRangeReverseINS_9allocatorINS_8functionIFvRKNS_7variantIJN6events11MarketEventENS5_11SignalEventENS5_10OrderEventENS5_9FillEventEEEEEEEEENS_16reverse_iteratorIPSE_EEEEEENS_28__exception_guard_exceptionsIT_EESL_, symObjAddr: 0x2E24, symBinAddr: 0x100005D30, symSize: 0x4C }
  - { offsetInCU: 0x13A47, offset: 0x13DB4, size: 0x8, addend: 0x0, symName: __ZNSt3__1neB8ue170006IPNS_8functionIFvRKNS_7variantIJN6events11MarketEventENS3_11SignalEventENS3_10OrderEventENS3_9FillEventEEEEEEESD_EEbRKNS_16reverse_iteratorIT_EERKNSE_IT0_EE, symObjAddr: 0x2EB4, symBinAddr: 0x100005DC0, symSize: 0x48 }
  - { offsetInCU: 0x13A94, offset: 0x13E01, size: 0x8, addend: 0x0, symName: __ZNSt3__112__to_addressB8ue170006INS_16reverse_iteratorIPNS_8functionIFvRKNS_7variantIJN6events11MarketEventENS4_11SignalEventENS4_10OrderEventENS4_9FillEventEEEEEEEEEvEEu7__decayIDTclsr19__to_address_helperIT_EE6__callclsr3stdE7declvalIRKSG_EEEEESI_, symObjAddr: 0x2EFC, symBinAddr: 0x100005E08, symSize: 0x24 }
  - { offsetInCU: 0x13AF5, offset: 0x13E62, size: 0x8, addend: 0x0, symName: __ZNSt3__119__allocator_destroyB8ue170006INS_9allocatorINS_8functionIFvRKNS_7variantIJN6events11MarketEventENS4_11SignalEventENS4_10OrderEventENS4_9FillEventEEEEEEEEENS_16reverse_iteratorINSF_IPSD_EEEESI_EEvRT_T0_T1_, symObjAddr: 0x31AC, symBinAddr: 0x1000060B8, symSize: 0x70 }
  - { offsetInCU: 0x13B5B, offset: 0x13EC8, size: 0x8, addend: 0x0, symName: __ZNSt3__1neB8ue170006INS_16reverse_iteratorIPNS_8functionIFvRKNS_7variantIJN6events11MarketEventENS4_11SignalEventENS4_10OrderEventENS4_9FillEventEEEEEEEEESF_EEbRKNS1_IT_EERKNS1_IT0_EE, symObjAddr: 0x3258, symBinAddr: 0x100006164, symSize: 0x60 }
  - { offsetInCU: 0x13BA8, offset: 0x13F15, size: 0x8, addend: 0x0, symName: __ZNSt3__112__to_addressB8ue170006INS_16reverse_iteratorINS1_IPNS_8functionIFvRKNS_7variantIJN6events11MarketEventENS4_11SignalEventENS4_10OrderEventENS4_9FillEventEEEEEEEEEEEvEEu7__decayIDTclsr19__to_address_helperIT_EE6__callclsr3stdE7declvalIRKSH_EEEEESJ_, symObjAddr: 0x32E4, symBinAddr: 0x1000061F0, symSize: 0x24 }
  - { offsetInCU: 0x13C09, offset: 0x13F76, size: 0x8, addend: 0x0, symName: __ZNSt3__119__libcpp_deallocateB8ue170006EPvmm, symObjAddr: 0x369C, symBinAddr: 0x1000065A8, symSize: 0x60 }
  - { offsetInCU: 0x13C70, offset: 0x13FDD, size: 0x8, addend: 0x0, symName: __ZNSt3__127__do_deallocate_handle_sizeB8ue170006IJSt11align_val_tEEEvPvmDpT_, symObjAddr: 0x36FC, symBinAddr: 0x100006608, symSize: 0x30 }
  - { offsetInCU: 0x13CC4, offset: 0x14031, size: 0x8, addend: 0x0, symName: __ZNSt3__127__do_deallocate_handle_sizeB8ue170006IJEEEvPvmDpT_, symObjAddr: 0x372C, symBinAddr: 0x100006638, symSize: 0x28 }
  - { offsetInCU: 0x13D03, offset: 0x14070, size: 0x8, addend: 0x0, symName: __ZNSt3__124__libcpp_operator_deleteB8ue170006IJPvSt11align_val_tEEEvDpT_, symObjAddr: 0x3754, symBinAddr: 0x100006660, symSize: 0x2C }
  - { offsetInCU: 0x13D4D, offset: 0x140BA, size: 0x8, addend: 0x0, symName: __ZNSt3__124__libcpp_operator_deleteB8ue170006IJPvEEEvDpT_, symObjAddr: 0x3780, symBinAddr: 0x10000668C, symSize: 0x24 }
  - { offsetInCU: 0x141DC, offset: 0x14549, size: 0x8, addend: 0x0, symName: __ZNSt3__14swapB8ue170006IPPNS_7variantIJN6events11MarketEventENS2_11SignalEventENS2_10OrderEventENS2_9FillEventEEEEEENS_9enable_ifIXaasr21is_move_constructibleIT_EE5valuesr18is_move_assignableISB_EE5valueEvE4typeERSB_SE_, symObjAddr: 0x4DD0, symBinAddr: 0x100007CDC, symSize: 0x3C }
  - { offsetInCU: 0x1422F, offset: 0x1459C, size: 0x8, addend: 0x0, symName: __ZNSt3__14moveB8ue170006IPPNS_7variantIJN6events11MarketEventENS2_11SignalEventENS2_10OrderEventENS2_9FillEventEEEES9_EET0_T_SB_SA_, symObjAddr: 0x4F00, symBinAddr: 0x100007E0C, symSize: 0x40 }
  - { offsetInCU: 0x142A8, offset: 0x14615, size: 0x8, addend: 0x0, symName: __ZNSt3__112__to_addressB8ue170006IPNS_7variantIJN6events11MarketEventENS2_11SignalEventENS2_10OrderEventENS2_9FillEventEEEEEEPT_SA_, symObjAddr: 0x5008, symBinAddr: 0x100007F14, symSize: 0x14 }
  - { offsetInCU: 0x142DE, offset: 0x1464B, size: 0x8, addend: 0x0, symName: __ZNSt3__16__moveB8ue170006INS_17_ClassicAlgPolicyEPPNS_7variantIJN6events11MarketEventENS3_11SignalEventENS3_10OrderEventENS3_9FillEventEEEESA_SA_EENS_4pairIT0_T2_EESC_T1_SD_, symObjAddr: 0x501C, symBinAddr: 0x100007F28, symSize: 0x44 }
  - { offsetInCU: 0x1434B, offset: 0x146B8, size: 0x8, addend: 0x0, symName: __ZNSt3__123__dispatch_copy_or_moveB8ue170006INS_17_ClassicAlgPolicyENS_11__move_loopIS1_EENS_14__move_trivialEPPNS_7variantIJN6events11MarketEventENS6_11SignalEventENS6_10OrderEventENS6_9FillEventEEEESD_SD_EENS_4pairIT2_T4_EESF_T3_SG_, symObjAddr: 0x5060, symBinAddr: 0x100007F6C, symSize: 0x44 }
  - { offsetInCU: 0x143CA, offset: 0x14737, size: 0x8, addend: 0x0, symName: __ZNSt3__121__unwrap_and_dispatchB8ue170006INS_10__overloadINS_11__move_loopINS_17_ClassicAlgPolicyEEENS_14__move_trivialEEEPPNS_7variantIJN6events11MarketEventENS8_11SignalEventENS8_10OrderEventENS8_9FillEventEEEESF_SF_Li0EEENS_4pairIT0_T2_EESH_T1_SI_, symObjAddr: 0x50A4, symBinAddr: 0x100007FB0, symSize: 0xB4 }
  - { offsetInCU: 0x1445B, offset: 0x147C8, size: 0x8, addend: 0x0, symName: __ZNSt3__114__unwrap_rangeB8ue170006IPPNS_7variantIJN6events11MarketEventENS2_11SignalEventENS2_10OrderEventENS2_9FillEventEEEES9_EENS_4pairIT0_SB_EET_SD_, symObjAddr: 0x5158, symBinAddr: 0x100008064, symSize: 0x60 }
  - { offsetInCU: 0x14620, offset: 0x1498D, size: 0x8, addend: 0x0, symName: __ZNSt3__113__unwrap_iterB8ue170006IPPNS_7variantIJN6events11MarketEventENS2_11SignalEventENS2_10OrderEventENS2_9FillEventEEEENS_18__unwrap_iter_implIS9_Lb1EEELi0EEEDTclsrT0_8__unwrapclsr3stdE7declvalIT_EEEESD_, symObjAddr: 0x5200, symBinAddr: 0x10000810C, symSize: 0x24 }
  - { offsetInCU: 0x14664, offset: 0x149D1, size: 0x8, addend: 0x0, symName: __ZNSt3__19make_pairB8ue170006IPPNS_7variantIJN6events11MarketEventENS2_11SignalEventENS2_10OrderEventENS2_9FillEventEEEES9_EENS_4pairINS_18__unwrap_ref_decayIT_E4typeENSB_IT0_E4typeEEEOSC_OSF_, symObjAddr: 0x5224, symBinAddr: 0x100008130, symSize: 0x38 }
  - { offsetInCU: 0x146B4, offset: 0x14A21, size: 0x8, addend: 0x0, symName: __ZNSt3__114__rewrap_rangeB8ue170006IPPNS_7variantIJN6events11MarketEventENS2_11SignalEventENS2_10OrderEventENS2_9FillEventEEEES9_EET_SA_T0_, symObjAddr: 0x525C, symBinAddr: 0x100008168, symSize: 0x2C }
  - { offsetInCU: 0x14701, offset: 0x14A6E, size: 0x8, addend: 0x0, symName: __ZNSt3__113__rewrap_iterB8ue170006IPPNS_7variantIJN6events11MarketEventENS2_11SignalEventENS2_10OrderEventENS2_9FillEventEEEES9_NS_18__unwrap_iter_implIS9_Lb1EEEEET_SC_T0_, symObjAddr: 0x5288, symBinAddr: 0x100008194, symSize: 0x3C }
  - { offsetInCU: 0x14757, offset: 0x14AC4, size: 0x8, addend: 0x0, symName: __ZNSt3__119__copy_trivial_implB8ue170006IPNS_7variantIJN6events11MarketEventENS2_11SignalEventENS2_10OrderEventENS2_9FillEventEEEES8_EENS_4pairIPT_PT0_EESB_SB_SD_, symObjAddr: 0x52C4, symBinAddr: 0x1000081D0, symSize: 0x80 }
  - { offsetInCU: 0x147C1, offset: 0x14B2E, size: 0x8, addend: 0x0, symName: __ZNSt3__119__constexpr_memmoveB8ue170006IPNS_7variantIJN6events11MarketEventENS2_11SignalEventENS2_10OrderEventENS2_9FillEventEEEES8_Li0EEEPT_SA_PT0_NS_15__element_countE, symObjAddr: 0x5344, symBinAddr: 0x100008250, symSize: 0x64 }
  - { offsetInCU: 0x14830, offset: 0x14B9D, size: 0x8, addend: 0x0, symName: __ZNSt3__19make_pairB8ue170006IRPPNS_7variantIJN6events11MarketEventENS2_11SignalEventENS2_10OrderEventENS2_9FillEventEEEES9_EENS_4pairINS_18__unwrap_ref_decayIT_E4typeENSC_IT0_E4typeEEEOSD_OSG_, symObjAddr: 0x53A8, symBinAddr: 0x1000082B4, symSize: 0x38 }
  - { offsetInCU: 0x148D4, offset: 0x14C41, size: 0x8, addend: 0x0, symName: __ZNSt3__18distanceB8ue170006INS_13move_iteratorIPPNS_7variantIJN6events11MarketEventENS3_11SignalEventENS3_10OrderEventENS3_9FillEventEEEEEEEENS_15iterator_traitsIT_E15difference_typeESD_SD_, symObjAddr: 0x5610, symBinAddr: 0x10000851C, symSize: 0x3C }
  - { offsetInCU: 0x14918, offset: 0x14C85, size: 0x8, addend: 0x0, symName: __ZNSt3__110__distanceB8ue170006INS_13move_iteratorIPPNS_7variantIJN6events11MarketEventENS3_11SignalEventENS3_10OrderEventENS3_9FillEventEEEEEEEENS_15iterator_traitsIT_E15difference_typeESD_SD_NS_26random_access_iterator_tagE, symObjAddr: 0x5814, symBinAddr: 0x100008720, symSize: 0x30 }
  - { offsetInCU: 0x14965, offset: 0x14CD2, size: 0x8, addend: 0x0, symName: __ZNSt3__1miB8ue170006IPPNS_7variantIJN6events11MarketEventENS2_11SignalEventENS2_10OrderEventENS2_9FillEventEEEES9_EEDTmicldtfp_4baseEcldtfp0_4baseEERKNS_13move_iteratorIT_EERKNSB_IT0_EE, symObjAddr: 0x5844, symBinAddr: 0x100008750, symSize: 0x48 }
  - { offsetInCU: 0x149B5, offset: 0x14D22, size: 0x8, addend: 0x0, symName: __ZNSt3__113move_backwardB8ue170006IPPNS_7variantIJN6events11MarketEventENS2_11SignalEventENS2_10OrderEventENS2_9FillEventEEEES9_EET0_T_SB_SA_, symObjAddr: 0x59EC, symBinAddr: 0x1000088F8, symSize: 0x40 }
  - { offsetInCU: 0x14A10, offset: 0x14D7D, size: 0x8, addend: 0x0, symName: __ZNSt3__115__move_backwardB8ue170006INS_17_ClassicAlgPolicyEPPNS_7variantIJN6events11MarketEventENS3_11SignalEventENS3_10OrderEventENS3_9FillEventEEEESA_SA_EENS_4pairIT0_T2_EESC_T1_SD_, symObjAddr: 0x5A2C, symBinAddr: 0x100008938, symSize: 0x44 }
  - { offsetInCU: 0x14A7D, offset: 0x14DEA, size: 0x8, addend: 0x0, symName: __ZNSt3__123__dispatch_copy_or_moveB8ue170006INS_17_ClassicAlgPolicyENS_20__move_backward_loopIS1_EENS_23__move_backward_trivialEPPNS_7variantIJN6events11MarketEventENS6_11SignalEventENS6_10OrderEventENS6_9FillEventEEEESD_SD_EENS_4pairIT2_T4_EESF_T3_SG_, symObjAddr: 0x5A70, symBinAddr: 0x10000897C, symSize: 0x44 }
  - { offsetInCU: 0x14AFC, offset: 0x14E69, size: 0x8, addend: 0x0, symName: __ZNSt3__121__unwrap_and_dispatchB8ue170006INS_10__overloadINS_20__move_backward_loopINS_17_ClassicAlgPolicyEEENS_23__move_backward_trivialEEEPPNS_7variantIJN6events11MarketEventENS8_11SignalEventENS8_10OrderEventENS8_9FillEventEEEESF_SF_Li0EEENS_4pairIT0_T2_EESH_T1_SI_, symObjAddr: 0x5AB4, symBinAddr: 0x1000089C0, symSize: 0xB4 }
  - { offsetInCU: 0x14BD3, offset: 0x14F40, size: 0x8, addend: 0x0, symName: __ZNSt3__128__copy_backward_trivial_implB8ue170006IPNS_7variantIJN6events11MarketEventENS2_11SignalEventENS2_10OrderEventENS2_9FillEventEEEES8_EENS_4pairIPT_PT0_EESB_SB_SD_, symObjAddr: 0x5BB0, symBinAddr: 0x100008ABC, symSize: 0x90 }
  - { offsetInCU: 0x14C3C, offset: 0x14FA9, size: 0x8, addend: 0x0, symName: __ZNSt3__19make_pairB8ue170006IRPPNS_7variantIJN6events11MarketEventENS2_11SignalEventENS2_10OrderEventENS2_9FillEventEEEESA_EENS_4pairINS_18__unwrap_ref_decayIT_E4typeENSC_IT0_E4typeEEEOSD_OSG_, symObjAddr: 0x5C40, symBinAddr: 0x100008B4C, symSize: 0x38 }
  - { offsetInCU: 0x14C8C, offset: 0x14FF9, size: 0x8, addend: 0x0, symName: __ZNSt3__119__allocate_at_leastB8ue170006INS_9allocatorIPNS_7variantIJN6events11MarketEventENS3_11SignalEventENS3_10OrderEventENS3_9FillEventEEEEEEEENS_19__allocation_resultINS_16allocator_traitsIT_E7pointerEEERSD_m, symObjAddr: 0x5E74, symBinAddr: 0x100008D80, symSize: 0x40 }
  - { offsetInCU: 0x14CD0, offset: 0x1503D, size: 0x8, addend: 0x0, symName: __ZNSt3__1neB8ue170006IPNS_8functionIFvRKNS_7variantIJN6events11MarketEventENS3_11SignalEventENS3_10OrderEventENS3_9FillEventEEEEEEEEEbRKNS_11__wrap_iterIT_EESI_, symObjAddr: 0x6C60, symBinAddr: 0x100009B6C, symSize: 0x34 }
  - { offsetInCU: 0x14D14, offset: 0x15081, size: 0x8, addend: 0x0, symName: __ZNSt3__1eqB8ue170006IPNS_8functionIFvRKNS_7variantIJN6events11MarketEventENS3_11SignalEventENS3_10OrderEventENS3_9FillEventEEEEEEEEEbRKNS_11__wrap_iterIT_EESI_, symObjAddr: 0x6F44, symBinAddr: 0x100009E50, symSize: 0x48 }
  - { offsetInCU: 0x14D58, offset: 0x150C5, size: 0x8, addend: 0x0, symName: __ZNSt3__125__throw_bad_function_callB8ue170006Ev, symObjAddr: 0x6FFC, symBinAddr: 0x100009F08, symSize: 0x38 }
  - { offsetInCU: 0x14DA9, offset: 0x15116, size: 0x8, addend: 0x0, symName: __ZNSt3__1neB8ue170006ERKNS_16__deque_iteratorINS_7variantIJN6events11MarketEventENS2_11SignalEventENS2_10OrderEventENS2_9FillEventEEEEPS7_RS7_PS8_lLl39EEESD_, symObjAddr: 0x7798, symBinAddr: 0x10000A6A4, symSize: 0x34 }
  - { offsetInCU: 0x14DE7, offset: 0x15154, size: 0x8, addend: 0x0, symName: __ZNSt3__1eqB8ue170006ERKNS_16__deque_iteratorINS_7variantIJN6events11MarketEventENS2_11SignalEventENS2_10OrderEventENS2_9FillEventEEEEPS7_RS7_PS8_lLl39EEESD_, symObjAddr: 0x783C, symBinAddr: 0x10000A748, symSize: 0x30 }
  - { offsetInCU: 0x14E25, offset: 0x15192, size: 0x8, addend: 0x0, symName: __ZNSt3__112__to_addressB8ue170006IN3trd5TradeEEEPT_S4_, symObjAddr: 0x7DAC, symBinAddr: 0x10000ACB8, symSize: 0x14 }
  - { offsetInCU: 0x14E5B, offset: 0x151C8, size: 0x8, addend: 0x0, symName: __ZNSt3__112__to_addressB8ue170006IdEEPT_S2_, symObjAddr: 0x8278, symBinAddr: 0x10000B184, symSize: 0x14 }
  - { offsetInCU: 0x14E90, offset: 0x151FD, size: 0x8, addend: 0x0, symName: __ZNSt3__116__pad_and_outputB8ue170006IcNS_11char_traitsIcEEEENS_19ostreambuf_iteratorIT_T0_EES6_PKS4_S8_S8_RNS_8ios_baseES4_, symObjAddr: 0x8624, symBinAddr: 0x10000B530, symSize: 0x240 }
  - { offsetInCU: 0x14F60, offset: 0x152CD, size: 0x8, addend: 0x0, symName: __ZNSt3__112__to_addressB8ue170006IcEEPT_S2_, symObjAddr: 0x8B8C, symBinAddr: 0x10000BA98, symSize: 0x14 }
  - { offsetInCU: 0x14FC9, offset: 0x15336, size: 0x8, addend: 0x0, symName: __ZNSt3__19use_facetB8ue170006INS_5ctypeIcEEEERKT_RKNS_6localeE, symObjAddr: 0x8E44, symBinAddr: 0x10000BD50, symSize: 0x2C }
  - { offsetInCU: 0x15497, offset: 0x15804, size: 0x8, addend: 0x0, symName: __ZNSt3__118__constexpr_strlenB8ue170006EPKc, symObjAddr: 0x8EDC, symBinAddr: 0x10000BDE8, symSize: 0x24 }
  - { offsetInCU: 0x15627, offset: 0x15994, size: 0x8, addend: 0x0, symName: '__ZNSt3__116forward_as_tupleB8ue170006IJZN3trd8Backtest3runERKNS_6vectorINS1_3BarENS_9allocatorIS4_EEEER8StrategyE3$_0EEENS_5tupleIJDpOT_EEESG_', symObjAddr: 0x9644, symBinAddr: 0x10000C550, symSize: 0x2C }
  - { offsetInCU: 0x15661, offset: 0x159CE, size: 0x8, addend: 0x0, symName: '__ZNSt3__116forward_as_tupleB8ue170006IJNS_9allocatorIZN3trd8Backtest3runERKNS_6vectorINS2_3BarENS1_IS5_EEEER8StrategyE3$_0EEEEENS_5tupleIJDpOT_EEESH_', symObjAddr: 0x9670, symBinAddr: 0x10000C57C, symSize: 0x2C }
  - { offsetInCU: 0x156E0, offset: 0x15A4D, size: 0x8, addend: 0x0, symName: '__ZNSt3__13getB8ue170006ILm0EJOZN3trd8Backtest3runERKNS_6vectorINS1_3BarENS_9allocatorIS4_EEEER8StrategyE3$_0EEERNS_13tuple_elementIXT_ENS_5tupleIJDpT0_EEEE4typeERSI_', symObjAddr: 0x9988, symBinAddr: 0x10000C894, symSize: 0x24 }
  - { offsetInCU: 0x15723, offset: 0x15A90, size: 0x8, addend: 0x0, symName: '__ZNSt3__13getB8ue170006ILm0EJONS_9allocatorIZN3trd8Backtest3runERKNS_6vectorINS2_3BarENS1_IS5_EEEER8StrategyE3$_0EEEEERNS_13tuple_elementIXT_ENS_5tupleIJDpT0_EEEE4typeERSJ_', symObjAddr: 0x99C4, symBinAddr: 0x10000C8D0, symSize: 0x24 }
  - { offsetInCU: 0x15C57, offset: 0x15FC4, size: 0x8, addend: 0x0, symName: '__ZNSt3__116forward_as_tupleB8ue170006IJRKZN3trd8Backtest3runERKNS_6vectorINS1_3BarENS_9allocatorIS4_EEEER8StrategyE3$_0EEENS_5tupleIJDpOT_EEESI_', symObjAddr: 0x9F58, symBinAddr: 0x10000CE64, symSize: 0x2C }
  - { offsetInCU: 0x15CA6, offset: 0x16013, size: 0x8, addend: 0x0, symName: '__ZNSt3__13getB8ue170006ILm0EJRKZN3trd8Backtest3runERKNS_6vectorINS1_3BarENS_9allocatorIS4_EEEER8StrategyE3$_0EEERNS_13tuple_elementIXT_ENS_5tupleIJDpT0_EEEE4typeERSJ_', symObjAddr: 0xA148, symBinAddr: 0x10000D054, symSize: 0x24 }
  - { offsetInCU: 0x15CE9, offset: 0x16056, size: 0x8, addend: 0x0, symName: '__ZNSt3__116forward_as_tupleB8ue170006IJRKNS_9allocatorIZN3trd8Backtest3runERKNS_6vectorINS2_3BarENS1_IS5_EEEER8StrategyE3$_0EEEEENS_5tupleIJDpOT_EEESJ_', symObjAddr: 0xA4A4, symBinAddr: 0x10000D3B0, symSize: 0x2C }
  - { offsetInCU: 0x15D38, offset: 0x160A5, size: 0x8, addend: 0x0, symName: '__ZNSt3__13getB8ue170006ILm0EJRKNS_9allocatorIZN3trd8Backtest3runERKNS_6vectorINS2_3BarENS1_IS5_EEEER8StrategyE3$_0EEEEERNS_13tuple_elementIXT_ENS_5tupleIJDpT0_EEEE4typeERSK_', symObjAddr: 0xA688, symBinAddr: 0x10000D594, symSize: 0x24 }
  - { offsetInCU: 0x15E55, offset: 0x161C2, size: 0x8, addend: 0x0, symName: '__ZNSt3__18__invokeB8ue170006IRZN3trd8Backtest3runERKNS_6vectorINS1_3BarENS_9allocatorIS4_EEEER8StrategyE3$_0JRKNS_7variantIJN6events11MarketEventENSF_11SignalEventENSF_10OrderEventENSF_9FillEventEEEEEEEDTclclsr3stdE7declvalIT_EEspclsr3stdE7declvalIT0_EEEEOSN_DpOSO_', symObjAddr: 0xA754, symBinAddr: 0x10000D660, symSize: 0x2C }
  - { offsetInCU: 0x15EA2, offset: 0x1620F, size: 0x8, addend: 0x0, symName: __ZNSt3__16get_ifB8ue170006IN6events11MarketEventEJS2_NS1_11SignalEventENS1_10OrderEventENS1_9FillEventEEEEu13__add_pointerIKT_EPKNS_7variantIJDpT0_EEE, symObjAddr: 0xA86C, symBinAddr: 0x10000D778, symSize: 0x24 }
  - { offsetInCU: 0x15EF3, offset: 0x16260, size: 0x8, addend: 0x0, symName: __ZNSt3__16get_ifB8ue170006ILm0EJN6events11MarketEventENS1_11SignalEventENS1_10OrderEventENS1_9FillEventEEEEu13__add_pointerIKNS_19variant_alternativeIXT_ENS_7variantIJDpT0_EEEE4typeEEPKSA_, symObjAddr: 0xA8C4, symBinAddr: 0x10000D7D0, symSize: 0x24 }
  - { offsetInCU: 0x15F45, offset: 0x162B2, size: 0x8, addend: 0x0, symName: __ZNSt3__116__generic_get_ifB8ue170006ILm0EKNS_7variantIJN6events11MarketEventENS2_11SignalEventENS2_10OrderEventENS2_9FillEventEEEEEEPDaPT0_, symObjAddr: 0xA8E8, symBinAddr: 0x10000D7F4, symSize: 0x70 }
  - { offsetInCU: 0x15F8F, offset: 0x162FC, size: 0x8, addend: 0x0, symName: __ZNSt3__119__holds_alternativeB8ue170006ILm0EJN6events11MarketEventENS1_11SignalEventENS1_10OrderEventENS1_9FillEventEEEEbRKNS_7variantIJDpT0_EEE, symObjAddr: 0xA958, symBinAddr: 0x10000D864, symSize: 0x30 }
  - { offsetInCU: 0x16145, offset: 0x164B2, size: 0x8, addend: 0x0, symName: '__ZNSt3__116forward_as_tupleB8ue170006IJZN3trd8Backtest3runERKNS_6vectorINS1_3BarENS_9allocatorIS4_EEEER8StrategyE3$_1EEENS_5tupleIJDpOT_EEESG_', symObjAddr: 0xB6AC, symBinAddr: 0x10000E5B8, symSize: 0x2C }
  - { offsetInCU: 0x1617F, offset: 0x164EC, size: 0x8, addend: 0x0, symName: '__ZNSt3__116forward_as_tupleB8ue170006IJNS_9allocatorIZN3trd8Backtest3runERKNS_6vectorINS2_3BarENS1_IS5_EEEER8StrategyE3$_1EEEEENS_5tupleIJDpOT_EEESH_', symObjAddr: 0xB6D8, symBinAddr: 0x10000E5E4, symSize: 0x2C }
  - { offsetInCU: 0x161E3, offset: 0x16550, size: 0x8, addend: 0x0, symName: '__ZNSt3__13getB8ue170006ILm0EJOZN3trd8Backtest3runERKNS_6vectorINS1_3BarENS_9allocatorIS4_EEEER8StrategyE3$_1EEERNS_13tuple_elementIXT_ENS_5tupleIJDpT0_EEEE4typeERSI_', symObjAddr: 0xB9F0, symBinAddr: 0x10000E8FC, symSize: 0x24 }
  - { offsetInCU: 0x16226, offset: 0x16593, size: 0x8, addend: 0x0, symName: '__ZNSt3__13getB8ue170006ILm0EJONS_9allocatorIZN3trd8Backtest3runERKNS_6vectorINS2_3BarENS1_IS5_EEEER8StrategyE3$_1EEEEERNS_13tuple_elementIXT_ENS_5tupleIJDpT0_EEEE4typeERSJ_', symObjAddr: 0xBA2C, symBinAddr: 0x10000E938, symSize: 0x24 }
  - { offsetInCU: 0x1675A, offset: 0x16AC7, size: 0x8, addend: 0x0, symName: '__ZNSt3__116forward_as_tupleB8ue170006IJRKZN3trd8Backtest3runERKNS_6vectorINS1_3BarENS_9allocatorIS4_EEEER8StrategyE3$_1EEENS_5tupleIJDpOT_EEESI_', symObjAddr: 0xBFC0, symBinAddr: 0x10000EECC, symSize: 0x2C }
  - { offsetInCU: 0x167A9, offset: 0x16B16, size: 0x8, addend: 0x0, symName: '__ZNSt3__13getB8ue170006ILm0EJRKZN3trd8Backtest3runERKNS_6vectorINS1_3BarENS_9allocatorIS4_EEEER8StrategyE3$_1EEERNS_13tuple_elementIXT_ENS_5tupleIJDpT0_EEEE4typeERSJ_', symObjAddr: 0xC1B0, symBinAddr: 0x10000F0BC, symSize: 0x24 }
  - { offsetInCU: 0x167EC, offset: 0x16B59, size: 0x8, addend: 0x0, symName: '__ZNSt3__116forward_as_tupleB8ue170006IJRKNS_9allocatorIZN3trd8Backtest3runERKNS_6vectorINS2_3BarENS1_IS5_EEEER8StrategyE3$_1EEEEENS_5tupleIJDpOT_EEESJ_', symObjAddr: 0xC50C, symBinAddr: 0x10000F418, symSize: 0x2C }
  - { offsetInCU: 0x1683B, offset: 0x16BA8, size: 0x8, addend: 0x0, symName: '__ZNSt3__13getB8ue170006ILm0EJRKNS_9allocatorIZN3trd8Backtest3runERKNS_6vectorINS2_3BarENS1_IS5_EEEER8StrategyE3$_1EEEEERNS_13tuple_elementIXT_ENS_5tupleIJDpT0_EEEE4typeERSK_', symObjAddr: 0xC6F0, symBinAddr: 0x10000F5FC, symSize: 0x24 }
  - { offsetInCU: 0x1687E, offset: 0x16BEB, size: 0x8, addend: 0x0, symName: '__ZNSt3__18__invokeB8ue170006IRZN3trd8Backtest3runERKNS_6vectorINS1_3BarENS_9allocatorIS4_EEEER8StrategyE3$_1JRKNS_7variantIJN6events11MarketEventENSF_11SignalEventENSF_10OrderEventENSF_9FillEventEEEEEEEDTclclsr3stdE7declvalIT_EEspclsr3stdE7declvalIT0_EEEEOSN_DpOSO_', symObjAddr: 0xC7BC, symBinAddr: 0x10000F6C8, symSize: 0x2C }
  - { offsetInCU: 0x168CB, offset: 0x16C38, size: 0x8, addend: 0x0, symName: __ZNSt3__16get_ifB8ue170006IN6events11SignalEventEJNS1_11MarketEventES2_NS1_10OrderEventENS1_9FillEventEEEEu13__add_pointerIKT_EPKNS_7variantIJDpT0_EEE, symObjAddr: 0xC974, symBinAddr: 0x10000F880, symSize: 0x24 }
  - { offsetInCU: 0x1691C, offset: 0x16C89, size: 0x8, addend: 0x0, symName: __ZNSt3__16get_ifB8ue170006ILm1EJN6events11MarketEventENS1_11SignalEventENS1_10OrderEventENS1_9FillEventEEEEu13__add_pointerIKNS_19variant_alternativeIXT_ENS_7variantIJDpT0_EEEE4typeEEPKSA_, symObjAddr: 0xC9CC, symBinAddr: 0x10000F8D8, symSize: 0x24 }
  - { offsetInCU: 0x1696E, offset: 0x16CDB, size: 0x8, addend: 0x0, symName: __ZNSt3__116__generic_get_ifB8ue170006ILm1EKNS_7variantIJN6events11MarketEventENS2_11SignalEventENS2_10OrderEventENS2_9FillEventEEEEEEPDaPT0_, symObjAddr: 0xC9F0, symBinAddr: 0x10000F8FC, symSize: 0x70 }
  - { offsetInCU: 0x169B8, offset: 0x16D25, size: 0x8, addend: 0x0, symName: __ZNSt3__119__holds_alternativeB8ue170006ILm1EJN6events11MarketEventENS1_11SignalEventENS1_10OrderEventENS1_9FillEventEEEEbRKNS_7variantIJDpT0_EEE, symObjAddr: 0xCA60, symBinAddr: 0x10000F96C, symSize: 0x30 }
  - { offsetInCU: 0x16B6E, offset: 0x16EDB, size: 0x8, addend: 0x0, symName: '__ZNSt3__116forward_as_tupleB8ue170006IJZN3trd8Backtest3runERKNS_6vectorINS1_3BarENS_9allocatorIS4_EEEER8StrategyE3$_2EEENS_5tupleIJDpOT_EEESG_', symObjAddr: 0xD5EC, symBinAddr: 0x1000104F8, symSize: 0x2C }
  - { offsetInCU: 0x16BA8, offset: 0x16F15, size: 0x8, addend: 0x0, symName: '__ZNSt3__116forward_as_tupleB8ue170006IJNS_9allocatorIZN3trd8Backtest3runERKNS_6vectorINS2_3BarENS1_IS5_EEEER8StrategyE3$_2EEEEENS_5tupleIJDpOT_EEESH_', symObjAddr: 0xD618, symBinAddr: 0x100010524, symSize: 0x2C }
  - { offsetInCU: 0x16C0C, offset: 0x16F79, size: 0x8, addend: 0x0, symName: '__ZNSt3__13getB8ue170006ILm0EJOZN3trd8Backtest3runERKNS_6vectorINS1_3BarENS_9allocatorIS4_EEEER8StrategyE3$_2EEERNS_13tuple_elementIXT_ENS_5tupleIJDpT0_EEEE4typeERSI_', symObjAddr: 0xD930, symBinAddr: 0x10001083C, symSize: 0x24 }
  - { offsetInCU: 0x16C4F, offset: 0x16FBC, size: 0x8, addend: 0x0, symName: '__ZNSt3__13getB8ue170006ILm0EJONS_9allocatorIZN3trd8Backtest3runERKNS_6vectorINS2_3BarENS1_IS5_EEEER8StrategyE3$_2EEEEERNS_13tuple_elementIXT_ENS_5tupleIJDpT0_EEEE4typeERSJ_', symObjAddr: 0xD96C, symBinAddr: 0x100010878, symSize: 0x24 }
  - { offsetInCU: 0x17183, offset: 0x174F0, size: 0x8, addend: 0x0, symName: '__ZNSt3__116forward_as_tupleB8ue170006IJRKZN3trd8Backtest3runERKNS_6vectorINS1_3BarENS_9allocatorIS4_EEEER8StrategyE3$_2EEENS_5tupleIJDpOT_EEESI_', symObjAddr: 0xDF00, symBinAddr: 0x100010E0C, symSize: 0x2C }
  - { offsetInCU: 0x171D2, offset: 0x1753F, size: 0x8, addend: 0x0, symName: '__ZNSt3__13getB8ue170006ILm0EJRKZN3trd8Backtest3runERKNS_6vectorINS1_3BarENS_9allocatorIS4_EEEER8StrategyE3$_2EEERNS_13tuple_elementIXT_ENS_5tupleIJDpT0_EEEE4typeERSJ_', symObjAddr: 0xE0F0, symBinAddr: 0x100010FFC, symSize: 0x24 }
  - { offsetInCU: 0x17215, offset: 0x17582, size: 0x8, addend: 0x0, symName: '__ZNSt3__116forward_as_tupleB8ue170006IJRKNS_9allocatorIZN3trd8Backtest3runERKNS_6vectorINS2_3BarENS1_IS5_EEEER8StrategyE3$_2EEEEENS_5tupleIJDpOT_EEESJ_', symObjAddr: 0xE44C, symBinAddr: 0x100011358, symSize: 0x2C }
  - { offsetInCU: 0x17264, offset: 0x175D1, size: 0x8, addend: 0x0, symName: '__ZNSt3__13getB8ue170006ILm0EJRKNS_9allocatorIZN3trd8Backtest3runERKNS_6vectorINS2_3BarENS1_IS5_EEEER8StrategyE3$_2EEEEERNS_13tuple_elementIXT_ENS_5tupleIJDpT0_EEEE4typeERSK_', symObjAddr: 0xE630, symBinAddr: 0x10001153C, symSize: 0x24 }
  - { offsetInCU: 0x172A7, offset: 0x17614, size: 0x8, addend: 0x0, symName: '__ZNSt3__18__invokeB8ue170006IRZN3trd8Backtest3runERKNS_6vectorINS1_3BarENS_9allocatorIS4_EEEER8StrategyE3$_2JRKNS_7variantIJN6events11MarketEventENSF_11SignalEventENSF_10OrderEventENSF_9FillEventEEEEEEEDTclclsr3stdE7declvalIT_EEspclsr3stdE7declvalIT0_EEEEOSN_DpOSO_', symObjAddr: 0xE6FC, symBinAddr: 0x100011608, symSize: 0x2C }
  - { offsetInCU: 0x172F4, offset: 0x17661, size: 0x8, addend: 0x0, symName: __ZNSt3__16get_ifB8ue170006IN6events10OrderEventEJNS1_11MarketEventENS1_11SignalEventES2_NS1_9FillEventEEEEu13__add_pointerIKT_EPKNS_7variantIJDpT0_EEE, symObjAddr: 0xE82C, symBinAddr: 0x100011738, symSize: 0x24 }
  - { offsetInCU: 0x17345, offset: 0x176B2, size: 0x8, addend: 0x0, symName: __ZNSt3__16get_ifB8ue170006ILm2EJN6events11MarketEventENS1_11SignalEventENS1_10OrderEventENS1_9FillEventEEEEu13__add_pointerIKNS_19variant_alternativeIXT_ENS_7variantIJDpT0_EEEE4typeEEPKSA_, symObjAddr: 0xE884, symBinAddr: 0x100011790, symSize: 0x24 }
  - { offsetInCU: 0x17397, offset: 0x17704, size: 0x8, addend: 0x0, symName: __ZNSt3__116__generic_get_ifB8ue170006ILm2EKNS_7variantIJN6events11MarketEventENS2_11SignalEventENS2_10OrderEventENS2_9FillEventEEEEEEPDaPT0_, symObjAddr: 0xE8A8, symBinAddr: 0x1000117B4, symSize: 0x70 }
  - { offsetInCU: 0x173E1, offset: 0x1774E, size: 0x8, addend: 0x0, symName: __ZNSt3__119__holds_alternativeB8ue170006ILm2EJN6events11MarketEventENS1_11SignalEventENS1_10OrderEventENS1_9FillEventEEEEbRKNS_7variantIJDpT0_EEE, symObjAddr: 0xE918, symBinAddr: 0x100011824, symSize: 0x30 }
  - { offsetInCU: 0x17597, offset: 0x17904, size: 0x8, addend: 0x0, symName: '__ZNSt3__116forward_as_tupleB8ue170006IJZN3trd8Backtest3runERKNS_6vectorINS1_3BarENS_9allocatorIS4_EEEER8StrategyE3$_3EEENS_5tupleIJDpOT_EEESG_', symObjAddr: 0xF538, symBinAddr: 0x100012444, symSize: 0x2C }
  - { offsetInCU: 0x175D1, offset: 0x1793E, size: 0x8, addend: 0x0, symName: '__ZNSt3__116forward_as_tupleB8ue170006IJNS_9allocatorIZN3trd8Backtest3runERKNS_6vectorINS2_3BarENS1_IS5_EEEER8StrategyE3$_3EEEEENS_5tupleIJDpOT_EEESH_', symObjAddr: 0xF564, symBinAddr: 0x100012470, symSize: 0x2C }
  - { offsetInCU: 0x17635, offset: 0x179A2, size: 0x8, addend: 0x0, symName: '__ZNSt3__13getB8ue170006ILm0EJOZN3trd8Backtest3runERKNS_6vectorINS1_3BarENS_9allocatorIS4_EEEER8StrategyE3$_3EEERNS_13tuple_elementIXT_ENS_5tupleIJDpT0_EEEE4typeERSI_', symObjAddr: 0xF87C, symBinAddr: 0x100012788, symSize: 0x24 }
  - { offsetInCU: 0x17678, offset: 0x179E5, size: 0x8, addend: 0x0, symName: '__ZNSt3__13getB8ue170006ILm0EJONS_9allocatorIZN3trd8Backtest3runERKNS_6vectorINS2_3BarENS1_IS5_EEEER8StrategyE3$_3EEEEERNS_13tuple_elementIXT_ENS_5tupleIJDpT0_EEEE4typeERSJ_', symObjAddr: 0xF8B8, symBinAddr: 0x1000127C4, symSize: 0x24 }
  - { offsetInCU: 0x17BAC, offset: 0x17F19, size: 0x8, addend: 0x0, symName: '__ZNSt3__116forward_as_tupleB8ue170006IJRKZN3trd8Backtest3runERKNS_6vectorINS1_3BarENS_9allocatorIS4_EEEER8StrategyE3$_3EEENS_5tupleIJDpOT_EEESI_', symObjAddr: 0xFE4C, symBinAddr: 0x100012D58, symSize: 0x2C }
  - { offsetInCU: 0x17BFB, offset: 0x17F68, size: 0x8, addend: 0x0, symName: '__ZNSt3__13getB8ue170006ILm0EJRKZN3trd8Backtest3runERKNS_6vectorINS1_3BarENS_9allocatorIS4_EEEER8StrategyE3$_3EEERNS_13tuple_elementIXT_ENS_5tupleIJDpT0_EEEE4typeERSJ_', symObjAddr: 0x1003C, symBinAddr: 0x100012F48, symSize: 0x24 }
  - { offsetInCU: 0x17C3E, offset: 0x17FAB, size: 0x8, addend: 0x0, symName: '__ZNSt3__116forward_as_tupleB8ue170006IJRKNS_9allocatorIZN3trd8Backtest3runERKNS_6vectorINS2_3BarENS1_IS5_EEEER8StrategyE3$_3EEEEENS_5tupleIJDpOT_EEESJ_', symObjAddr: 0x10398, symBinAddr: 0x1000132A4, symSize: 0x2C }
  - { offsetInCU: 0x17C8D, offset: 0x17FFA, size: 0x8, addend: 0x0, symName: '__ZNSt3__13getB8ue170006ILm0EJRKNS_9allocatorIZN3trd8Backtest3runERKNS_6vectorINS2_3BarENS1_IS5_EEEER8StrategyE3$_3EEEEERNS_13tuple_elementIXT_ENS_5tupleIJDpT0_EEEE4typeERSK_', symObjAddr: 0x1057C, symBinAddr: 0x100013488, symSize: 0x24 }
  - { offsetInCU: 0x17CD0, offset: 0x1803D, size: 0x8, addend: 0x0, symName: '__ZNSt3__18__invokeB8ue170006IRZN3trd8Backtest3runERKNS_6vectorINS1_3BarENS_9allocatorIS4_EEEER8StrategyE3$_3JRKNS_7variantIJN6events11MarketEventENSF_11SignalEventENSF_10OrderEventENSF_9FillEventEEEEEEEDTclclsr3stdE7declvalIT_EEspclsr3stdE7declvalIT0_EEEEOSN_DpOSO_', symObjAddr: 0x10648, symBinAddr: 0x100013554, symSize: 0x2C }
  - { offsetInCU: 0x17D1D, offset: 0x1808A, size: 0x8, addend: 0x0, symName: __ZNSt3__16get_ifB8ue170006IN6events9FillEventEJNS1_11MarketEventENS1_11SignalEventENS1_10OrderEventES2_EEEu13__add_pointerIKT_EPKNS_7variantIJDpT0_EEE, symObjAddr: 0x10844, symBinAddr: 0x100013750, symSize: 0x24 }
  - { offsetInCU: 0x17D6E, offset: 0x180DB, size: 0x8, addend: 0x0, symName: __ZNSt3__16get_ifB8ue170006ILm3EJN6events11MarketEventENS1_11SignalEventENS1_10OrderEventENS1_9FillEventEEEEu13__add_pointerIKNS_19variant_alternativeIXT_ENS_7variantIJDpT0_EEEE4typeEEPKSA_, symObjAddr: 0x10918, symBinAddr: 0x100013824, symSize: 0x24 }
  - { offsetInCU: 0x17DC0, offset: 0x1812D, size: 0x8, addend: 0x0, symName: __ZNSt3__116__generic_get_ifB8ue170006ILm3EKNS_7variantIJN6events11MarketEventENS2_11SignalEventENS2_10OrderEventENS2_9FillEventEEEEEEPDaPT0_, symObjAddr: 0x1093C, symBinAddr: 0x100013848, symSize: 0x70 }
  - { offsetInCU: 0x17E0A, offset: 0x18177, size: 0x8, addend: 0x0, symName: __ZNSt3__119__holds_alternativeB8ue170006ILm3EJN6events11MarketEventENS1_11SignalEventENS1_10OrderEventENS1_9FillEventEEEEbRKNS_7variantIJDpT0_EEE, symObjAddr: 0x109AC, symBinAddr: 0x1000138B8, symSize: 0x30 }
  - { offsetInCU: 0x17FC0, offset: 0x1832D, size: 0x8, addend: 0x0, symName: '__ZNSt3__116forward_as_tupleB8ue170006IJZN3trd8Backtest3runERKNS_6vectorINS1_3BarENS_9allocatorIS4_EEEER8StrategyE3$_4EEENS_5tupleIJDpOT_EEESG_', symObjAddr: 0x111A4, symBinAddr: 0x1000140B0, symSize: 0x2C }
  - { offsetInCU: 0x17FFA, offset: 0x18367, size: 0x8, addend: 0x0, symName: '__ZNSt3__116forward_as_tupleB8ue170006IJNS_9allocatorIZN3trd8Backtest3runERKNS_6vectorINS2_3BarENS1_IS5_EEEER8StrategyE3$_4EEEEENS_5tupleIJDpOT_EEESH_', symObjAddr: 0x111D0, symBinAddr: 0x1000140DC, symSize: 0x2C }
  - { offsetInCU: 0x1805E, offset: 0x183CB, size: 0x8, addend: 0x0, symName: '__ZNSt3__13getB8ue170006ILm0EJOZN3trd8Backtest3runERKNS_6vectorINS1_3BarENS_9allocatorIS4_EEEER8StrategyE3$_4EEERNS_13tuple_elementIXT_ENS_5tupleIJDpT0_EEEE4typeERSI_', symObjAddr: 0x114E8, symBinAddr: 0x1000143F4, symSize: 0x24 }
  - { offsetInCU: 0x180A1, offset: 0x1840E, size: 0x8, addend: 0x0, symName: '__ZNSt3__13getB8ue170006ILm0EJONS_9allocatorIZN3trd8Backtest3runERKNS_6vectorINS2_3BarENS1_IS5_EEEER8StrategyE3$_4EEEEERNS_13tuple_elementIXT_ENS_5tupleIJDpT0_EEEE4typeERSJ_', symObjAddr: 0x11524, symBinAddr: 0x100014430, symSize: 0x24 }
  - { offsetInCU: 0x185D5, offset: 0x18942, size: 0x8, addend: 0x0, symName: '__ZNSt3__116forward_as_tupleB8ue170006IJRKZN3trd8Backtest3runERKNS_6vectorINS1_3BarENS_9allocatorIS4_EEEER8StrategyE3$_4EEENS_5tupleIJDpOT_EEESI_', symObjAddr: 0x11AB8, symBinAddr: 0x1000149C4, symSize: 0x2C }
  - { offsetInCU: 0x18624, offset: 0x18991, size: 0x8, addend: 0x0, symName: '__ZNSt3__13getB8ue170006ILm0EJRKZN3trd8Backtest3runERKNS_6vectorINS1_3BarENS_9allocatorIS4_EEEER8StrategyE3$_4EEERNS_13tuple_elementIXT_ENS_5tupleIJDpT0_EEEE4typeERSJ_', symObjAddr: 0x11CA8, symBinAddr: 0x100014BB4, symSize: 0x24 }
  - { offsetInCU: 0x18667, offset: 0x189D4, size: 0x8, addend: 0x0, symName: '__ZNSt3__116forward_as_tupleB8ue170006IJRKNS_9allocatorIZN3trd8Backtest3runERKNS_6vectorINS2_3BarENS1_IS5_EEEER8StrategyE3$_4EEEEENS_5tupleIJDpOT_EEESJ_', symObjAddr: 0x12004, symBinAddr: 0x100014F10, symSize: 0x2C }
  - { offsetInCU: 0x186B6, offset: 0x18A23, size: 0x8, addend: 0x0, symName: '__ZNSt3__13getB8ue170006ILm0EJRKNS_9allocatorIZN3trd8Backtest3runERKNS_6vectorINS2_3BarENS1_IS5_EEEER8StrategyE3$_4EEEEERNS_13tuple_elementIXT_ENS_5tupleIJDpT0_EEEE4typeERSK_', symObjAddr: 0x121E8, symBinAddr: 0x1000150F4, symSize: 0x24 }
  - { offsetInCU: 0x186F9, offset: 0x18A66, size: 0x8, addend: 0x0, symName: '__ZNSt3__18__invokeB8ue170006IRZN3trd8Backtest3runERKNS_6vectorINS1_3BarENS_9allocatorIS4_EEEER8StrategyE3$_4JRKNS_7variantIJN6events11MarketEventENSF_11SignalEventENSF_10OrderEventENSF_9FillEventEEEEEEEDTclclsr3stdE7declvalIT_EEspclsr3stdE7declvalIT0_EEEEOSN_DpOSO_', symObjAddr: 0x122B4, symBinAddr: 0x1000151C0, symSize: 0x2C }
  - { offsetInCU: 0x18746, offset: 0x18AB3, size: 0x8, addend: 0x0, symName: __ZNSt3__117holds_alternativeB8ue170006IN6events11MarketEventEJS2_NS1_11SignalEventENS1_10OrderEventENS1_9FillEventEEEEbRKNS_7variantIJDpT0_EEE, symObjAddr: 0x12480, symBinAddr: 0x10001538C, symSize: 0x28 }
  - { offsetInCU: 0x18797, offset: 0x18B04, size: 0x8, addend: 0x0, symName: __ZNSt3__117holds_alternativeB8ue170006IN6events11SignalEventEJNS1_11MarketEventES2_NS1_10OrderEventENS1_9FillEventEEEEbRKNS_7variantIJDpT0_EEE, symObjAddr: 0x124A8, symBinAddr: 0x1000153B4, symSize: 0x28 }
  - { offsetInCU: 0x187E8, offset: 0x18B55, size: 0x8, addend: 0x0, symName: __ZNSt3__13getB8ue170006IN6events11SignalEventEJNS1_11MarketEventES2_NS1_10OrderEventENS1_9FillEventEEEERKT_RKNS_7variantIJDpT0_EEE, symObjAddr: 0x124D0, symBinAddr: 0x1000153DC, symSize: 0x24 }
  - { offsetInCU: 0x18839, offset: 0x18BA6, size: 0x8, addend: 0x0, symName: __ZNSt3__117holds_alternativeB8ue170006IN6events10OrderEventEJNS1_11MarketEventENS1_11SignalEventES2_NS1_9FillEventEEEEbRKNS_7variantIJDpT0_EEE, symObjAddr: 0x124F4, symBinAddr: 0x100015400, symSize: 0x28 }
  - { offsetInCU: 0x1888A, offset: 0x18BF7, size: 0x8, addend: 0x0, symName: __ZNSt3__13getB8ue170006IN6events10OrderEventEJNS1_11MarketEventENS1_11SignalEventES2_NS1_9FillEventEEEERKT_RKNS_7variantIJDpT0_EEE, symObjAddr: 0x1251C, symBinAddr: 0x100015428, symSize: 0x24 }
  - { offsetInCU: 0x188DB, offset: 0x18C48, size: 0x8, addend: 0x0, symName: __ZNSt3__117holds_alternativeB8ue170006IN6events9FillEventEJNS1_11MarketEventENS1_11SignalEventENS1_10OrderEventES2_EEEbRKNS_7variantIJDpT0_EEE, symObjAddr: 0x12540, symBinAddr: 0x10001544C, symSize: 0x28 }
  - { offsetInCU: 0x1892C, offset: 0x18C99, size: 0x8, addend: 0x0, symName: __ZNSt3__13getB8ue170006IN6events9FillEventEJNS1_11MarketEventENS1_11SignalEventENS1_10OrderEventES2_EEERKT_RKNS_7variantIJDpT0_EEE, symObjAddr: 0x12568, symBinAddr: 0x100015474, symSize: 0x24 }
  - { offsetInCU: 0x1897D, offset: 0x18CEA, size: 0x8, addend: 0x0, symName: __ZNSt3__13getB8ue170006ILm1EJN6events11MarketEventENS1_11SignalEventENS1_10OrderEventENS1_9FillEventEEEERKNS_19variant_alternativeIXT_ENS_7variantIJDpT0_EEEE4typeERKSA_, symObjAddr: 0x1258C, symBinAddr: 0x100015498, symSize: 0x24 }
  - { offsetInCU: 0x189CF, offset: 0x18D3C, size: 0x8, addend: 0x0, symName: __ZNSt3__113__generic_getB8ue170006ILm1ERKNS_7variantIJN6events11MarketEventENS2_11SignalEventENS2_10OrderEventENS2_9FillEventEEEEEEODaOT0_, symObjAddr: 0x125B0, symBinAddr: 0x1000154BC, symSize: 0x38 }
  - { offsetInCU: 0x18A1A, offset: 0x18D87, size: 0x8, addend: 0x0, symName: __ZNSt3__126__throw_bad_variant_accessB8ue170006Ev, symObjAddr: 0x125E8, symBinAddr: 0x1000154F4, symSize: 0x38 }
  - { offsetInCU: 0x18A34, offset: 0x18DA1, size: 0x8, addend: 0x0, symName: __ZNSt3__13getB8ue170006ILm2EJN6events11MarketEventENS1_11SignalEventENS1_10OrderEventENS1_9FillEventEEEERKNS_19variant_alternativeIXT_ENS_7variantIJDpT0_EEEE4typeERKSA_, symObjAddr: 0x126E8, symBinAddr: 0x1000155F4, symSize: 0x24 }
  - { offsetInCU: 0x18A86, offset: 0x18DF3, size: 0x8, addend: 0x0, symName: __ZNSt3__113__generic_getB8ue170006ILm2ERKNS_7variantIJN6events11MarketEventENS2_11SignalEventENS2_10OrderEventENS2_9FillEventEEEEEEODaOT0_, symObjAddr: 0x1270C, symBinAddr: 0x100015618, symSize: 0x38 }
  - { offsetInCU: 0x18AD0, offset: 0x18E3D, size: 0x8, addend: 0x0, symName: __ZNSt3__13getB8ue170006ILm3EJN6events11MarketEventENS1_11SignalEventENS1_10OrderEventENS1_9FillEventEEEERKNS_19variant_alternativeIXT_ENS_7variantIJDpT0_EEEE4typeERKSA_, symObjAddr: 0x12744, symBinAddr: 0x100015650, symSize: 0x24 }
  - { offsetInCU: 0x18B22, offset: 0x18E8F, size: 0x8, addend: 0x0, symName: __ZNSt3__113__generic_getB8ue170006ILm3ERKNS_7variantIJN6events11MarketEventENS2_11SignalEventENS2_10OrderEventENS2_9FillEventEEEEEEODaOT0_, symObjAddr: 0x12768, symBinAddr: 0x100015674, symSize: 0x38 }
  - { offsetInCU: 0x1952A, offset: 0x19897, size: 0x8, addend: 0x0, symName: __ZSt28__throw_bad_array_new_lengthB8ue170006v, symObjAddr: 0x295C, symBinAddr: 0x100005868, symSize: 0x34 }
  - { offsetInCU: 0x1A234, offset: 0x1A5A1, size: 0x8, addend: 0x0, symName: __ZNSt3__16vectorINS_8functionIFvRKNS_7variantIJN6events11MarketEventENS3_11SignalEventENS3_10OrderEventENS3_9FillEventEEEEEEENS_9allocatorISC_EEE26__swap_out_circular_bufferERNS_14__split_bufferISC_RSE_EE, symObjAddr: 0x21D8, symBinAddr: 0x1000050E4, symSize: 0x110 }
  - { offsetInCU: 0x1A8EC, offset: 0x1AC59, size: 0x8, addend: 0x0, symName: __ZN3trd8Backtest3runERKNSt3__16vectorINS_3BarENS1_9allocatorIS3_EEEER8Strategy, symObjAddr: 0x0, symBinAddr: 0x100002F0C, symSize: 0x548 }
  - { offsetInCU: 0x1D945, offset: 0x1DCB2, size: 0x8, addend: 0x0, symName: __ZNSt3__113basic_ostreamIcNS_11char_traitsIcEEElsB8ue170006EPFRS3_S4_E, symObjAddr: 0x590, symBinAddr: 0x10000349C, symSize: 0x2C }
  - { offsetInCU: 0x1D97D, offset: 0x1DCEA, size: 0x8, addend: 0x0, symName: __ZN3trd6ResultC1Ev, symObjAddr: 0x614, symBinAddr: 0x100003520, symSize: 0x2C }
  - { offsetInCU: 0x1D9A8, offset: 0x1DD15, size: 0x8, addend: 0x0, symName: __ZNKSt3__16vectorIN3trd3BarENS_9allocatorIS2_EEE4sizeB8ue170006Ev, symObjAddr: 0x640, symBinAddr: 0x10000354C, symSize: 0x28 }
  - { offsetInCU: 0x1D9CD, offset: 0x1DD3A, size: 0x8, addend: 0x0, symName: __ZNKSt3__16vectorIN3trd3BarENS_9allocatorIS2_EEE5emptyB8ue170006Ev, symObjAddr: 0x668, symBinAddr: 0x100003574, symSize: 0x28 }
  - { offsetInCU: 0x1D9F2, offset: 0x1DD5F, size: 0x8, addend: 0x0, symName: __ZNK9Portfolio6equityEd, symObjAddr: 0x690, symBinAddr: 0x10000359C, symSize: 0x34 }
  - { offsetInCU: 0x1DA25, offset: 0x1DD92, size: 0x8, addend: 0x0, symName: __ZNKSt3__16vectorIN3trd3BarENS_9allocatorIS2_EEE4backB8ue170006Ev, symObjAddr: 0x6C4, symBinAddr: 0x1000035D0, symSize: 0x1C }
  - { offsetInCU: 0x1DA4A, offset: 0x1DDB7, size: 0x8, addend: 0x0, symName: __ZN6events10DispatcherC1Ev, symObjAddr: 0x6E0, symBinAddr: 0x1000035EC, symSize: 0x2C }
  - { offsetInCU: 0x1DA7A, offset: 0x1DDE7, size: 0x8, addend: 0x0, symName: __ZN3trd11MarketStateC1Ev, symObjAddr: 0x70C, symBinAddr: 0x100003618, symSize: 0x2C }
  - { offsetInCU: 0x1DAA5, offset: 0x1DE12, size: 0x8, addend: 0x0, symName: __ZN15StrategyHandlerC1ER8StrategyRN6events10DispatcherE, symObjAddr: 0x738, symBinAddr: 0x100003644, symSize: 0x3C }
  - { offsetInCU: 0x1DAEA, offset: 0x1DE57, size: 0x8, addend: 0x0, symName: __ZN3trd11RiskHandlerC1ER9PortfolioRN6events10DispatcherE, symObjAddr: 0x774, symBinAddr: 0x100003680, symSize: 0x3C }
  - { offsetInCU: 0x1DB2F, offset: 0x1DE9C, size: 0x8, addend: 0x0, symName: __ZN17ExcecutionHandlerC1ER10ExcecutionRN3trd11MarketStateERN6events10DispatcherE, symObjAddr: 0x7B0, symBinAddr: 0x1000036BC, symSize: 0x44 }
  - { offsetInCU: 0x1DB82, offset: 0x1DEEF, size: 0x8, addend: 0x0, symName: __ZN16PortfolioHandlerC1ER9Portfolio, symObjAddr: 0x7F4, symBinAddr: 0x100003700, symSize: 0x34 }
  - { offsetInCU: 0x1DBB9, offset: 0x1DF26, size: 0x8, addend: 0x0, symName: __ZN6events10Dispatcher9subscribeENSt3__18functionIFvRKNS1_7variantIJNS_11MarketEventENS_11SignalEventENS_10OrderEventENS_9FillEventEEEEEEE, symObjAddr: 0x828, symBinAddr: 0x100003734, symSize: 0x30 }
  - { offsetInCU: 0x1DBED, offset: 0x1DF5A, size: 0x8, addend: 0x0, symName: '__ZNSt3__18functionIFvRKNS_7variantIJN6events11MarketEventENS2_11SignalEventENS2_10OrderEventENS2_9FillEventEEEEEEC1IZN3trd8Backtest3runERKNS_6vectorINSD_3BarENS_9allocatorISG_EEEER8StrategyE3$_0vEET_', symObjAddr: 0x858, symBinAddr: 0x100003764, symSize: 0x34 }
  - { offsetInCU: 0x1DC31, offset: 0x1DF9E, size: 0x8, addend: 0x0, symName: __ZNSt3__18functionIFvRKNS_7variantIJN6events11MarketEventENS2_11SignalEventENS2_10OrderEventENS2_9FillEventEEEEEED1Ev, symObjAddr: 0x88C, symBinAddr: 0x100003798, symSize: 0x2C }
  - { offsetInCU: 0x1DC5C, offset: 0x1DFC9, size: 0x8, addend: 0x0, symName: '__ZNSt3__18functionIFvRKNS_7variantIJN6events11MarketEventENS2_11SignalEventENS2_10OrderEventENS2_9FillEventEEEEEEC1IZN3trd8Backtest3runERKNS_6vectorINSD_3BarENS_9allocatorISG_EEEER8StrategyE3$_1vEET_', symObjAddr: 0x8B8, symBinAddr: 0x1000037C4, symSize: 0x34 }
  - { offsetInCU: 0x1DCA0, offset: 0x1E00D, size: 0x8, addend: 0x0, symName: '__ZNSt3__18functionIFvRKNS_7variantIJN6events11MarketEventENS2_11SignalEventENS2_10OrderEventENS2_9FillEventEEEEEEC1IZN3trd8Backtest3runERKNS_6vectorINSD_3BarENS_9allocatorISG_EEEER8StrategyE3$_2vEET_', symObjAddr: 0x8EC, symBinAddr: 0x1000037F8, symSize: 0x34 }
  - { offsetInCU: 0x1DCE4, offset: 0x1E051, size: 0x8, addend: 0x0, symName: '__ZNSt3__18functionIFvRKNS_7variantIJN6events11MarketEventENS2_11SignalEventENS2_10OrderEventENS2_9FillEventEEEEEEC1IZN3trd8Backtest3runERKNS_6vectorINSD_3BarENS_9allocatorISG_EEEER8StrategyE3$_3vEET_', symObjAddr: 0x920, symBinAddr: 0x10000382C, symSize: 0x34 }
  - { offsetInCU: 0x1DD28, offset: 0x1E095, size: 0x8, addend: 0x0, symName: '__ZNSt3__18functionIFvRKNS_7variantIJN6events11MarketEventENS2_11SignalEventENS2_10OrderEventENS2_9FillEventEEEEEEC1IZN3trd8Backtest3runERKNS_6vectorINSD_3BarENS_9allocatorISG_EEEER8StrategyE3$_4vEET_', symObjAddr: 0x954, symBinAddr: 0x100003860, symSize: 0x34 }
  - { offsetInCU: 0x1DD6C, offset: 0x1E0D9, size: 0x8, addend: 0x0, symName: __ZNKSt3__16vectorIN3trd3BarENS_9allocatorIS2_EEEixB8ue170006Em, symObjAddr: 0x988, symBinAddr: 0x100003894, symSize: 0x2C }
  - { offsetInCU: 0x1DDA2, offset: 0x1E10F, size: 0x8, addend: 0x0, symName: __ZN6events10Dispatcher4pushENSt3__17variantIJNS_11MarketEventENS_11SignalEventENS_10OrderEventENS_9FillEventEEEE, symObjAddr: 0x9B4, symBinAddr: 0x1000038C0, symSize: 0x2C }
  - { offsetInCU: 0x1DDDC, offset: 0x1E149, size: 0x8, addend: 0x0, symName: __ZNSt3__17variantIJN6events11MarketEventENS1_11SignalEventENS1_10OrderEventENS1_9FillEventEEEC1B8ue170006IS2_Li0ELi0ELi0ES2_Lm0ELi0EEEOT_, symObjAddr: 0x9E0, symBinAddr: 0x1000038EC, symSize: 0x34 }
  - { offsetInCU: 0x1DE48, offset: 0x1E1B5, size: 0x8, addend: 0x0, symName: __ZN6events10Dispatcher11dispatchAllEv, symObjAddr: 0xA14, symBinAddr: 0x100003920, symSize: 0x44 }
  - { offsetInCU: 0x1DE6D, offset: 0x1E1DA, size: 0x8, addend: 0x0, symName: __ZN6events10DispatcherD1Ev, symObjAddr: 0xA58, symBinAddr: 0x100003964, symSize: 0x2C }
  - { offsetInCU: 0x1DE98, offset: 0x1E205, size: 0x8, addend: 0x0, symName: __ZN3trd6ResultD1Ev, symObjAddr: 0xA84, symBinAddr: 0x100003990, symSize: 0x2C }
  - { offsetInCU: 0x1DEC3, offset: 0x1E230, size: 0x8, addend: 0x0, symName: __ZN3trd6ResultC2Ev, symObjAddr: 0xAB0, symBinAddr: 0x1000039BC, symSize: 0x50 }
  - { offsetInCU: 0x1DEEE, offset: 0x1E25B, size: 0x8, addend: 0x0, symName: __ZNSt3__16vectorIdNS_9allocatorIdEEEC1B8ue170006Ev, symObjAddr: 0xB00, symBinAddr: 0x100003A0C, symSize: 0x2C }
  - { offsetInCU: 0x1DF17, offset: 0x1E284, size: 0x8, addend: 0x0, symName: __ZNSt3__16vectorIN3trd5TradeENS_9allocatorIS2_EEEC1B8ue170006Ev, symObjAddr: 0xB2C, symBinAddr: 0x100003A38, symSize: 0x2C }
  - { offsetInCU: 0x1DF40, offset: 0x1E2AD, size: 0x8, addend: 0x0, symName: __ZNSt3__16vectorIdNS_9allocatorIdEEEC2B8ue170006Ev, symObjAddr: 0xB58, symBinAddr: 0x100003A64, symSize: 0x4C }
  - { offsetInCU: 0x1DF75, offset: 0x1E2E2, size: 0x8, addend: 0x0, symName: __ZNSt3__117__compressed_pairIPdNS_9allocatorIdEEEC1B8ue170006IDnNS_18__default_init_tagEEEOT_OT0_, symObjAddr: 0xBA4, symBinAddr: 0x100003AB0, symSize: 0x3C }
  - { offsetInCU: 0x1DFCC, offset: 0x1E339, size: 0x8, addend: 0x0, symName: __ZNSt3__117__compressed_pairIPdNS_9allocatorIdEEEC2B8ue170006IDnNS_18__default_init_tagEEEOT_OT0_, symObjAddr: 0xBEC, symBinAddr: 0x100003AF8, symSize: 0x40 }
  - { offsetInCU: 0x1E023, offset: 0x1E390, size: 0x8, addend: 0x0, symName: __ZNSt3__122__compressed_pair_elemIPdLi0ELb0EEC2B8ue170006IDnvEEOT_, symObjAddr: 0xC2C, symBinAddr: 0x100003B38, symSize: 0x1C }
  - { offsetInCU: 0x1E064, offset: 0x1E3D1, size: 0x8, addend: 0x0, symName: __ZNSt3__122__compressed_pair_elemINS_9allocatorIdEELi1ELb1EEC2B8ue170006ENS_18__default_init_tagE, symObjAddr: 0xC48, symBinAddr: 0x100003B54, symSize: 0x2C }
  - { offsetInCU: 0x1E097, offset: 0x1E404, size: 0x8, addend: 0x0, symName: __ZNSt3__19allocatorIdEC2B8ue170006Ev, symObjAddr: 0xC74, symBinAddr: 0x100003B80, symSize: 0x2C }
  - { offsetInCU: 0x1E0C0, offset: 0x1E42D, size: 0x8, addend: 0x0, symName: __ZNSt3__116__non_trivial_ifILb1ENS_9allocatorIdEEEC2B8ue170006Ev, symObjAddr: 0xCA0, symBinAddr: 0x100003BAC, symSize: 0x14 }
  - { offsetInCU: 0x1E0E9, offset: 0x1E456, size: 0x8, addend: 0x0, symName: __ZNSt3__16vectorIN3trd5TradeENS_9allocatorIS2_EEEC2B8ue170006Ev, symObjAddr: 0xCB4, symBinAddr: 0x100003BC0, symSize: 0x4C }
  - { offsetInCU: 0x1E112, offset: 0x1E47F, size: 0x8, addend: 0x0, symName: __ZNSt3__117__compressed_pairIPN3trd5TradeENS_9allocatorIS2_EEEC1B8ue170006IDnNS_18__default_init_tagEEEOT_OT0_, symObjAddr: 0xD00, symBinAddr: 0x100003C0C, symSize: 0x3C }
  - { offsetInCU: 0x1E169, offset: 0x1E4D6, size: 0x8, addend: 0x0, symName: __ZNSt3__117__compressed_pairIPN3trd5TradeENS_9allocatorIS2_EEEC2B8ue170006IDnNS_18__default_init_tagEEEOT_OT0_, symObjAddr: 0xD3C, symBinAddr: 0x100003C48, symSize: 0x40 }
  - { offsetInCU: 0x1E1C0, offset: 0x1E52D, size: 0x8, addend: 0x0, symName: __ZNSt3__122__compressed_pair_elemIPN3trd5TradeELi0ELb0EEC2B8ue170006IDnvEEOT_, symObjAddr: 0xD7C, symBinAddr: 0x100003C88, symSize: 0x1C }
  - { offsetInCU: 0x1E201, offset: 0x1E56E, size: 0x8, addend: 0x0, symName: __ZNSt3__122__compressed_pair_elemINS_9allocatorIN3trd5TradeEEELi1ELb1EEC2B8ue170006ENS_18__default_init_tagE, symObjAddr: 0xD98, symBinAddr: 0x100003CA4, symSize: 0x2C }
  - { offsetInCU: 0x1E234, offset: 0x1E5A1, size: 0x8, addend: 0x0, symName: __ZNSt3__19allocatorIN3trd5TradeEEC2B8ue170006Ev, symObjAddr: 0xDC4, symBinAddr: 0x100003CD0, symSize: 0x2C }
  - { offsetInCU: 0x1E25D, offset: 0x1E5CA, size: 0x8, addend: 0x0, symName: __ZNSt3__116__non_trivial_ifILb1ENS_9allocatorIN3trd5TradeEEEEC2B8ue170006Ev, symObjAddr: 0xDF0, symBinAddr: 0x100003CFC, symSize: 0x14 }
  - { offsetInCU: 0x1E286, offset: 0x1E5F3, size: 0x8, addend: 0x0, symName: __ZN6events10DispatcherC2Ev, symObjAddr: 0xE04, symBinAddr: 0x100003D10, symSize: 0x38 }
  - { offsetInCU: 0x1E2B1, offset: 0x1E61E, size: 0x8, addend: 0x0, symName: __ZNSt3__15dequeINS_7variantIJN6events11MarketEventENS2_11SignalEventENS2_10OrderEventENS2_9FillEventEEEENS_9allocatorIS7_EEEC1B8ue170006Ev, symObjAddr: 0xE3C, symBinAddr: 0x100003D48, symSize: 0x2C }
  - { offsetInCU: 0x1E2DA, offset: 0x1E647, size: 0x8, addend: 0x0, symName: __ZNSt3__16vectorINS_8functionIFvRKNS_7variantIJN6events11MarketEventENS3_11SignalEventENS3_10OrderEventENS3_9FillEventEEEEEEENS_9allocatorISC_EEEC1B8ue170006Ev, symObjAddr: 0xE68, symBinAddr: 0x100003D74, symSize: 0x2C }
  - { offsetInCU: 0x1E303, offset: 0x1E670, size: 0x8, addend: 0x0, symName: __ZNSt3__15dequeINS_7variantIJN6events11MarketEventENS2_11SignalEventENS2_10OrderEventENS2_9FillEventEEEENS_9allocatorIS7_EEEC2B8ue170006Ev, symObjAddr: 0xE94, symBinAddr: 0x100003DA0, symSize: 0x5C }
  - { offsetInCU: 0x1E32C, offset: 0x1E699, size: 0x8, addend: 0x0, symName: __ZNSt3__114__split_bufferIPNS_7variantIJN6events11MarketEventENS2_11SignalEventENS2_10OrderEventENS2_9FillEventEEEENS_9allocatorIS8_EEEC1B8ue170006Ev, symObjAddr: 0xEF0, symBinAddr: 0x100003DFC, symSize: 0x2C }
  - { offsetInCU: 0x1E35B, offset: 0x1E6C8, size: 0x8, addend: 0x0, symName: __ZNSt3__117__compressed_pairImNS_9allocatorINS_7variantIJN6events11MarketEventENS3_11SignalEventENS3_10OrderEventENS3_9FillEventEEEEEEEC1B8ue170006IiNS_18__default_init_tagEEEOT_OT0_, symObjAddr: 0xF1C, symBinAddr: 0x100003E28, symSize: 0x3C }
  - { offsetInCU: 0x1E3B2, offset: 0x1E71F, size: 0x8, addend: 0x0, symName: __ZNKSt3__15dequeINS_7variantIJN6events11MarketEventENS2_11SignalEventENS2_10OrderEventENS2_9FillEventEEEENS_9allocatorIS7_EEE14__annotate_newB8ue170006Em, symObjAddr: 0xF58, symBinAddr: 0x100003E64, symSize: 0xD0 }
  - { offsetInCU: 0x1E3E6, offset: 0x1E753, size: 0x8, addend: 0x0, symName: __ZNSt3__114__split_bufferIPNS_7variantIJN6events11MarketEventENS2_11SignalEventENS2_10OrderEventENS2_9FillEventEEEENS_9allocatorIS8_EEEC2B8ue170006Ev, symObjAddr: 0x1028, symBinAddr: 0x100003F34, symSize: 0x50 }
  - { offsetInCU: 0x1E40F, offset: 0x1E77C, size: 0x8, addend: 0x0, symName: __ZNSt3__117__compressed_pairIPPNS_7variantIJN6events11MarketEventENS2_11SignalEventENS2_10OrderEventENS2_9FillEventEEEENS_9allocatorIS8_EEEC1B8ue170006IDnNS_18__default_init_tagEEEOT_OT0_, symObjAddr: 0x1078, symBinAddr: 0x100003F84, symSize: 0x3C }
  - { offsetInCU: 0x1E466, offset: 0x1E7D3, size: 0x8, addend: 0x0, symName: __ZNSt3__117__compressed_pairIPPNS_7variantIJN6events11MarketEventENS2_11SignalEventENS2_10OrderEventENS2_9FillEventEEEENS_9allocatorIS8_EEEC2B8ue170006IDnNS_18__default_init_tagEEEOT_OT0_, symObjAddr: 0x10B4, symBinAddr: 0x100003FC0, symSize: 0x40 }
  - { offsetInCU: 0x1E4BD, offset: 0x1E82A, size: 0x8, addend: 0x0, symName: __ZNSt3__122__compressed_pair_elemIPPNS_7variantIJN6events11MarketEventENS2_11SignalEventENS2_10OrderEventENS2_9FillEventEEEELi0ELb0EEC2B8ue170006IDnvEEOT_, symObjAddr: 0x10F4, symBinAddr: 0x100004000, symSize: 0x1C }
  - { offsetInCU: 0x1E4FE, offset: 0x1E86B, size: 0x8, addend: 0x0, symName: __ZNSt3__122__compressed_pair_elemINS_9allocatorIPNS_7variantIJN6events11MarketEventENS3_11SignalEventENS3_10OrderEventENS3_9FillEventEEEEEELi1ELb1EEC2B8ue170006ENS_18__default_init_tagE, symObjAddr: 0x1110, symBinAddr: 0x10000401C, symSize: 0x2C }
  - { offsetInCU: 0x1E531, offset: 0x1E89E, size: 0x8, addend: 0x0, symName: __ZNSt3__19allocatorIPNS_7variantIJN6events11MarketEventENS2_11SignalEventENS2_10OrderEventENS2_9FillEventEEEEEC2B8ue170006Ev, symObjAddr: 0x113C, symBinAddr: 0x100004048, symSize: 0x2C }
  - { offsetInCU: 0x1E55A, offset: 0x1E8C7, size: 0x8, addend: 0x0, symName: __ZNSt3__116__non_trivial_ifILb1ENS_9allocatorIPNS_7variantIJN6events11MarketEventENS3_11SignalEventENS3_10OrderEventENS3_9FillEventEEEEEEEC2B8ue170006Ev, symObjAddr: 0x1168, symBinAddr: 0x100004074, symSize: 0x14 }
  - { offsetInCU: 0x1E583, offset: 0x1E8F0, size: 0x8, addend: 0x0, symName: __ZNSt3__117__compressed_pairImNS_9allocatorINS_7variantIJN6events11MarketEventENS3_11SignalEventENS3_10OrderEventENS3_9FillEventEEEEEEEC2B8ue170006IiNS_18__default_init_tagEEEOT_OT0_, symObjAddr: 0x117C, symBinAddr: 0x100004088, symSize: 0x40 }
  - { offsetInCU: 0x1E5DA, offset: 0x1E947, size: 0x8, addend: 0x0, symName: __ZNSt3__122__compressed_pair_elemImLi0ELb0EEC2B8ue170006IivEEOT_, symObjAddr: 0x11BC, symBinAddr: 0x1000040C8, symSize: 0x24 }
  - { offsetInCU: 0x1E61B, offset: 0x1E988, size: 0x8, addend: 0x0, symName: __ZNSt3__122__compressed_pair_elemINS_9allocatorINS_7variantIJN6events11MarketEventENS3_11SignalEventENS3_10OrderEventENS3_9FillEventEEEEEELi1ELb1EEC2B8ue170006ENS_18__default_init_tagE, symObjAddr: 0x11E0, symBinAddr: 0x1000040EC, symSize: 0x2C }
  - { offsetInCU: 0x1E64E, offset: 0x1E9BB, size: 0x8, addend: 0x0, symName: __ZNSt3__19allocatorINS_7variantIJN6events11MarketEventENS2_11SignalEventENS2_10OrderEventENS2_9FillEventEEEEEC2B8ue170006Ev, symObjAddr: 0x120C, symBinAddr: 0x100004118, symSize: 0x2C }
  - { offsetInCU: 0x1E677, offset: 0x1E9E4, size: 0x8, addend: 0x0, symName: __ZNSt3__116__non_trivial_ifILb1ENS_9allocatorINS_7variantIJN6events11MarketEventENS3_11SignalEventENS3_10OrderEventENS3_9FillEventEEEEEEEC2B8ue170006Ev, symObjAddr: 0x1238, symBinAddr: 0x100004144, symSize: 0x14 }
  - { offsetInCU: 0x1E6A0, offset: 0x1EA0D, size: 0x8, addend: 0x0, symName: __ZNKSt3__15dequeINS_7variantIJN6events11MarketEventENS2_11SignalEventENS2_10OrderEventENS2_9FillEventEEEENS_9allocatorIS7_EEE18__annotate_from_toB8ue170006EmmNSA_22__asan_annotation_typeENSA_23__asan_annotation_placeE, symObjAddr: 0x124C, symBinAddr: 0x100004158, symSize: 0x598 }
  - { offsetInCU: 0x1E85D, offset: 0x1EBCA, size: 0x8, addend: 0x0, symName: __ZNKSt3__114__split_bufferIPNS_7variantIJN6events11MarketEventENS2_11SignalEventENS2_10OrderEventENS2_9FillEventEEEENS_9allocatorIS8_EEE4sizeB8ue170006Ev, symObjAddr: 0x17E4, symBinAddr: 0x1000046F0, symSize: 0x28 }
  - { offsetInCU: 0x1E882, offset: 0x1EBEF, size: 0x8, addend: 0x0, symName: __ZNKSt3__114__split_bufferIPNS_7variantIJN6events11MarketEventENS2_11SignalEventENS2_10OrderEventENS2_9FillEventEEEENS_9allocatorIS8_EEE5beginB8ue170006Ev, symObjAddr: 0x180C, symBinAddr: 0x100004718, symSize: 0x18 }
  - { offsetInCU: 0x1E8A7, offset: 0x1EC14, size: 0x8, addend: 0x0, symName: __ZNKSt3__15dequeINS_7variantIJN6events11MarketEventENS2_11SignalEventENS2_10OrderEventENS2_9FillEventEEEENS_9allocatorIS7_EEE4sizeB8ue170006Ev, symObjAddr: 0x1824, symBinAddr: 0x100004730, symSize: 0x28 }
  - { offsetInCU: 0x1E8CC, offset: 0x1EC39, size: 0x8, addend: 0x0, symName: __ZNKSt3__15dequeINS_7variantIJN6events11MarketEventENS2_11SignalEventENS2_10OrderEventENS2_9FillEventEEEENS_9allocatorIS7_EEE5emptyB8ue170006Ev, symObjAddr: 0x184C, symBinAddr: 0x100004758, symSize: 0x30 }
  - { offsetInCU: 0x1E8F1, offset: 0x1EC5E, size: 0x8, addend: 0x0, symName: __ZNKSt3__15dequeINS_7variantIJN6events11MarketEventENS2_11SignalEventENS2_10OrderEventENS2_9FillEventEEEENS_9allocatorIS7_EEE44__annotate_double_ended_contiguous_containerB8ue170006EPKvSC_SC_SC_SC_SC_, symObjAddr: 0x1890, symBinAddr: 0x10000479C, symSize: 0x28 }
  - { offsetInCU: 0x1E95E, offset: 0x1ECCB, size: 0x8, addend: 0x0, symName: __ZNKSt3__15dequeINS_7variantIJN6events11MarketEventENS2_11SignalEventENS2_10OrderEventENS2_9FillEventEEEENS_9allocatorIS7_EEE6__sizeB8ue170006Ev, symObjAddr: 0x18B8, symBinAddr: 0x1000047C4, symSize: 0x28 }
  - { offsetInCU: 0x1E983, offset: 0x1ECF0, size: 0x8, addend: 0x0, symName: __ZNKSt3__117__compressed_pairImNS_9allocatorINS_7variantIJN6events11MarketEventENS3_11SignalEventENS3_10OrderEventENS3_9FillEventEEEEEEE5firstB8ue170006Ev, symObjAddr: 0x18E0, symBinAddr: 0x1000047EC, symSize: 0x24 }
  - { offsetInCU: 0x1E9A8, offset: 0x1ED15, size: 0x8, addend: 0x0, symName: __ZNKSt3__122__compressed_pair_elemImLi0ELb0EE5__getB8ue170006Ev, symObjAddr: 0x1904, symBinAddr: 0x100004810, symSize: 0x14 }
  - { offsetInCU: 0x1E9CD, offset: 0x1ED3A, size: 0x8, addend: 0x0, symName: __ZNSt3__16vectorINS_8functionIFvRKNS_7variantIJN6events11MarketEventENS3_11SignalEventENS3_10OrderEventENS3_9FillEventEEEEEEENS_9allocatorISC_EEEC2B8ue170006Ev, symObjAddr: 0x1918, symBinAddr: 0x100004824, symSize: 0x4C }
  - { offsetInCU: 0x1E9F6, offset: 0x1ED63, size: 0x8, addend: 0x0, symName: __ZNSt3__117__compressed_pairIPNS_8functionIFvRKNS_7variantIJN6events11MarketEventENS3_11SignalEventENS3_10OrderEventENS3_9FillEventEEEEEEENS_9allocatorISC_EEEC1B8ue170006IDnNS_18__default_init_tagEEEOT_OT0_, symObjAddr: 0x1964, symBinAddr: 0x100004870, symSize: 0x3C }
  - { offsetInCU: 0x1EA4D, offset: 0x1EDBA, size: 0x8, addend: 0x0, symName: __ZNSt3__117__compressed_pairIPNS_8functionIFvRKNS_7variantIJN6events11MarketEventENS3_11SignalEventENS3_10OrderEventENS3_9FillEventEEEEEEENS_9allocatorISC_EEEC2B8ue170006IDnNS_18__default_init_tagEEEOT_OT0_, symObjAddr: 0x19A0, symBinAddr: 0x1000048AC, symSize: 0x40 }
  - { offsetInCU: 0x1EAA4, offset: 0x1EE11, size: 0x8, addend: 0x0, symName: __ZNSt3__122__compressed_pair_elemIPNS_8functionIFvRKNS_7variantIJN6events11MarketEventENS3_11SignalEventENS3_10OrderEventENS3_9FillEventEEEEEEELi0ELb0EEC2B8ue170006IDnvEEOT_, symObjAddr: 0x19E0, symBinAddr: 0x1000048EC, symSize: 0x1C }
  - { offsetInCU: 0x1EAE5, offset: 0x1EE52, size: 0x8, addend: 0x0, symName: __ZNSt3__122__compressed_pair_elemINS_9allocatorINS_8functionIFvRKNS_7variantIJN6events11MarketEventENS4_11SignalEventENS4_10OrderEventENS4_9FillEventEEEEEEEEELi1ELb1EEC2B8ue170006ENS_18__default_init_tagE, symObjAddr: 0x19FC, symBinAddr: 0x100004908, symSize: 0x2C }
  - { offsetInCU: 0x1EB18, offset: 0x1EE85, size: 0x8, addend: 0x0, symName: __ZNSt3__19allocatorINS_8functionIFvRKNS_7variantIJN6events11MarketEventENS3_11SignalEventENS3_10OrderEventENS3_9FillEventEEEEEEEEC2B8ue170006Ev, symObjAddr: 0x1A28, symBinAddr: 0x100004934, symSize: 0x2C }
  - { offsetInCU: 0x1EB41, offset: 0x1EEAE, size: 0x8, addend: 0x0, symName: __ZNSt3__116__non_trivial_ifILb1ENS_9allocatorINS_8functionIFvRKNS_7variantIJN6events11MarketEventENS4_11SignalEventENS4_10OrderEventENS4_9FillEventEEEEEEEEEEC2B8ue170006Ev, symObjAddr: 0x1A54, symBinAddr: 0x100004960, symSize: 0x14 }
  - { offsetInCU: 0x1EB6A, offset: 0x1EED7, size: 0x8, addend: 0x0, symName: __ZN3trd11MarketStateC2Ev, symObjAddr: 0x1A68, symBinAddr: 0x100004974, symSize: 0x48 }
  - { offsetInCU: 0x1EB95, offset: 0x1EF02, size: 0x8, addend: 0x0, symName: __ZN15StrategyHandlerC2ER8StrategyRN6events10DispatcherE, symObjAddr: 0x1AB0, symBinAddr: 0x1000049BC, symSize: 0x2C }
  - { offsetInCU: 0x1EBDA, offset: 0x1EF47, size: 0x8, addend: 0x0, symName: __ZN3trd11RiskHandlerC2ER9PortfolioRN6events10DispatcherE, symObjAddr: 0x1ADC, symBinAddr: 0x1000049E8, symSize: 0x2C }
  - { offsetInCU: 0x1EC1F, offset: 0x1EF8C, size: 0x8, addend: 0x0, symName: __ZN17ExcecutionHandlerC2ER10ExcecutionRN3trd11MarketStateERN6events10DispatcherE, symObjAddr: 0x1B08, symBinAddr: 0x100004A14, symSize: 0x38 }
  - { offsetInCU: 0x1EC72, offset: 0x1EFDF, size: 0x8, addend: 0x0, symName: __ZN16PortfolioHandlerC2ER9Portfolio, symObjAddr: 0x1B40, symBinAddr: 0x100004A4C, symSize: 0x20 }
  - { offsetInCU: 0x1ECA9, offset: 0x1F016, size: 0x8, addend: 0x0, symName: __ZNSt3__16vectorINS_8functionIFvRKNS_7variantIJN6events11MarketEventENS3_11SignalEventENS3_10OrderEventENS3_9FillEventEEEEEEENS_9allocatorISC_EEE9push_backB8ue170006EOSC_, symObjAddr: 0x1B60, symBinAddr: 0x100004A6C, symSize: 0x6C }
  - { offsetInCU: 0x1ECDF, offset: 0x1F04C, size: 0x8, addend: 0x0, symName: __ZNSt3__16vectorINS_8functionIFvRKNS_7variantIJN6events11MarketEventENS3_11SignalEventENS3_10OrderEventENS3_9FillEventEEEEEEENS_9allocatorISC_EEE9__end_capB8ue170006Ev, symObjAddr: 0x1BCC, symBinAddr: 0x100004AD8, symSize: 0x28 }
  - { offsetInCU: 0x1ED04, offset: 0x1F071, size: 0x8, addend: 0x0, symName: __ZNSt3__16vectorINS_8functionIFvRKNS_7variantIJN6events11MarketEventENS3_11SignalEventENS3_10OrderEventENS3_9FillEventEEEEEEENS_9allocatorISC_EEE22__construct_one_at_endB8ue170006IJSC_EEEvDpOT_, symObjAddr: 0x1BF4, symBinAddr: 0x100004B00, symSize: 0x90 }
  - { offsetInCU: 0x1ED52, offset: 0x1F0BF, size: 0x8, addend: 0x0, symName: __ZNSt3__16vectorINS_8functionIFvRKNS_7variantIJN6events11MarketEventENS3_11SignalEventENS3_10OrderEventENS3_9FillEventEEEEEEENS_9allocatorISC_EEE21__push_back_slow_pathISC_EEvOT_, symObjAddr: 0x1C84, symBinAddr: 0x100004B90, symSize: 0xD8 }
  - { offsetInCU: 0x1EDAF, offset: 0x1F11C, size: 0x8, addend: 0x0, symName: __ZNSt3__117__compressed_pairIPNS_8functionIFvRKNS_7variantIJN6events11MarketEventENS3_11SignalEventENS3_10OrderEventENS3_9FillEventEEEEEEENS_9allocatorISC_EEE5firstB8ue170006Ev, symObjAddr: 0x1D5C, symBinAddr: 0x100004C68, symSize: 0x24 }
  - { offsetInCU: 0x1EDD4, offset: 0x1F141, size: 0x8, addend: 0x0, symName: __ZNSt3__122__compressed_pair_elemIPNS_8functionIFvRKNS_7variantIJN6events11MarketEventENS3_11SignalEventENS3_10OrderEventENS3_9FillEventEEEEEEELi0ELb0EE5__getB8ue170006Ev, symObjAddr: 0x1D80, symBinAddr: 0x100004C8C, symSize: 0x14 }
  - { offsetInCU: 0x1EE14, offset: 0x1F181, size: 0x8, addend: 0x0, symName: __ZNSt3__16vectorINS_8functionIFvRKNS_7variantIJN6events11MarketEventENS3_11SignalEventENS3_10OrderEventENS3_9FillEventEEEEEEENS_9allocatorISC_EEE21_ConstructTransactionC1B8ue170006ERSF_m, symObjAddr: 0x1D94, symBinAddr: 0x100004CA0, symSize: 0x3C }
  - { offsetInCU: 0x1EE5B, offset: 0x1F1C8, size: 0x8, addend: 0x0, symName: __ZNSt3__116allocator_traitsINS_9allocatorINS_8functionIFvRKNS_7variantIJN6events11MarketEventENS4_11SignalEventENS4_10OrderEventENS4_9FillEventEEEEEEEEEE9constructB8ue170006ISD_JSD_EvEEvRSE_PT_DpOT0_, symObjAddr: 0x1DD0, symBinAddr: 0x100004CDC, symSize: 0x34 }
  - { offsetInCU: 0x1EEB2, offset: 0x1F21F, size: 0x8, addend: 0x0, symName: __ZNSt3__16vectorINS_8functionIFvRKNS_7variantIJN6events11MarketEventENS3_11SignalEventENS3_10OrderEventENS3_9FillEventEEEEEEENS_9allocatorISC_EEE7__allocB8ue170006Ev, symObjAddr: 0x1E04, symBinAddr: 0x100004D10, symSize: 0x28 }
  - { offsetInCU: 0x1EED7, offset: 0x1F244, size: 0x8, addend: 0x0, symName: __ZNSt3__16vectorINS_8functionIFvRKNS_7variantIJN6events11MarketEventENS3_11SignalEventENS3_10OrderEventENS3_9FillEventEEEEEEENS_9allocatorISC_EEE21_ConstructTransactionD1B8ue170006Ev, symObjAddr: 0x1E40, symBinAddr: 0x100004D4C, symSize: 0x2C }
  - { offsetInCU: 0x1EF00, offset: 0x1F26D, size: 0x8, addend: 0x0, symName: __ZNSt3__16vectorINS_8functionIFvRKNS_7variantIJN6events11MarketEventENS3_11SignalEventENS3_10OrderEventENS3_9FillEventEEEEEEENS_9allocatorISC_EEE21_ConstructTransactionC2B8ue170006ERSF_m, symObjAddr: 0x1E6C, symBinAddr: 0x100004D78, symSize: 0x44 }
  - { offsetInCU: 0x1EF47, offset: 0x1F2B4, size: 0x8, addend: 0x0, symName: __ZNSt3__19allocatorINS_8functionIFvRKNS_7variantIJN6events11MarketEventENS3_11SignalEventENS3_10OrderEventENS3_9FillEventEEEEEEEE9constructB8ue170006ISC_JSC_EEEvPT_DpOT0_, symObjAddr: 0x1EB0, symBinAddr: 0x100004DBC, symSize: 0x30 }
  - { offsetInCU: 0x1EF9C, offset: 0x1F309, size: 0x8, addend: 0x0, symName: __ZNSt3__18functionIFvRKNS_7variantIJN6events11MarketEventENS2_11SignalEventENS2_10OrderEventENS2_9FillEventEEEEEEC1EOSB_, symObjAddr: 0x1EE0, symBinAddr: 0x100004DEC, symSize: 0x34 }
  - { offsetInCU: 0x1EFD6, offset: 0x1F343, size: 0x8, addend: 0x0, symName: __ZNSt3__18functionIFvRKNS_7variantIJN6events11MarketEventENS2_11SignalEventENS2_10OrderEventENS2_9FillEventEEEEEEC2EOSB_, symObjAddr: 0x1F14, symBinAddr: 0x100004E20, symSize: 0x34 }
  - { offsetInCU: 0x1F010, offset: 0x1F37D, size: 0x8, addend: 0x0, symName: __ZNSt3__110__function12__value_funcIFvRKNS_7variantIJN6events11MarketEventENS3_11SignalEventENS3_10OrderEventENS3_9FillEventEEEEEEC1B8ue170006EOSC_, symObjAddr: 0x1F48, symBinAddr: 0x100004E54, symSize: 0x34 }
  - { offsetInCU: 0x1F048, offset: 0x1F3B5, size: 0x8, addend: 0x0, symName: __ZNSt3__110__function12__value_funcIFvRKNS_7variantIJN6events11MarketEventENS3_11SignalEventENS3_10OrderEventENS3_9FillEventEEEEEEC2B8ue170006EOSC_, symObjAddr: 0x1F7C, symBinAddr: 0x100004E88, symSize: 0xD0 }
  - { offsetInCU: 0x1F080, offset: 0x1F3ED, size: 0x8, addend: 0x0, symName: __ZNSt3__110__function12__value_funcIFvRKNS_7variantIJN6events11MarketEventENS3_11SignalEventENS3_10OrderEventENS3_9FillEventEEEEEE9__as_baseB8ue170006EPv, symObjAddr: 0x204C, symBinAddr: 0x100004F58, symSize: 0x14 }
  - { offsetInCU: 0x1F0A4, offset: 0x1F411, size: 0x8, addend: 0x0, symName: __ZNSt3__117__compressed_pairIPNS_8functionIFvRKNS_7variantIJN6events11MarketEventENS3_11SignalEventENS3_10OrderEventENS3_9FillEventEEEEEEENS_9allocatorISC_EEE6secondB8ue170006Ev, symObjAddr: 0x2060, symBinAddr: 0x100004F6C, symSize: 0x24 }
  - { offsetInCU: 0x1F0C9, offset: 0x1F436, size: 0x8, addend: 0x0, symName: __ZNSt3__122__compressed_pair_elemINS_9allocatorINS_8functionIFvRKNS_7variantIJN6events11MarketEventENS4_11SignalEventENS4_10OrderEventENS4_9FillEventEEEEEEEEELi1ELb1EE5__getB8ue170006Ev, symObjAddr: 0x2084, symBinAddr: 0x100004F90, symSize: 0x14 }
  - { offsetInCU: 0x1F0EE, offset: 0x1F45B, size: 0x8, addend: 0x0, symName: __ZNSt3__16vectorINS_8functionIFvRKNS_7variantIJN6events11MarketEventENS3_11SignalEventENS3_10OrderEventENS3_9FillEventEEEEEEENS_9allocatorISC_EEE21_ConstructTransactionD2B8ue170006Ev, symObjAddr: 0x2098, symBinAddr: 0x100004FA4, symSize: 0x20 }
  - { offsetInCU: 0x1F117, offset: 0x1F484, size: 0x8, addend: 0x0, symName: __ZNKSt3__16vectorINS_8functionIFvRKNS_7variantIJN6events11MarketEventENS3_11SignalEventENS3_10OrderEventENS3_9FillEventEEEEEEENS_9allocatorISC_EEE11__recommendB8ue170006Em, symObjAddr: 0x20B8, symBinAddr: 0x100004FC4, symSize: 0xB4 }
  - { offsetInCU: 0x1F16B, offset: 0x1F4D8, size: 0x8, addend: 0x0, symName: __ZNKSt3__16vectorINS_8functionIFvRKNS_7variantIJN6events11MarketEventENS3_11SignalEventENS3_10OrderEventENS3_9FillEventEEEEEEENS_9allocatorISC_EEE4sizeB8ue170006Ev, symObjAddr: 0x216C, symBinAddr: 0x100005078, symSize: 0x28 }
  - { offsetInCU: 0x1F190, offset: 0x1F4FD, size: 0x8, addend: 0x0, symName: __ZNSt3__114__split_bufferINS_8functionIFvRKNS_7variantIJN6events11MarketEventENS3_11SignalEventENS3_10OrderEventENS3_9FillEventEEEEEEERNS_9allocatorISC_EEEC1EmmSF_, symObjAddr: 0x2194, symBinAddr: 0x1000050A0, symSize: 0x44 }
  - { offsetInCU: 0x1F1E5, offset: 0x1F552, size: 0x8, addend: 0x0, symName: __ZNSt3__114__split_bufferINS_8functionIFvRKNS_7variantIJN6events11MarketEventENS3_11SignalEventENS3_10OrderEventENS3_9FillEventEEEEEEERNS_9allocatorISC_EEED1Ev, symObjAddr: 0x22E8, symBinAddr: 0x1000051F4, symSize: 0x2C }
  - { offsetInCU: 0x1F210, offset: 0x1F57D, size: 0x8, addend: 0x0, symName: __ZNKSt3__16vectorINS_8functionIFvRKNS_7variantIJN6events11MarketEventENS3_11SignalEventENS3_10OrderEventENS3_9FillEventEEEEEEENS_9allocatorISC_EEE8max_sizeEv, symObjAddr: 0x2314, symBinAddr: 0x100005220, symSize: 0x60 }
  - { offsetInCU: 0x1F237, offset: 0x1F5A4, size: 0x8, addend: 0x0, symName: __ZNKSt3__16vectorINS_8functionIFvRKNS_7variantIJN6events11MarketEventENS3_11SignalEventENS3_10OrderEventENS3_9FillEventEEEEEEENS_9allocatorISC_EEE20__throw_length_errorB8ue170006Ev, symObjAddr: 0x2374, symBinAddr: 0x100005280, symSize: 0x1C }
  - { offsetInCU: 0x1F25C, offset: 0x1F5C9, size: 0x8, addend: 0x0, symName: __ZNKSt3__16vectorINS_8functionIFvRKNS_7variantIJN6events11MarketEventENS3_11SignalEventENS3_10OrderEventENS3_9FillEventEEEEEEENS_9allocatorISC_EEE8capacityB8ue170006Ev, symObjAddr: 0x2390, symBinAddr: 0x10000529C, symSize: 0x40 }
  - { offsetInCU: 0x1F28C, offset: 0x1F5F9, size: 0x8, addend: 0x0, symName: __ZNSt3__116allocator_traitsINS_9allocatorINS_8functionIFvRKNS_7variantIJN6events11MarketEventENS4_11SignalEventENS4_10OrderEventENS4_9FillEventEEEEEEEEEE8max_sizeB8ue170006ISE_vEEmRKSE_, symObjAddr: 0x2428, symBinAddr: 0x100005334, symSize: 0x24 }
  - { offsetInCU: 0x1F2BA, offset: 0x1F627, size: 0x8, addend: 0x0, symName: __ZNKSt3__16vectorINS_8functionIFvRKNS_7variantIJN6events11MarketEventENS3_11SignalEventENS3_10OrderEventENS3_9FillEventEEEEEEENS_9allocatorISC_EEE7__allocB8ue170006Ev, symObjAddr: 0x244C, symBinAddr: 0x100005358, symSize: 0x28 }
  - { offsetInCU: 0x1F2DF, offset: 0x1F64C, size: 0x8, addend: 0x0, symName: __ZNSt3__114numeric_limitsIlE3maxB8ue170006Ev, symObjAddr: 0x2474, symBinAddr: 0x100005380, symSize: 0x14 }
  - { offsetInCU: 0x1F2FD, offset: 0x1F66A, size: 0x8, addend: 0x0, symName: __ZNKSt3__16__lessIvvEclB8ue170006ImmEEbRKT_RKT0_, symObjAddr: 0x24DC, symBinAddr: 0x1000053E8, symSize: 0x34 }
  - { offsetInCU: 0x1F350, offset: 0x1F6BD, size: 0x8, addend: 0x0, symName: __ZNKSt3__19allocatorINS_8functionIFvRKNS_7variantIJN6events11MarketEventENS3_11SignalEventENS3_10OrderEventENS3_9FillEventEEEEEEEE8max_sizeB8ue170006Ev, symObjAddr: 0x2510, symBinAddr: 0x10000541C, symSize: 0x14 }
  - { offsetInCU: 0x1F375, offset: 0x1F6E2, size: 0x8, addend: 0x0, symName: __ZNKSt3__117__compressed_pairIPNS_8functionIFvRKNS_7variantIJN6events11MarketEventENS3_11SignalEventENS3_10OrderEventENS3_9FillEventEEEEEEENS_9allocatorISC_EEE6secondB8ue170006Ev, symObjAddr: 0x2524, symBinAddr: 0x100005430, symSize: 0x24 }
  - { offsetInCU: 0x1F39A, offset: 0x1F707, size: 0x8, addend: 0x0, symName: __ZNKSt3__122__compressed_pair_elemINS_9allocatorINS_8functionIFvRKNS_7variantIJN6events11MarketEventENS4_11SignalEventENS4_10OrderEventENS4_9FillEventEEEEEEEEELi1ELb1EE5__getB8ue170006Ev, symObjAddr: 0x2548, symBinAddr: 0x100005454, symSize: 0x14 }
  - { offsetInCU: 0x1F3BF, offset: 0x1F72C, size: 0x8, addend: 0x0, symName: __ZNSt3__123__libcpp_numeric_limitsIlLb1EE3maxB8ue170006Ev, symObjAddr: 0x255C, symBinAddr: 0x100005468, symSize: 0x8 }
  - { offsetInCU: 0x1F3D3, offset: 0x1F740, size: 0x8, addend: 0x0, symName: __ZNSt12length_errorC1B8ue170006EPKc, symObjAddr: 0x25C8, symBinAddr: 0x1000054D4, symSize: 0x34 }
  - { offsetInCU: 0x1F40A, offset: 0x1F777, size: 0x8, addend: 0x0, symName: __ZNSt12length_errorC2B8ue170006EPKc, symObjAddr: 0x25FC, symBinAddr: 0x100005508, symSize: 0x4C }
  - { offsetInCU: 0x1F441, offset: 0x1F7AE, size: 0x8, addend: 0x0, symName: __ZNKSt3__16vectorINS_8functionIFvRKNS_7variantIJN6events11MarketEventENS3_11SignalEventENS3_10OrderEventENS3_9FillEventEEEEEEENS_9allocatorISC_EEE9__end_capB8ue170006Ev, symObjAddr: 0x2648, symBinAddr: 0x100005554, symSize: 0x28 }
  - { offsetInCU: 0x1F466, offset: 0x1F7D3, size: 0x8, addend: 0x0, symName: __ZNKSt3__117__compressed_pairIPNS_8functionIFvRKNS_7variantIJN6events11MarketEventENS3_11SignalEventENS3_10OrderEventENS3_9FillEventEEEEEEENS_9allocatorISC_EEE5firstB8ue170006Ev, symObjAddr: 0x2670, symBinAddr: 0x10000557C, symSize: 0x24 }
  - { offsetInCU: 0x1F48B, offset: 0x1F7F8, size: 0x8, addend: 0x0, symName: __ZNKSt3__122__compressed_pair_elemIPNS_8functionIFvRKNS_7variantIJN6events11MarketEventENS3_11SignalEventENS3_10OrderEventENS3_9FillEventEEEEEEELi0ELb0EE5__getB8ue170006Ev, symObjAddr: 0x2694, symBinAddr: 0x1000055A0, symSize: 0x14 }
  - { offsetInCU: 0x1F4B0, offset: 0x1F81D, size: 0x8, addend: 0x0, symName: __ZNSt3__114__split_bufferINS_8functionIFvRKNS_7variantIJN6events11MarketEventENS3_11SignalEventENS3_10OrderEventENS3_9FillEventEEEEEEERNS_9allocatorISC_EEEC2EmmSF_, symObjAddr: 0x26FC, symBinAddr: 0x100005608, symSize: 0xD4 }
  - { offsetInCU: 0x1F523, offset: 0x1F890, size: 0x8, addend: 0x0, symName: __ZNSt3__117__compressed_pairIPNS_8functionIFvRKNS_7variantIJN6events11MarketEventENS3_11SignalEventENS3_10OrderEventENS3_9FillEventEEEEEEERNS_9allocatorISC_EEEC1B8ue170006IDnSG_EEOT_OT0_, symObjAddr: 0x27D0, symBinAddr: 0x1000056DC, symSize: 0x3C }
  - { offsetInCU: 0x1F57A, offset: 0x1F8E7, size: 0x8, addend: 0x0, symName: __ZNSt3__114__split_bufferINS_8functionIFvRKNS_7variantIJN6events11MarketEventENS3_11SignalEventENS3_10OrderEventENS3_9FillEventEEEEEEERNS_9allocatorISC_EEE7__allocB8ue170006Ev, symObjAddr: 0x284C, symBinAddr: 0x100005758, symSize: 0x28 }
  - { offsetInCU: 0x1F59F, offset: 0x1F90C, size: 0x8, addend: 0x0, symName: __ZNSt3__114__split_bufferINS_8functionIFvRKNS_7variantIJN6events11MarketEventENS3_11SignalEventENS3_10OrderEventENS3_9FillEventEEEEEEERNS_9allocatorISC_EEE9__end_capB8ue170006Ev, symObjAddr: 0x2874, symBinAddr: 0x100005780, symSize: 0x28 }
  - { offsetInCU: 0x1F5C4, offset: 0x1F931, size: 0x8, addend: 0x0, symName: __ZNSt3__117__compressed_pairIPNS_8functionIFvRKNS_7variantIJN6events11MarketEventENS3_11SignalEventENS3_10OrderEventENS3_9FillEventEEEEEEERNS_9allocatorISC_EEEC2B8ue170006IDnSG_EEOT_OT0_, symObjAddr: 0x289C, symBinAddr: 0x1000057A8, symSize: 0x48 }
  - { offsetInCU: 0x1F61B, offset: 0x1F988, size: 0x8, addend: 0x0, symName: __ZNSt3__122__compressed_pair_elemIRNS_9allocatorINS_8functionIFvRKNS_7variantIJN6events11MarketEventENS4_11SignalEventENS4_10OrderEventENS4_9FillEventEEEEEEEEELi1ELb0EEC2B8ue170006ISF_vEEOT_, symObjAddr: 0x28E4, symBinAddr: 0x1000057F0, symSize: 0x20 }
  - { offsetInCU: 0x1F65C, offset: 0x1F9C9, size: 0x8, addend: 0x0, symName: __ZNSt3__19allocatorINS_8functionIFvRKNS_7variantIJN6events11MarketEventENS3_11SignalEventENS3_10OrderEventENS3_9FillEventEEEEEEEE8allocateB8ue170006Em, symObjAddr: 0x2904, symBinAddr: 0x100005810, symSize: 0x58 }
  - { offsetInCU: 0x1F68F, offset: 0x1F9FC, size: 0x8, addend: 0x0, symName: __ZNSt3__117__compressed_pairIPNS_8functionIFvRKNS_7variantIJN6events11MarketEventENS3_11SignalEventENS3_10OrderEventENS3_9FillEventEEEEEEERNS_9allocatorISC_EEE6secondB8ue170006Ev, symObjAddr: 0x2A60, symBinAddr: 0x10000596C, symSize: 0x28 }
  - { offsetInCU: 0x1F6B4, offset: 0x1FA21, size: 0x8, addend: 0x0, symName: __ZNSt3__122__compressed_pair_elemIRNS_9allocatorINS_8functionIFvRKNS_7variantIJN6events11MarketEventENS4_11SignalEventENS4_10OrderEventENS4_9FillEventEEEEEEEEELi1ELb0EE5__getB8ue170006Ev, symObjAddr: 0x2A88, symBinAddr: 0x100005994, symSize: 0x18 }
  - { offsetInCU: 0x1F6D9, offset: 0x1FA46, size: 0x8, addend: 0x0, symName: __ZNSt3__117__compressed_pairIPNS_8functionIFvRKNS_7variantIJN6events11MarketEventENS3_11SignalEventENS3_10OrderEventENS3_9FillEventEEEEEEERNS_9allocatorISC_EEE5firstB8ue170006Ev, symObjAddr: 0x2AA0, symBinAddr: 0x1000059AC, symSize: 0x24 }
  - { offsetInCU: 0x1F6FE, offset: 0x1FA6B, size: 0x8, addend: 0x0, symName: __ZNKSt3__16vectorINS_8functionIFvRKNS_7variantIJN6events11MarketEventENS3_11SignalEventENS3_10OrderEventENS3_9FillEventEEEEEEENS_9allocatorISC_EEE17__annotate_deleteB8ue170006Ev, symObjAddr: 0x2AC4, symBinAddr: 0x1000059D0, symSize: 0xB8 }
  - { offsetInCU: 0x1F723, offset: 0x1FA90, size: 0x8, addend: 0x0, symName: __ZNSt3__116reverse_iteratorIPNS_8functionIFvRKNS_7variantIJN6events11MarketEventENS3_11SignalEventENS3_10OrderEventENS3_9FillEventEEEEEEEEC1B8ue170006ESD_, symObjAddr: 0x2CA8, symBinAddr: 0x100005BB4, symSize: 0x34 }
  - { offsetInCU: 0x1F75A, offset: 0x1FAC7, size: 0x8, addend: 0x0, symName: __ZNKSt3__116reverse_iteratorIPNS_8functionIFvRKNS_7variantIJN6events11MarketEventENS3_11SignalEventENS3_10OrderEventENS3_9FillEventEEEEEEEE4baseB8ue170006Ev, symObjAddr: 0x2CDC, symBinAddr: 0x100005BE8, symSize: 0x18 }
  - { offsetInCU: 0x1F77F, offset: 0x1FAEC, size: 0x8, addend: 0x0, symName: __ZNKSt3__16vectorINS_8functionIFvRKNS_7variantIJN6events11MarketEventENS3_11SignalEventENS3_10OrderEventENS3_9FillEventEEEEEEENS_9allocatorISC_EEE14__annotate_newB8ue170006Em, symObjAddr: 0x2D30, symBinAddr: 0x100005C3C, symSize: 0xAC }
  - { offsetInCU: 0x1F7B3, offset: 0x1FB20, size: 0x8, addend: 0x0, symName: __ZNKSt3__16vectorINS_8functionIFvRKNS_7variantIJN6events11MarketEventENS3_11SignalEventENS3_10OrderEventENS3_9FillEventEEEEEEENS_9allocatorISC_EEE31__annotate_contiguous_containerB8ue170006EPKvSH_SH_SH_, symObjAddr: 0x2DDC, symBinAddr: 0x100005CE8, symSize: 0x20 }
  - { offsetInCU: 0x1F808, offset: 0x1FB75, size: 0x8, addend: 0x0, symName: __ZNKSt3__16vectorINS_8functionIFvRKNS_7variantIJN6events11MarketEventENS3_11SignalEventENS3_10OrderEventENS3_9FillEventEEEEEEENS_9allocatorISC_EEE4dataB8ue170006Ev, symObjAddr: 0x2DFC, symBinAddr: 0x100005D08, symSize: 0x28 }
  - { offsetInCU: 0x1F82D, offset: 0x1FB9A, size: 0x8, addend: 0x0, symName: __ZNSt3__129_AllocatorDestroyRangeReverseINS_9allocatorINS_8functionIFvRKNS_7variantIJN6events11MarketEventENS4_11SignalEventENS4_10OrderEventENS4_9FillEventEEEEEEEEENS_16reverse_iteratorIPSD_EEEC1B8ue170006ERSE_RSH_SK_, symObjAddr: 0x2E70, symBinAddr: 0x100005D7C, symSize: 0x44 }
  - { offsetInCU: 0x1F883, offset: 0x1FBF0, size: 0x8, addend: 0x0, symName: __ZNKSt3__116reverse_iteratorIPNS_8functionIFvRKNS_7variantIJN6events11MarketEventENS3_11SignalEventENS3_10OrderEventENS3_9FillEventEEEEEEEEdeB8ue170006Ev, symObjAddr: 0x2F20, symBinAddr: 0x100005E2C, symSize: 0x28 }
  - { offsetInCU: 0x1F8B7, offset: 0x1FC24, size: 0x8, addend: 0x0, symName: __ZNSt3__116reverse_iteratorIPNS_8functionIFvRKNS_7variantIJN6events11MarketEventENS3_11SignalEventENS3_10OrderEventENS3_9FillEventEEEEEEEEppB8ue170006Ev, symObjAddr: 0x2F48, symBinAddr: 0x100005E54, symSize: 0x20 }
  - { offsetInCU: 0x1F8DC, offset: 0x1FC49, size: 0x8, addend: 0x0, symName: __ZNSt3__128__exception_guard_exceptionsINS_29_AllocatorDestroyRangeReverseINS_9allocatorINS_8functionIFvRKNS_7variantIJN6events11MarketEventENS5_11SignalEventENS5_10OrderEventENS5_9FillEventEEEEEEEEENS_16reverse_iteratorIPSE_EEEEE10__completeB8ue170006Ev, symObjAddr: 0x2F68, symBinAddr: 0x100005E74, symSize: 0x1C }
  - { offsetInCU: 0x1F901, offset: 0x1FC6E, size: 0x8, addend: 0x0, symName: __ZNSt3__128__exception_guard_exceptionsINS_29_AllocatorDestroyRangeReverseINS_9allocatorINS_8functionIFvRKNS_7variantIJN6events11MarketEventENS5_11SignalEventENS5_10OrderEventENS5_9FillEventEEEEEEEEENS_16reverse_iteratorIPSE_EEEEED1B8ue170006Ev, symObjAddr: 0x2F84, symBinAddr: 0x100005E90, symSize: 0x2C }
  - { offsetInCU: 0x1F92A, offset: 0x1FC97, size: 0x8, addend: 0x0, symName: __ZNSt3__128__exception_guard_exceptionsINS_29_AllocatorDestroyRangeReverseINS_9allocatorINS_8functionIFvRKNS_7variantIJN6events11MarketEventENS5_11SignalEventENS5_10OrderEventENS5_9FillEventEEEEEEEEENS_16reverse_iteratorIPSE_EEEEEC1B8ue170006ESJ_, symObjAddr: 0x2FB0, symBinAddr: 0x100005EBC, symSize: 0x34 }
  - { offsetInCU: 0x1F962, offset: 0x1FCCF, size: 0x8, addend: 0x0, symName: __ZNSt3__128__exception_guard_exceptionsINS_29_AllocatorDestroyRangeReverseINS_9allocatorINS_8functionIFvRKNS_7variantIJN6events11MarketEventENS5_11SignalEventENS5_10OrderEventENS5_9FillEventEEEEEEEEENS_16reverse_iteratorIPSE_EEEEEC2B8ue170006ESJ_, symObjAddr: 0x2FE4, symBinAddr: 0x100005EF0, symSize: 0x30 }
  - { offsetInCU: 0x1F99A, offset: 0x1FD07, size: 0x8, addend: 0x0, symName: __ZNSt3__129_AllocatorDestroyRangeReverseINS_9allocatorINS_8functionIFvRKNS_7variantIJN6events11MarketEventENS4_11SignalEventENS4_10OrderEventENS4_9FillEventEEEEEEEEENS_16reverse_iteratorIPSD_EEEC2B8ue170006ERSE_RSH_SK_, symObjAddr: 0x3014, symBinAddr: 0x100005F20, symSize: 0x38 }
  - { offsetInCU: 0x1F9F6, offset: 0x1FD63, size: 0x8, addend: 0x0, symName: __ZNSt3__119__to_address_helperINS_16reverse_iteratorIPNS_8functionIFvRKNS_7variantIJN6events11MarketEventENS4_11SignalEventENS4_10OrderEventENS4_9FillEventEEEEEEEEEvE6__callB8ue170006ERKSF_, symObjAddr: 0x304C, symBinAddr: 0x100005F58, symSize: 0x38 }
  - { offsetInCU: 0x1FA19, offset: 0x1FD86, size: 0x8, addend: 0x0, symName: __ZNKSt3__116reverse_iteratorIPNS_8functionIFvRKNS_7variantIJN6events11MarketEventENS3_11SignalEventENS3_10OrderEventENS3_9FillEventEEEEEEEEptB8ue170006Ev, symObjAddr: 0x3084, symBinAddr: 0x100005F90, symSize: 0x24 }
  - { offsetInCU: 0x1FA3E, offset: 0x1FDAB, size: 0x8, addend: 0x0, symName: __ZNSt3__128__exception_guard_exceptionsINS_29_AllocatorDestroyRangeReverseINS_9allocatorINS_8functionIFvRKNS_7variantIJN6events11MarketEventENS5_11SignalEventENS5_10OrderEventENS5_9FillEventEEEEEEEEENS_16reverse_iteratorIPSE_EEEEED2B8ue170006Ev, symObjAddr: 0x30A8, symBinAddr: 0x100005FB4, symSize: 0x50 }
  - { offsetInCU: 0x1FA67, offset: 0x1FDD4, size: 0x8, addend: 0x0, symName: __ZNKSt3__129_AllocatorDestroyRangeReverseINS_9allocatorINS_8functionIFvRKNS_7variantIJN6events11MarketEventENS4_11SignalEventENS4_10OrderEventENS4_9FillEventEEEEEEEEENS_16reverse_iteratorIPSD_EEEclB8ue170006Ev, symObjAddr: 0x30F8, symBinAddr: 0x100006004, symSize: 0xB4 }
  - { offsetInCU: 0x1FA8D, offset: 0x1FDFA, size: 0x8, addend: 0x0, symName: __ZNSt3__116reverse_iteratorINS0_IPNS_8functionIFvRKNS_7variantIJN6events11MarketEventENS3_11SignalEventENS3_10OrderEventENS3_9FillEventEEEEEEEEEEC1B8ue170006ESE_, symObjAddr: 0x321C, symBinAddr: 0x100006128, symSize: 0x3C }
  - { offsetInCU: 0x1FAC4, offset: 0x1FE31, size: 0x8, addend: 0x0, symName: __ZNSt3__116allocator_traitsINS_9allocatorINS_8functionIFvRKNS_7variantIJN6events11MarketEventENS4_11SignalEventENS4_10OrderEventENS4_9FillEventEEEEEEEEEE7destroyB8ue170006ISD_vEEvRSE_PT_, symObjAddr: 0x32B8, symBinAddr: 0x1000061C4, symSize: 0x2C }
  - { offsetInCU: 0x1FB01, offset: 0x1FE6E, size: 0x8, addend: 0x0, symName: __ZNSt3__116reverse_iteratorINS0_IPNS_8functionIFvRKNS_7variantIJN6events11MarketEventENS3_11SignalEventENS3_10OrderEventENS3_9FillEventEEEEEEEEEEppB8ue170006Ev, symObjAddr: 0x3308, symBinAddr: 0x100006214, symSize: 0x30 }
  - { offsetInCU: 0x1FB26, offset: 0x1FE93, size: 0x8, addend: 0x0, symName: __ZNKSt3__116reverse_iteratorINS0_IPNS_8functionIFvRKNS_7variantIJN6events11MarketEventENS3_11SignalEventENS3_10OrderEventENS3_9FillEventEEEEEEEEEE4baseB8ue170006Ev, symObjAddr: 0x3338, symBinAddr: 0x100006244, symSize: 0x24 }
  - { offsetInCU: 0x1FB4B, offset: 0x1FEB8, size: 0x8, addend: 0x0, symName: __ZNSt3__19allocatorINS_8functionIFvRKNS_7variantIJN6events11MarketEventENS3_11SignalEventENS3_10OrderEventENS3_9FillEventEEEEEEEE7destroyB8ue170006EPSC_, symObjAddr: 0x335C, symBinAddr: 0x100006268, symSize: 0x28 }
  - { offsetInCU: 0x1FB84, offset: 0x1FEF1, size: 0x8, addend: 0x0, symName: __ZNSt3__119__to_address_helperINS_16reverse_iteratorINS1_IPNS_8functionIFvRKNS_7variantIJN6events11MarketEventENS4_11SignalEventENS4_10OrderEventENS4_9FillEventEEEEEEEEEEEvE6__callB8ue170006ERKSG_, symObjAddr: 0x3384, symBinAddr: 0x100006290, symSize: 0x38 }
  - { offsetInCU: 0x1FBA7, offset: 0x1FF14, size: 0x8, addend: 0x0, symName: __ZNKSt3__116reverse_iteratorINS0_IPNS_8functionIFvRKNS_7variantIJN6events11MarketEventENS3_11SignalEventENS3_10OrderEventENS3_9FillEventEEEEEEEEEEptB8ue170006Ev, symObjAddr: 0x33BC, symBinAddr: 0x1000062C8, symSize: 0x24 }
  - { offsetInCU: 0x1FBCC, offset: 0x1FF39, size: 0x8, addend: 0x0, symName: __ZNKSt3__116reverse_iteratorINS0_IPNS_8functionIFvRKNS_7variantIJN6events11MarketEventENS3_11SignalEventENS3_10OrderEventENS3_9FillEventEEEEEEEEEEdeB8ue170006Ev, symObjAddr: 0x33E0, symBinAddr: 0x1000062EC, symSize: 0x34 }
  - { offsetInCU: 0x1FC00, offset: 0x1FF6D, size: 0x8, addend: 0x0, symName: __ZNSt3__116reverse_iteratorIPNS_8functionIFvRKNS_7variantIJN6events11MarketEventENS3_11SignalEventENS3_10OrderEventENS3_9FillEventEEEEEEEEmmB8ue170006Ev, symObjAddr: 0x3414, symBinAddr: 0x100006320, symSize: 0x20 }
  - { offsetInCU: 0x1FC25, offset: 0x1FF92, size: 0x8, addend: 0x0, symName: __ZNSt3__116reverse_iteratorINS0_IPNS_8functionIFvRKNS_7variantIJN6events11MarketEventENS3_11SignalEventENS3_10OrderEventENS3_9FillEventEEEEEEEEEEC2B8ue170006ESE_, symObjAddr: 0x3434, symBinAddr: 0x100006340, symSize: 0x2C }
  - { offsetInCU: 0x1FC5C, offset: 0x1FFC9, size: 0x8, addend: 0x0, symName: __ZNSt3__116reverse_iteratorIPNS_8functionIFvRKNS_7variantIJN6events11MarketEventENS3_11SignalEventENS3_10OrderEventENS3_9FillEventEEEEEEEEC2B8ue170006ESD_, symObjAddr: 0x3460, symBinAddr: 0x10000636C, symSize: 0x28 }
  - { offsetInCU: 0x1FC93, offset: 0x20000, size: 0x8, addend: 0x0, symName: __ZNSt3__114__split_bufferINS_8functionIFvRKNS_7variantIJN6events11MarketEventENS3_11SignalEventENS3_10OrderEventENS3_9FillEventEEEEEEERNS_9allocatorISC_EEED2Ev, symObjAddr: 0x3488, symBinAddr: 0x100006394, symSize: 0x8C }
  - { offsetInCU: 0x1FCBE, offset: 0x2002B, size: 0x8, addend: 0x0, symName: __ZNSt3__114__split_bufferINS_8functionIFvRKNS_7variantIJN6events11MarketEventENS3_11SignalEventENS3_10OrderEventENS3_9FillEventEEEEEEERNS_9allocatorISC_EEE5clearB8ue170006Ev, symObjAddr: 0x3514, symBinAddr: 0x100006420, symSize: 0x28 }
  - { offsetInCU: 0x1FCE3, offset: 0x20050, size: 0x8, addend: 0x0, symName: __ZNSt3__116allocator_traitsINS_9allocatorINS_8functionIFvRKNS_7variantIJN6events11MarketEventENS4_11SignalEventENS4_10OrderEventENS4_9FillEventEEEEEEEEEE10deallocateB8ue170006ERSE_PSD_m, symObjAddr: 0x353C, symBinAddr: 0x100006448, symSize: 0x34 }
  - { offsetInCU: 0x1FD25, offset: 0x20092, size: 0x8, addend: 0x0, symName: __ZNKSt3__114__split_bufferINS_8functionIFvRKNS_7variantIJN6events11MarketEventENS3_11SignalEventENS3_10OrderEventENS3_9FillEventEEEEEEERNS_9allocatorISC_EEE8capacityB8ue170006Ev, symObjAddr: 0x3570, symBinAddr: 0x10000647C, symSize: 0x40 }
  - { offsetInCU: 0x1FD4A, offset: 0x200B7, size: 0x8, addend: 0x0, symName: __ZNSt3__114__split_bufferINS_8functionIFvRKNS_7variantIJN6events11MarketEventENS3_11SignalEventENS3_10OrderEventENS3_9FillEventEEEEEEERNS_9allocatorISC_EEE17__destruct_at_endB8ue170006EPSC_, symObjAddr: 0x35B0, symBinAddr: 0x1000064BC, symSize: 0x2C }
  - { offsetInCU: 0x1FD7D, offset: 0x200EA, size: 0x8, addend: 0x0, symName: __ZNSt3__114__split_bufferINS_8functionIFvRKNS_7variantIJN6events11MarketEventENS3_11SignalEventENS3_10OrderEventENS3_9FillEventEEEEEEERNS_9allocatorISC_EEE17__destruct_at_endB8ue170006EPSC_NS_17integral_constantIbLb0EEE, symObjAddr: 0x35DC, symBinAddr: 0x1000064E8, symSize: 0x80 }
  - { offsetInCU: 0x1FDBC, offset: 0x20129, size: 0x8, addend: 0x0, symName: __ZNSt3__19allocatorINS_8functionIFvRKNS_7variantIJN6events11MarketEventENS3_11SignalEventENS3_10OrderEventENS3_9FillEventEEEEEEEE10deallocateB8ue170006EPSC_m, symObjAddr: 0x365C, symBinAddr: 0x100006568, symSize: 0x40 }
  - { offsetInCU: 0x1FDFD, offset: 0x2016A, size: 0x8, addend: 0x0, symName: __ZNKSt3__114__split_bufferINS_8functionIFvRKNS_7variantIJN6events11MarketEventENS3_11SignalEventENS3_10OrderEventENS3_9FillEventEEEEEEERNS_9allocatorISC_EEE9__end_capB8ue170006Ev, symObjAddr: 0x37A4, symBinAddr: 0x1000066B0, symSize: 0x28 }
  - { offsetInCU: 0x1FE22, offset: 0x2018F, size: 0x8, addend: 0x0, symName: __ZNKSt3__117__compressed_pairIPNS_8functionIFvRKNS_7variantIJN6events11MarketEventENS3_11SignalEventENS3_10OrderEventENS3_9FillEventEEEEEEERNS_9allocatorISC_EEE5firstB8ue170006Ev, symObjAddr: 0x37CC, symBinAddr: 0x1000066D8, symSize: 0x24 }
  - { offsetInCU: 0x1FE47, offset: 0x201B4, size: 0x8, addend: 0x0, symName: __ZNSt3__15dequeINS_7variantIJN6events11MarketEventENS2_11SignalEventENS2_10OrderEventENS2_9FillEventEEEENS_9allocatorIS7_EEE9push_backEOS7_, symObjAddr: 0x37F0, symBinAddr: 0x1000066FC, symSize: 0xAC }
  - { offsetInCU: 0x1FE8C, offset: 0x201F9, size: 0x8, addend: 0x0, symName: __ZNSt3__15dequeINS_7variantIJN6events11MarketEventENS2_11SignalEventENS2_10OrderEventENS2_9FillEventEEEENS_9allocatorIS7_EEE7__allocB8ue170006Ev, symObjAddr: 0x389C, symBinAddr: 0x1000067A8, symSize: 0x28 }
  - { offsetInCU: 0x1FEB1, offset: 0x2021E, size: 0x8, addend: 0x0, symName: __ZNKSt3__15dequeINS_7variantIJN6events11MarketEventENS2_11SignalEventENS2_10OrderEventENS2_9FillEventEEEENS_9allocatorIS7_EEE12__back_spareB8ue170006Ev, symObjAddr: 0x38C4, symBinAddr: 0x1000067D0, symSize: 0x54 }
  - { offsetInCU: 0x1FED6, offset: 0x20243, size: 0x8, addend: 0x0, symName: __ZNSt3__15dequeINS_7variantIJN6events11MarketEventENS2_11SignalEventENS2_10OrderEventENS2_9FillEventEEEENS_9allocatorIS7_EEE19__add_back_capacityEv, symObjAddr: 0x3918, symBinAddr: 0x100006824, symSize: 0x34C }
  - { offsetInCU: 0x1FF8D, offset: 0x202FA, size: 0x8, addend: 0x0, symName: __ZNKSt3__15dequeINS_7variantIJN6events11MarketEventENS2_11SignalEventENS2_10OrderEventENS2_9FillEventEEEENS_9allocatorIS7_EEE24__annotate_increase_backB8ue170006Em, symObjAddr: 0x3C64, symBinAddr: 0x100006B70, symSize: 0x7C }
  - { offsetInCU: 0x1FFC1, offset: 0x2032E, size: 0x8, addend: 0x0, symName: __ZNSt3__116allocator_traitsINS_9allocatorINS_7variantIJN6events11MarketEventENS3_11SignalEventENS3_10OrderEventENS3_9FillEventEEEEEEE9constructB8ue170006IS8_JS8_EvEEvRS9_PT_DpOT0_, symObjAddr: 0x3CE0, symBinAddr: 0x100006BEC, symSize: 0x34 }
  - { offsetInCU: 0x20018, offset: 0x20385, size: 0x8, addend: 0x0, symName: __ZNSt3__15dequeINS_7variantIJN6events11MarketEventENS2_11SignalEventENS2_10OrderEventENS2_9FillEventEEEENS_9allocatorIS7_EEE3endB8ue170006Ev, symObjAddr: 0x3D14, symBinAddr: 0x100006C20, symSize: 0xD4 }
  - { offsetInCU: 0x2005B, offset: 0x203C8, size: 0x8, addend: 0x0, symName: __ZNKSt3__116__deque_iteratorINS_7variantIJN6events11MarketEventENS2_11SignalEventENS2_10OrderEventENS2_9FillEventEEEEPS7_RS7_PS8_lLl39EEdeB8ue170006Ev, symObjAddr: 0x3DE8, symBinAddr: 0x100006CF4, symSize: 0x18 }
  - { offsetInCU: 0x20080, offset: 0x203ED, size: 0x8, addend: 0x0, symName: __ZNSt3__15dequeINS_7variantIJN6events11MarketEventENS2_11SignalEventENS2_10OrderEventENS2_9FillEventEEEENS_9allocatorIS7_EEE6__sizeB8ue170006Ev, symObjAddr: 0x3E00, symBinAddr: 0x100006D0C, symSize: 0x28 }
  - { offsetInCU: 0x200A5, offset: 0x20412, size: 0x8, addend: 0x0, symName: __ZNSt3__117__compressed_pairImNS_9allocatorINS_7variantIJN6events11MarketEventENS3_11SignalEventENS3_10OrderEventENS3_9FillEventEEEEEEE6secondB8ue170006Ev, symObjAddr: 0x3E28, symBinAddr: 0x100006D34, symSize: 0x24 }
  - { offsetInCU: 0x200CA, offset: 0x20437, size: 0x8, addend: 0x0, symName: __ZNSt3__122__compressed_pair_elemINS_9allocatorINS_7variantIJN6events11MarketEventENS3_11SignalEventENS3_10OrderEventENS3_9FillEventEEEEEELi1ELb1EE5__getB8ue170006Ev, symObjAddr: 0x3E4C, symBinAddr: 0x100006D58, symSize: 0x14 }
  - { offsetInCU: 0x200EF, offset: 0x2045C, size: 0x8, addend: 0x0, symName: __ZNKSt3__15dequeINS_7variantIJN6events11MarketEventENS2_11SignalEventENS2_10OrderEventENS2_9FillEventEEEENS_9allocatorIS7_EEE10__capacityB8ue170006Ev, symObjAddr: 0x3E60, symBinAddr: 0x100006D6C, symSize: 0x64 }
  - { offsetInCU: 0x20114, offset: 0x20481, size: 0x8, addend: 0x0, symName: __ZNKSt3__15dequeINS_7variantIJN6events11MarketEventENS2_11SignalEventENS2_10OrderEventENS2_9FillEventEEEENS_9allocatorIS7_EEE13__front_spareB8ue170006Ev, symObjAddr: 0x3EC4, symBinAddr: 0x100006DD0, symSize: 0x18 }
  - { offsetInCU: 0x20139, offset: 0x204A6, size: 0x8, addend: 0x0, symName: __ZNSt3__114__split_bufferIPNS_7variantIJN6events11MarketEventENS2_11SignalEventENS2_10OrderEventENS2_9FillEventEEEENS_9allocatorIS8_EEE5frontB8ue170006Ev, symObjAddr: 0x3EDC, symBinAddr: 0x100006DE8, symSize: 0x18 }
  - { offsetInCU: 0x2015E, offset: 0x204CB, size: 0x8, addend: 0x0, symName: __ZNSt3__114__split_bufferIPNS_7variantIJN6events11MarketEventENS2_11SignalEventENS2_10OrderEventENS2_9FillEventEEEENS_9allocatorIS8_EEE9pop_frontB8ue170006Ev, symObjAddr: 0x3EF4, symBinAddr: 0x100006E00, symSize: 0x2C }
  - { offsetInCU: 0x20183, offset: 0x204F0, size: 0x8, addend: 0x0, symName: __ZNSt3__114__split_bufferIPNS_7variantIJN6events11MarketEventENS2_11SignalEventENS2_10OrderEventENS2_9FillEventEEEENS_9allocatorIS8_EEE9push_backB8ue170006ERKS8_, symObjAddr: 0x3F20, symBinAddr: 0x100006E2C, symSize: 0x260 }
  - { offsetInCU: 0x201FB, offset: 0x20568, size: 0x8, addend: 0x0, symName: __ZNKSt3__114__split_bufferIPNS_7variantIJN6events11MarketEventENS2_11SignalEventENS2_10OrderEventENS2_9FillEventEEEENS_9allocatorIS8_EEE8capacityB8ue170006Ev, symObjAddr: 0x4180, symBinAddr: 0x10000708C, symSize: 0x40 }
  - { offsetInCU: 0x20220, offset: 0x2058D, size: 0x8, addend: 0x0, symName: __ZNKSt3__114__split_bufferIPNS_7variantIJN6events11MarketEventENS2_11SignalEventENS2_10OrderEventENS2_9FillEventEEEENS_9allocatorIS8_EEE12__back_spareB8ue170006Ev, symObjAddr: 0x41C0, symBinAddr: 0x1000070CC, symSize: 0x40 }
  - { offsetInCU: 0x20245, offset: 0x205B2, size: 0x8, addend: 0x0, symName: __ZNSt3__114__split_bufferIPNS_7variantIJN6events11MarketEventENS2_11SignalEventENS2_10OrderEventENS2_9FillEventEEEENS_9allocatorIS8_EEE9push_backEOS8_, symObjAddr: 0x4200, symBinAddr: 0x10000710C, symSize: 0x260 }
  - { offsetInCU: 0x202BD, offset: 0x2062A, size: 0x8, addend: 0x0, symName: __ZNSt3__116allocator_traitsINS_9allocatorINS_7variantIJN6events11MarketEventENS3_11SignalEventENS3_10OrderEventENS3_9FillEventEEEEEEE8allocateB8ue170006ERS9_m, symObjAddr: 0x4460, symBinAddr: 0x10000736C, symSize: 0x2C }
  - { offsetInCU: 0x202F0, offset: 0x2065D, size: 0x8, addend: 0x0, symName: __ZNSt3__114__split_bufferIPNS_7variantIJN6events11MarketEventENS2_11SignalEventENS2_10OrderEventENS2_9FillEventEEEENS_9allocatorIS8_EEE10push_frontEOS8_, symObjAddr: 0x448C, symBinAddr: 0x100007398, symSize: 0x25C }
  - { offsetInCU: 0x20368, offset: 0x206D5, size: 0x8, addend: 0x0, symName: __ZNKSt3__15dequeINS_7variantIJN6events11MarketEventENS2_11SignalEventENS2_10OrderEventENS2_9FillEventEEEENS_9allocatorIS7_EEE22__annotate_whole_blockB8ue170006EmNSA_22__asan_annotation_typeE, symObjAddr: 0x46E8, symBinAddr: 0x1000075F4, symSize: 0xAC }
  - { offsetInCU: 0x203D8, offset: 0x20745, size: 0x8, addend: 0x0, symName: __ZNSt3__114__split_bufferIPNS_7variantIJN6events11MarketEventENS2_11SignalEventENS2_10OrderEventENS2_9FillEventEEEENS_9allocatorIS8_EEE7__allocB8ue170006Ev, symObjAddr: 0x4794, symBinAddr: 0x1000076A0, symSize: 0x28 }
  - { offsetInCU: 0x203FD, offset: 0x2076A, size: 0x8, addend: 0x0, symName: __ZNSt3__114__split_bufferIPNS_7variantIJN6events11MarketEventENS2_11SignalEventENS2_10OrderEventENS2_9FillEventEEEERNS_9allocatorIS8_EEEC1EmmSB_, symObjAddr: 0x47BC, symBinAddr: 0x1000076C8, symSize: 0x44 }
  - { offsetInCU: 0x20457, offset: 0x207C4, size: 0x8, addend: 0x0, symName: __ZNSt3__122__allocator_destructorINS_9allocatorINS_7variantIJN6events11MarketEventENS3_11SignalEventENS3_10OrderEventENS3_9FillEventEEEEEEEC1B8ue170006ERS9_m, symObjAddr: 0x4800, symBinAddr: 0x10000770C, symSize: 0x3C }
  - { offsetInCU: 0x20521, offset: 0x2088E, size: 0x8, addend: 0x0, symName: __ZNSt3__110unique_ptrIPNS_7variantIJN6events11MarketEventENS2_11SignalEventENS2_10OrderEventENS2_9FillEventEEEENS_22__allocator_destructorINS_9allocatorIS7_EEEEEC1B8ue170006ILb1EvEES8_NS_16__dependent_typeINS_27__unique_ptr_deleter_sfinaeISC_EEXT_EE20__good_rval_ref_typeE, symObjAddr: 0x483C, symBinAddr: 0x100007748, symSize: 0x3C }
  - { offsetInCU: 0x20571, offset: 0x208DE, size: 0x8, addend: 0x0, symName: __ZNSt3__114__split_bufferIPNS_7variantIJN6events11MarketEventENS2_11SignalEventENS2_10OrderEventENS2_9FillEventEEEERNS_9allocatorIS8_EEE9push_backEOS8_, symObjAddr: 0x4878, symBinAddr: 0x100007784, symSize: 0x260 }
  - { offsetInCU: 0x205E9, offset: 0x20956, size: 0x8, addend: 0x0, symName: __ZNKSt3__110unique_ptrIPNS_7variantIJN6events11MarketEventENS2_11SignalEventENS2_10OrderEventENS2_9FillEventEEEENS_22__allocator_destructorINS_9allocatorIS7_EEEEE3getB8ue170006Ev, symObjAddr: 0x4AD8, symBinAddr: 0x1000079E4, symSize: 0x28 }
  - { offsetInCU: 0x2060E, offset: 0x2097B, size: 0x8, addend: 0x0, symName: __ZNSt3__110unique_ptrIPNS_7variantIJN6events11MarketEventENS2_11SignalEventENS2_10OrderEventENS2_9FillEventEEEENS_22__allocator_destructorINS_9allocatorIS7_EEEEE7releaseB8ue170006Ev, symObjAddr: 0x4B00, symBinAddr: 0x100007A0C, symSize: 0x44 }
  - { offsetInCU: 0x20642, offset: 0x209AF, size: 0x8, addend: 0x0, symName: __ZNSt3__114__split_bufferIPNS_7variantIJN6events11MarketEventENS2_11SignalEventENS2_10OrderEventENS2_9FillEventEEEENS_9allocatorIS8_EEE3endB8ue170006Ev, symObjAddr: 0x4B44, symBinAddr: 0x100007A50, symSize: 0x18 }
  - { offsetInCU: 0x20667, offset: 0x209D4, size: 0x8, addend: 0x0, symName: __ZNSt3__114__split_bufferIPNS_7variantIJN6events11MarketEventENS2_11SignalEventENS2_10OrderEventENS2_9FillEventEEEENS_9allocatorIS8_EEE5beginB8ue170006Ev, symObjAddr: 0x4B5C, symBinAddr: 0x100007A68, symSize: 0x18 }
  - { offsetInCU: 0x2068C, offset: 0x209F9, size: 0x8, addend: 0x0, symName: __ZNSt3__114__split_bufferIPNS_7variantIJN6events11MarketEventENS2_11SignalEventENS2_10OrderEventENS2_9FillEventEEEERNS_9allocatorIS8_EEE10push_frontERKS8_, symObjAddr: 0x4B74, symBinAddr: 0x100007A80, symSize: 0x25C }
  - { offsetInCU: 0x20704, offset: 0x20A71, size: 0x8, addend: 0x0, symName: __ZNSt3__114__split_bufferIPNS_7variantIJN6events11MarketEventENS2_11SignalEventENS2_10OrderEventENS2_9FillEventEEEENS_9allocatorIS8_EEE9__end_capB8ue170006Ev, symObjAddr: 0x4E0C, symBinAddr: 0x100007D18, symSize: 0x28 }
  - { offsetInCU: 0x20729, offset: 0x20A96, size: 0x8, addend: 0x0, symName: __ZNSt3__114__split_bufferIPNS_7variantIJN6events11MarketEventENS2_11SignalEventENS2_10OrderEventENS2_9FillEventEEEERNS_9allocatorIS8_EEE9__end_capB8ue170006Ev, symObjAddr: 0x4E34, symBinAddr: 0x100007D40, symSize: 0x28 }
  - { offsetInCU: 0x2074E, offset: 0x20ABB, size: 0x8, addend: 0x0, symName: __ZNSt3__110unique_ptrIPNS_7variantIJN6events11MarketEventENS2_11SignalEventENS2_10OrderEventENS2_9FillEventEEEENS_22__allocator_destructorINS_9allocatorIS7_EEEEED1B8ue170006Ev, symObjAddr: 0x4E5C, symBinAddr: 0x100007D68, symSize: 0x2C }
  - { offsetInCU: 0x20777, offset: 0x20AE4, size: 0x8, addend: 0x0, symName: __ZNSt3__114__split_bufferIPNS_7variantIJN6events11MarketEventENS2_11SignalEventENS2_10OrderEventENS2_9FillEventEEEERNS_9allocatorIS8_EEED1Ev, symObjAddr: 0x4E88, symBinAddr: 0x100007D94, symSize: 0x2C }
  - { offsetInCU: 0x207A2, offset: 0x20B0F, size: 0x8, addend: 0x0, symName: __ZNSt3__114__split_bufferIPNS_7variantIJN6events11MarketEventENS2_11SignalEventENS2_10OrderEventENS2_9FillEventEEEENS_9allocatorIS8_EEE19__destruct_at_beginB8ue170006EPS8_, symObjAddr: 0x4EB4, symBinAddr: 0x100007DC0, symSize: 0x2C }
  - { offsetInCU: 0x207D5, offset: 0x20B42, size: 0x8, addend: 0x0, symName: __ZNSt3__114__split_bufferIPNS_7variantIJN6events11MarketEventENS2_11SignalEventENS2_10OrderEventENS2_9FillEventEEEENS_9allocatorIS8_EEE19__destruct_at_beginEPS8_NS_17integral_constantIbLb1EEE, symObjAddr: 0x4EE0, symBinAddr: 0x100007DEC, symSize: 0x20 }
  - { offsetInCU: 0x20814, offset: 0x20B81, size: 0x8, addend: 0x0, symName: __ZNSt3__114__split_bufferIPNS_7variantIJN6events11MarketEventENS2_11SignalEventENS2_10OrderEventENS2_9FillEventEEEERNS_9allocatorIS8_EEE18__construct_at_endINS_13move_iteratorIPS8_EEEENS_9enable_ifIXsr31__has_forward_iterator_categoryIT_EE5valueEvE4typeESI_SI_, symObjAddr: 0x4F40, symBinAddr: 0x100007E4C, symSize: 0x60 }
  - { offsetInCU: 0x20860, offset: 0x20BCD, size: 0x8, addend: 0x0, symName: __ZNSt3__113move_iteratorIPPNS_7variantIJN6events11MarketEventENS2_11SignalEventENS2_10OrderEventENS2_9FillEventEEEEEC1B8ue170006ES9_, symObjAddr: 0x4FA0, symBinAddr: 0x100007EAC, symSize: 0x34 }
  - { offsetInCU: 0x20897, offset: 0x20C04, size: 0x8, addend: 0x0, symName: __ZNSt3__116allocator_traitsINS_9allocatorIPNS_7variantIJN6events11MarketEventENS3_11SignalEventENS3_10OrderEventENS3_9FillEventEEEEEEE9constructB8ue170006IS9_JRKS9_EvEEvRSA_PT_DpOT0_, symObjAddr: 0x4FD4, symBinAddr: 0x100007EE0, symSize: 0x34 }
  - { offsetInCU: 0x20914, offset: 0x20C81, size: 0x8, addend: 0x0, symName: __ZNKSt3__114__move_trivialclB8ue170006IPNS_7variantIJN6events11MarketEventENS3_11SignalEventENS3_10OrderEventENS3_9FillEventEEEES9_Li0EEENS_4pairIPT_PT0_EESC_SC_SE_, symObjAddr: 0x51B8, symBinAddr: 0x1000080C4, symSize: 0x48 }
  - { offsetInCU: 0x20981, offset: 0x20CEE, size: 0x8, addend: 0x0, symName: __ZNSt3__14pairIPPNS_7variantIJN6events11MarketEventENS2_11SignalEventENS2_10OrderEventENS2_9FillEventEEEES9_EC1B8ue170006IRS9_S9_LPv0EEEOT_OT0_, symObjAddr: 0x53E0, symBinAddr: 0x1000082EC, symSize: 0x3C }
  - { offsetInCU: 0x209DE, offset: 0x20D4B, size: 0x8, addend: 0x0, symName: __ZNSt3__14pairIPPNS_7variantIJN6events11MarketEventENS2_11SignalEventENS2_10OrderEventENS2_9FillEventEEEES9_EC2B8ue170006IRS9_S9_LPv0EEEOT_OT0_, symObjAddr: 0x541C, symBinAddr: 0x100008328, symSize: 0x34 }
  - { offsetInCU: 0x20A3B, offset: 0x20DA8, size: 0x8, addend: 0x0, symName: __ZNSt3__118__unwrap_iter_implIPPNS_7variantIJN6events11MarketEventENS2_11SignalEventENS2_10OrderEventENS2_9FillEventEEEELb1EE8__unwrapB8ue170006ES9_, symObjAddr: 0x5450, symBinAddr: 0x10000835C, symSize: 0x24 }
  - { offsetInCU: 0x20A5E, offset: 0x20DCB, size: 0x8, addend: 0x0, symName: __ZNSt3__14pairIPPNS_7variantIJN6events11MarketEventENS2_11SignalEventENS2_10OrderEventENS2_9FillEventEEEES9_EC1B8ue170006IS9_S9_LPv0EEEOT_OT0_, symObjAddr: 0x5474, symBinAddr: 0x100008380, symSize: 0x3C }
  - { offsetInCU: 0x20ABB, offset: 0x20E28, size: 0x8, addend: 0x0, symName: __ZNSt3__14pairIPPNS_7variantIJN6events11MarketEventENS2_11SignalEventENS2_10OrderEventENS2_9FillEventEEEES9_EC2B8ue170006IS9_S9_LPv0EEEOT_OT0_, symObjAddr: 0x54B0, symBinAddr: 0x1000083BC, symSize: 0x34 }
  - { offsetInCU: 0x20B18, offset: 0x20E85, size: 0x8, addend: 0x0, symName: __ZNSt3__118__unwrap_iter_implIPPNS_7variantIJN6events11MarketEventENS2_11SignalEventENS2_10OrderEventENS2_9FillEventEEEELb1EE8__rewrapB8ue170006ES9_S9_, symObjAddr: 0x54E4, symBinAddr: 0x1000083F0, symSize: 0x50 }
  - { offsetInCU: 0x20B49, offset: 0x20EB6, size: 0x8, addend: 0x0, symName: __ZNSt3__114__split_bufferIPNS_7variantIJN6events11MarketEventENS2_11SignalEventENS2_10OrderEventENS2_9FillEventEEEERNS_9allocatorIS8_EEE28__construct_at_end_with_sizeINS_13move_iteratorIPS8_EEEEvT_m, symObjAddr: 0x5534, symBinAddr: 0x100008440, symSize: 0xDC }
  - { offsetInCU: 0x20BAE, offset: 0x20F1B, size: 0x8, addend: 0x0, symName: __ZNSt3__114__split_bufferIPNS_7variantIJN6events11MarketEventENS2_11SignalEventENS2_10OrderEventENS2_9FillEventEEEERNS_9allocatorIS8_EEE21_ConstructTransactionC1B8ue170006EPPS8_m, symObjAddr: 0x564C, symBinAddr: 0x100008558, symSize: 0x3C }
  - { offsetInCU: 0x20BF3, offset: 0x20F60, size: 0x8, addend: 0x0, symName: __ZNSt3__116allocator_traitsINS_9allocatorIPNS_7variantIJN6events11MarketEventENS3_11SignalEventENS3_10OrderEventENS3_9FillEventEEEEEEE9constructB8ue170006IS9_JS9_EvEEvRSA_PT_DpOT0_, symObjAddr: 0x5688, symBinAddr: 0x100008594, symSize: 0x34 }
  - { offsetInCU: 0x20C4A, offset: 0x20FB7, size: 0x8, addend: 0x0, symName: __ZNSt3__114__split_bufferIPNS_7variantIJN6events11MarketEventENS2_11SignalEventENS2_10OrderEventENS2_9FillEventEEEERNS_9allocatorIS8_EEE7__allocB8ue170006Ev, symObjAddr: 0x56BC, symBinAddr: 0x1000085C8, symSize: 0x28 }
  - { offsetInCU: 0x20C6F, offset: 0x20FDC, size: 0x8, addend: 0x0, symName: __ZNKSt3__113move_iteratorIPPNS_7variantIJN6events11MarketEventENS2_11SignalEventENS2_10OrderEventENS2_9FillEventEEEEEdeB8ue170006Ev, symObjAddr: 0x56E4, symBinAddr: 0x1000085F0, symSize: 0x18 }
  - { offsetInCU: 0x20C94, offset: 0x21001, size: 0x8, addend: 0x0, symName: __ZNSt3__113move_iteratorIPPNS_7variantIJN6events11MarketEventENS2_11SignalEventENS2_10OrderEventENS2_9FillEventEEEEEppB8ue170006Ev, symObjAddr: 0x56FC, symBinAddr: 0x100008608, symSize: 0x20 }
  - { offsetInCU: 0x20CB9, offset: 0x21026, size: 0x8, addend: 0x0, symName: __ZNSt3__114__split_bufferIPNS_7variantIJN6events11MarketEventENS2_11SignalEventENS2_10OrderEventENS2_9FillEventEEEERNS_9allocatorIS8_EEE21_ConstructTransactionD1B8ue170006Ev, symObjAddr: 0x571C, symBinAddr: 0x100008628, symSize: 0x2C }
  - { offsetInCU: 0x20CE2, offset: 0x2104F, size: 0x8, addend: 0x0, symName: __ZNSt3__114__split_bufferIPNS_7variantIJN6events11MarketEventENS2_11SignalEventENS2_10OrderEventENS2_9FillEventEEEERNS_9allocatorIS8_EEE21_ConstructTransactionC2B8ue170006EPPS8_m, symObjAddr: 0x5748, symBinAddr: 0x100008654, symSize: 0x44 }
  - { offsetInCU: 0x20D27, offset: 0x21094, size: 0x8, addend: 0x0, symName: __ZNSt3__19allocatorIPNS_7variantIJN6events11MarketEventENS2_11SignalEventENS2_10OrderEventENS2_9FillEventEEEEE9constructB8ue170006IS8_JS8_EEEvPT_DpOT0_, symObjAddr: 0x578C, symBinAddr: 0x100008698, symSize: 0x28 }
  - { offsetInCU: 0x20D7C, offset: 0x210E9, size: 0x8, addend: 0x0, symName: __ZNSt3__117__compressed_pairIPPNS_7variantIJN6events11MarketEventENS2_11SignalEventENS2_10OrderEventENS2_9FillEventEEEERNS_9allocatorIS8_EEE6secondB8ue170006Ev, symObjAddr: 0x57B4, symBinAddr: 0x1000086C0, symSize: 0x28 }
  - { offsetInCU: 0x20DA1, offset: 0x2110E, size: 0x8, addend: 0x0, symName: __ZNSt3__122__compressed_pair_elemIRNS_9allocatorIPNS_7variantIJN6events11MarketEventENS3_11SignalEventENS3_10OrderEventENS3_9FillEventEEEEEELi1ELb0EE5__getB8ue170006Ev, symObjAddr: 0x57DC, symBinAddr: 0x1000086E8, symSize: 0x18 }
  - { offsetInCU: 0x20DC6, offset: 0x21133, size: 0x8, addend: 0x0, symName: __ZNSt3__114__split_bufferIPNS_7variantIJN6events11MarketEventENS2_11SignalEventENS2_10OrderEventENS2_9FillEventEEEERNS_9allocatorIS8_EEE21_ConstructTransactionD2B8ue170006Ev, symObjAddr: 0x57F4, symBinAddr: 0x100008700, symSize: 0x20 }
  - { offsetInCU: 0x20DEF, offset: 0x2115C, size: 0x8, addend: 0x0, symName: __ZNKSt3__113move_iteratorIPPNS_7variantIJN6events11MarketEventENS2_11SignalEventENS2_10OrderEventENS2_9FillEventEEEEE4baseB8ue170006Ev, symObjAddr: 0x588C, symBinAddr: 0x100008798, symSize: 0x18 }
  - { offsetInCU: 0x20E14, offset: 0x21181, size: 0x8, addend: 0x0, symName: __ZNSt3__113move_iteratorIPPNS_7variantIJN6events11MarketEventENS2_11SignalEventENS2_10OrderEventENS2_9FillEventEEEEEC2B8ue170006ES9_, symObjAddr: 0x58A4, symBinAddr: 0x1000087B0, symSize: 0x20 }
  - { offsetInCU: 0x20E4B, offset: 0x211B8, size: 0x8, addend: 0x0, symName: __ZNSt3__19allocatorIPNS_7variantIJN6events11MarketEventENS2_11SignalEventENS2_10OrderEventENS2_9FillEventEEEEE9constructB8ue170006IS8_JRKS8_EEEvPT_DpOT0_, symObjAddr: 0x58C4, symBinAddr: 0x1000087D0, symSize: 0x28 }
  - { offsetInCU: 0x20EA0, offset: 0x2120D, size: 0x8, addend: 0x0, symName: __ZNKSt3__114__split_bufferIPNS_7variantIJN6events11MarketEventENS2_11SignalEventENS2_10OrderEventENS2_9FillEventEEEENS_9allocatorIS8_EEE9__end_capB8ue170006Ev, symObjAddr: 0x58EC, symBinAddr: 0x1000087F8, symSize: 0x28 }
  - { offsetInCU: 0x20EC5, offset: 0x21232, size: 0x8, addend: 0x0, symName: __ZNKSt3__117__compressed_pairIPPNS_7variantIJN6events11MarketEventENS2_11SignalEventENS2_10OrderEventENS2_9FillEventEEEENS_9allocatorIS8_EEE5firstB8ue170006Ev, symObjAddr: 0x5914, symBinAddr: 0x100008820, symSize: 0x24 }
  - { offsetInCU: 0x20EEA, offset: 0x21257, size: 0x8, addend: 0x0, symName: __ZNKSt3__122__compressed_pair_elemIPPNS_7variantIJN6events11MarketEventENS2_11SignalEventENS2_10OrderEventENS2_9FillEventEEEELi0ELb0EE5__getB8ue170006Ev, symObjAddr: 0x5938, symBinAddr: 0x100008844, symSize: 0x14 }
  - { offsetInCU: 0x20F0F, offset: 0x2127C, size: 0x8, addend: 0x0, symName: __ZNSt3__19allocatorINS_7variantIJN6events11MarketEventENS2_11SignalEventENS2_10OrderEventENS2_9FillEventEEEEE8allocateB8ue170006Em, symObjAddr: 0x594C, symBinAddr: 0x100008858, symSize: 0x5C }
  - { offsetInCU: 0x20F4D, offset: 0x212BA, size: 0x8, addend: 0x0, symName: __ZNSt3__116allocator_traitsINS_9allocatorINS_7variantIJN6events11MarketEventENS3_11SignalEventENS3_10OrderEventENS3_9FillEventEEEEEEE8max_sizeB8ue170006IS9_vEEmRKS9_, symObjAddr: 0x59A8, symBinAddr: 0x1000088B4, symSize: 0x24 }
  - { offsetInCU: 0x20F7B, offset: 0x212E8, size: 0x8, addend: 0x0, symName: __ZNKSt3__19allocatorINS_7variantIJN6events11MarketEventENS2_11SignalEventENS2_10OrderEventENS2_9FillEventEEEEE8max_sizeB8ue170006Ev, symObjAddr: 0x59CC, symBinAddr: 0x1000088D8, symSize: 0x20 }
  - { offsetInCU: 0x20FAA, offset: 0x21317, size: 0x8, addend: 0x0, symName: __ZNKSt3__123__move_backward_trivialclB8ue170006IPNS_7variantIJN6events11MarketEventENS3_11SignalEventENS3_10OrderEventENS3_9FillEventEEEES9_Li0EEENS_4pairIPT_PT0_EESC_SC_SE_, symObjAddr: 0x5B68, symBinAddr: 0x100008A74, symSize: 0x48 }
  - { offsetInCU: 0x21011, offset: 0x2137E, size: 0x8, addend: 0x0, symName: __ZNSt3__14pairIPPNS_7variantIJN6events11MarketEventENS2_11SignalEventENS2_10OrderEventENS2_9FillEventEEEES9_EC1B8ue170006IRS9_SC_LPv0EEEOT_OT0_, symObjAddr: 0x5C78, symBinAddr: 0x100008B84, symSize: 0x3C }
  - { offsetInCU: 0x2106E, offset: 0x213DB, size: 0x8, addend: 0x0, symName: __ZNSt3__14pairIPPNS_7variantIJN6events11MarketEventENS2_11SignalEventENS2_10OrderEventENS2_9FillEventEEEES9_EC2B8ue170006IRS9_SC_LPv0EEEOT_OT0_, symObjAddr: 0x5CB4, symBinAddr: 0x100008BC0, symSize: 0x34 }
  - { offsetInCU: 0x210CB, offset: 0x21438, size: 0x8, addend: 0x0, symName: __ZNKSt3__15dequeINS_7variantIJN6events11MarketEventENS2_11SignalEventENS2_10OrderEventENS2_9FillEventEEEENS_9allocatorIS7_EEE23__annotate_poison_blockB8ue170006EPKvSC_, symObjAddr: 0x5CE8, symBinAddr: 0x100008BF4, symSize: 0x44 }
  - { offsetInCU: 0x2110E, offset: 0x2147B, size: 0x8, addend: 0x0, symName: __ZNSt3__117__compressed_pairIPPNS_7variantIJN6events11MarketEventENS2_11SignalEventENS2_10OrderEventENS2_9FillEventEEEENS_9allocatorIS8_EEE6secondB8ue170006Ev, symObjAddr: 0x5D2C, symBinAddr: 0x100008C38, symSize: 0x24 }
  - { offsetInCU: 0x21133, offset: 0x214A0, size: 0x8, addend: 0x0, symName: __ZNSt3__122__compressed_pair_elemINS_9allocatorIPNS_7variantIJN6events11MarketEventENS3_11SignalEventENS3_10OrderEventENS3_9FillEventEEEEEELi1ELb1EE5__getB8ue170006Ev, symObjAddr: 0x5D50, symBinAddr: 0x100008C5C, symSize: 0x14 }
  - { offsetInCU: 0x21158, offset: 0x214C5, size: 0x8, addend: 0x0, symName: __ZNSt3__114__split_bufferIPNS_7variantIJN6events11MarketEventENS2_11SignalEventENS2_10OrderEventENS2_9FillEventEEEERNS_9allocatorIS8_EEEC2EmmSB_, symObjAddr: 0x5D64, symBinAddr: 0x100008C70, symSize: 0xD4 }
  - { offsetInCU: 0x211CB, offset: 0x21538, size: 0x8, addend: 0x0, symName: __ZNSt3__117__compressed_pairIPPNS_7variantIJN6events11MarketEventENS2_11SignalEventENS2_10OrderEventENS2_9FillEventEEEERNS_9allocatorIS8_EEEC1B8ue170006IDnSC_EEOT_OT0_, symObjAddr: 0x5E38, symBinAddr: 0x100008D44, symSize: 0x3C }
  - { offsetInCU: 0x21222, offset: 0x2158F, size: 0x8, addend: 0x0, symName: __ZNSt3__117__compressed_pairIPPNS_7variantIJN6events11MarketEventENS2_11SignalEventENS2_10OrderEventENS2_9FillEventEEEERNS_9allocatorIS8_EEEC2B8ue170006IDnSC_EEOT_OT0_, symObjAddr: 0x5EB4, symBinAddr: 0x100008DC0, symSize: 0x48 }
  - { offsetInCU: 0x21279, offset: 0x215E6, size: 0x8, addend: 0x0, symName: __ZNSt3__122__compressed_pair_elemIRNS_9allocatorIPNS_7variantIJN6events11MarketEventENS3_11SignalEventENS3_10OrderEventENS3_9FillEventEEEEEELi1ELb0EEC2B8ue170006ISB_vEEOT_, symObjAddr: 0x5EFC, symBinAddr: 0x100008E08, symSize: 0x20 }
  - { offsetInCU: 0x212BA, offset: 0x21627, size: 0x8, addend: 0x0, symName: __ZNSt3__19allocatorIPNS_7variantIJN6events11MarketEventENS2_11SignalEventENS2_10OrderEventENS2_9FillEventEEEEE8allocateB8ue170006Em, symObjAddr: 0x5F1C, symBinAddr: 0x100008E28, symSize: 0x58 }
  - { offsetInCU: 0x212F8, offset: 0x21665, size: 0x8, addend: 0x0, symName: __ZNSt3__116allocator_traitsINS_9allocatorIPNS_7variantIJN6events11MarketEventENS3_11SignalEventENS3_10OrderEventENS3_9FillEventEEEEEEE8max_sizeB8ue170006ISA_vEEmRKSA_, symObjAddr: 0x5F74, symBinAddr: 0x100008E80, symSize: 0x24 }
  - { offsetInCU: 0x21326, offset: 0x21693, size: 0x8, addend: 0x0, symName: __ZNKSt3__19allocatorIPNS_7variantIJN6events11MarketEventENS2_11SignalEventENS2_10OrderEventENS2_9FillEventEEEEE8max_sizeB8ue170006Ev, symObjAddr: 0x5F98, symBinAddr: 0x100008EA4, symSize: 0x14 }
  - { offsetInCU: 0x2134B, offset: 0x216B8, size: 0x8, addend: 0x0, symName: __ZNSt3__122__allocator_destructorINS_9allocatorINS_7variantIJN6events11MarketEventENS3_11SignalEventENS3_10OrderEventENS3_9FillEventEEEEEEEC2B8ue170006ERS9_m, symObjAddr: 0x5FAC, symBinAddr: 0x100008EB8, symSize: 0x2C }
  - { offsetInCU: 0x21390, offset: 0x216FD, size: 0x8, addend: 0x0, symName: __ZNSt3__110unique_ptrIPNS_7variantIJN6events11MarketEventENS2_11SignalEventENS2_10OrderEventENS2_9FillEventEEEENS_22__allocator_destructorINS_9allocatorIS7_EEEEEC2B8ue170006ILb1EvEES8_NS_16__dependent_typeINS_27__unique_ptr_deleter_sfinaeISC_EEXT_EE20__good_rval_ref_typeE, symObjAddr: 0x5FD8, symBinAddr: 0x100008EE4, symSize: 0x48 }
  - { offsetInCU: 0x213E0, offset: 0x2174D, size: 0x8, addend: 0x0, symName: __ZNSt3__117__compressed_pairIPNS_7variantIJN6events11MarketEventENS2_11SignalEventENS2_10OrderEventENS2_9FillEventEEEENS_22__allocator_destructorINS_9allocatorIS7_EEEEEC1B8ue170006IRS8_SC_EEOT_OT0_, symObjAddr: 0x6020, symBinAddr: 0x100008F2C, symSize: 0x3C }
  - { offsetInCU: 0x21437, offset: 0x217A4, size: 0x8, addend: 0x0, symName: __ZNSt3__117__compressed_pairIPNS_7variantIJN6events11MarketEventENS2_11SignalEventENS2_10OrderEventENS2_9FillEventEEEENS_22__allocator_destructorINS_9allocatorIS7_EEEEEC2B8ue170006IRS8_SC_EEOT_OT0_, symObjAddr: 0x605C, symBinAddr: 0x100008F68, symSize: 0x48 }
  - { offsetInCU: 0x2148E, offset: 0x217FB, size: 0x8, addend: 0x0, symName: __ZNSt3__122__compressed_pair_elemIPNS_7variantIJN6events11MarketEventENS2_11SignalEventENS2_10OrderEventENS2_9FillEventEEEELi0ELb0EEC2B8ue170006IRS8_vEEOT_, symObjAddr: 0x60A4, symBinAddr: 0x100008FB0, symSize: 0x24 }
  - { offsetInCU: 0x214CF, offset: 0x2183C, size: 0x8, addend: 0x0, symName: __ZNSt3__122__compressed_pair_elemINS_22__allocator_destructorINS_9allocatorINS_7variantIJN6events11MarketEventENS4_11SignalEventENS4_10OrderEventENS4_9FillEventEEEEEEEELi1ELb0EEC2B8ue170006ISB_vEEOT_, symObjAddr: 0x60C8, symBinAddr: 0x100008FD4, symSize: 0x24 }
  - { offsetInCU: 0x21510, offset: 0x2187D, size: 0x8, addend: 0x0, symName: __ZNKSt3__117__compressed_pairIPNS_7variantIJN6events11MarketEventENS2_11SignalEventENS2_10OrderEventENS2_9FillEventEEEENS_22__allocator_destructorINS_9allocatorIS7_EEEEE5firstB8ue170006Ev, symObjAddr: 0x60EC, symBinAddr: 0x100008FF8, symSize: 0x24 }
  - { offsetInCU: 0x21535, offset: 0x218A2, size: 0x8, addend: 0x0, symName: __ZNKSt3__122__compressed_pair_elemIPNS_7variantIJN6events11MarketEventENS2_11SignalEventENS2_10OrderEventENS2_9FillEventEEEELi0ELb0EE5__getB8ue170006Ev, symObjAddr: 0x6110, symBinAddr: 0x10000901C, symSize: 0x14 }
  - { offsetInCU: 0x2155A, offset: 0x218C7, size: 0x8, addend: 0x0, symName: __ZNSt3__117__compressed_pairIPNS_7variantIJN6events11MarketEventENS2_11SignalEventENS2_10OrderEventENS2_9FillEventEEEENS_22__allocator_destructorINS_9allocatorIS7_EEEEE5firstB8ue170006Ev, symObjAddr: 0x6124, symBinAddr: 0x100009030, symSize: 0x24 }
  - { offsetInCU: 0x2157F, offset: 0x218EC, size: 0x8, addend: 0x0, symName: __ZNSt3__122__compressed_pair_elemIPNS_7variantIJN6events11MarketEventENS2_11SignalEventENS2_10OrderEventENS2_9FillEventEEEELi0ELb0EE5__getB8ue170006Ev, symObjAddr: 0x6148, symBinAddr: 0x100009054, symSize: 0x14 }
  - { offsetInCU: 0x215A4, offset: 0x21911, size: 0x8, addend: 0x0, symName: __ZNSt3__117__compressed_pairIPPNS_7variantIJN6events11MarketEventENS2_11SignalEventENS2_10OrderEventENS2_9FillEventEEEENS_9allocatorIS8_EEE5firstB8ue170006Ev, symObjAddr: 0x615C, symBinAddr: 0x100009068, symSize: 0x24 }
  - { offsetInCU: 0x215C9, offset: 0x21936, size: 0x8, addend: 0x0, symName: __ZNSt3__122__compressed_pair_elemIPPNS_7variantIJN6events11MarketEventENS2_11SignalEventENS2_10OrderEventENS2_9FillEventEEEELi0ELb0EE5__getB8ue170006Ev, symObjAddr: 0x6180, symBinAddr: 0x10000908C, symSize: 0x14 }
  - { offsetInCU: 0x215EE, offset: 0x2195B, size: 0x8, addend: 0x0, symName: __ZNSt3__117__compressed_pairIPPNS_7variantIJN6events11MarketEventENS2_11SignalEventENS2_10OrderEventENS2_9FillEventEEEERNS_9allocatorIS8_EEE5firstB8ue170006Ev, symObjAddr: 0x6194, symBinAddr: 0x1000090A0, symSize: 0x24 }
  - { offsetInCU: 0x21613, offset: 0x21980, size: 0x8, addend: 0x0, symName: __ZNSt3__110unique_ptrIPNS_7variantIJN6events11MarketEventENS2_11SignalEventENS2_10OrderEventENS2_9FillEventEEEENS_22__allocator_destructorINS_9allocatorIS7_EEEEED2B8ue170006Ev, symObjAddr: 0x61B8, symBinAddr: 0x1000090C4, symSize: 0x30 }
  - { offsetInCU: 0x2163C, offset: 0x219A9, size: 0x8, addend: 0x0, symName: __ZNSt3__110unique_ptrIPNS_7variantIJN6events11MarketEventENS2_11SignalEventENS2_10OrderEventENS2_9FillEventEEEENS_22__allocator_destructorINS_9allocatorIS7_EEEEE5resetB8ue170006ES8_, symObjAddr: 0x61E8, symBinAddr: 0x1000090F4, symSize: 0x78 }
  - { offsetInCU: 0x2167F, offset: 0x219EC, size: 0x8, addend: 0x0, symName: __ZNSt3__117__compressed_pairIPNS_7variantIJN6events11MarketEventENS2_11SignalEventENS2_10OrderEventENS2_9FillEventEEEENS_22__allocator_destructorINS_9allocatorIS7_EEEEE6secondB8ue170006Ev, symObjAddr: 0x6260, symBinAddr: 0x10000916C, symSize: 0x28 }
  - { offsetInCU: 0x216A4, offset: 0x21A11, size: 0x8, addend: 0x0, symName: __ZNSt3__122__allocator_destructorINS_9allocatorINS_7variantIJN6events11MarketEventENS3_11SignalEventENS3_10OrderEventENS3_9FillEventEEEEEEEclB8ue170006EPS8_, symObjAddr: 0x6288, symBinAddr: 0x100009194, symSize: 0x34 }
  - { offsetInCU: 0x216D7, offset: 0x21A44, size: 0x8, addend: 0x0, symName: __ZNSt3__122__compressed_pair_elemINS_22__allocator_destructorINS_9allocatorINS_7variantIJN6events11MarketEventENS4_11SignalEventENS4_10OrderEventENS4_9FillEventEEEEEEEELi1ELb0EE5__getB8ue170006Ev, symObjAddr: 0x62BC, symBinAddr: 0x1000091C8, symSize: 0x14 }
  - { offsetInCU: 0x216FC, offset: 0x21A69, size: 0x8, addend: 0x0, symName: __ZNSt3__116allocator_traitsINS_9allocatorINS_7variantIJN6events11MarketEventENS3_11SignalEventENS3_10OrderEventENS3_9FillEventEEEEEEE10deallocateB8ue170006ERS9_PS8_m, symObjAddr: 0x62D0, symBinAddr: 0x1000091DC, symSize: 0x34 }
  - { offsetInCU: 0x2173E, offset: 0x21AAB, size: 0x8, addend: 0x0, symName: __ZNSt3__19allocatorINS_7variantIJN6events11MarketEventENS2_11SignalEventENS2_10OrderEventENS2_9FillEventEEEEE10deallocateB8ue170006EPS7_m, symObjAddr: 0x6304, symBinAddr: 0x100009210, symSize: 0x44 }
  - { offsetInCU: 0x2177F, offset: 0x21AEC, size: 0x8, addend: 0x0, symName: __ZNSt3__114__split_bufferIPNS_7variantIJN6events11MarketEventENS2_11SignalEventENS2_10OrderEventENS2_9FillEventEEEERNS_9allocatorIS8_EEED2Ev, symObjAddr: 0x6348, symBinAddr: 0x100009254, symSize: 0x8C }
  - { offsetInCU: 0x217AA, offset: 0x21B17, size: 0x8, addend: 0x0, symName: __ZNSt3__114__split_bufferIPNS_7variantIJN6events11MarketEventENS2_11SignalEventENS2_10OrderEventENS2_9FillEventEEEERNS_9allocatorIS8_EEE5clearB8ue170006Ev, symObjAddr: 0x63D4, symBinAddr: 0x1000092E0, symSize: 0x28 }
  - { offsetInCU: 0x217CF, offset: 0x21B3C, size: 0x8, addend: 0x0, symName: __ZNSt3__116allocator_traitsINS_9allocatorIPNS_7variantIJN6events11MarketEventENS3_11SignalEventENS3_10OrderEventENS3_9FillEventEEEEEEE10deallocateB8ue170006ERSA_PS9_m, symObjAddr: 0x63FC, symBinAddr: 0x100009308, symSize: 0x34 }
  - { offsetInCU: 0x21811, offset: 0x21B7E, size: 0x8, addend: 0x0, symName: __ZNKSt3__114__split_bufferIPNS_7variantIJN6events11MarketEventENS2_11SignalEventENS2_10OrderEventENS2_9FillEventEEEERNS_9allocatorIS8_EEE8capacityB8ue170006Ev, symObjAddr: 0x6430, symBinAddr: 0x10000933C, symSize: 0x40 }
  - { offsetInCU: 0x21836, offset: 0x21BA3, size: 0x8, addend: 0x0, symName: __ZNSt3__114__split_bufferIPNS_7variantIJN6events11MarketEventENS2_11SignalEventENS2_10OrderEventENS2_9FillEventEEEERNS_9allocatorIS8_EEE17__destruct_at_endB8ue170006EPS8_, symObjAddr: 0x6470, symBinAddr: 0x10000937C, symSize: 0x2C }
  - { offsetInCU: 0x21869, offset: 0x21BD6, size: 0x8, addend: 0x0, symName: __ZNSt3__114__split_bufferIPNS_7variantIJN6events11MarketEventENS2_11SignalEventENS2_10OrderEventENS2_9FillEventEEEERNS_9allocatorIS8_EEE17__destruct_at_endB8ue170006EPS8_NS_17integral_constantIbLb0EEE, symObjAddr: 0x649C, symBinAddr: 0x1000093A8, symSize: 0x80 }
  - { offsetInCU: 0x218A8, offset: 0x21C15, size: 0x8, addend: 0x0, symName: __ZNSt3__116allocator_traitsINS_9allocatorIPNS_7variantIJN6events11MarketEventENS3_11SignalEventENS3_10OrderEventENS3_9FillEventEEEEEEE7destroyB8ue170006IS9_vEEvRSA_PT_, symObjAddr: 0x651C, symBinAddr: 0x100009428, symSize: 0x2C }
  - { offsetInCU: 0x218E5, offset: 0x21C52, size: 0x8, addend: 0x0, symName: __ZNSt3__19allocatorIPNS_7variantIJN6events11MarketEventENS2_11SignalEventENS2_10OrderEventENS2_9FillEventEEEEE7destroyB8ue170006EPS8_, symObjAddr: 0x6548, symBinAddr: 0x100009454, symSize: 0x14 }
  - { offsetInCU: 0x21918, offset: 0x21C85, size: 0x8, addend: 0x0, symName: __ZNSt3__19allocatorIPNS_7variantIJN6events11MarketEventENS2_11SignalEventENS2_10OrderEventENS2_9FillEventEEEEE10deallocateB8ue170006EPS8_m, symObjAddr: 0x655C, symBinAddr: 0x100009468, symSize: 0x40 }
  - { offsetInCU: 0x21959, offset: 0x21CC6, size: 0x8, addend: 0x0, symName: __ZNKSt3__114__split_bufferIPNS_7variantIJN6events11MarketEventENS2_11SignalEventENS2_10OrderEventENS2_9FillEventEEEERNS_9allocatorIS8_EEE9__end_capB8ue170006Ev, symObjAddr: 0x659C, symBinAddr: 0x1000094A8, symSize: 0x28 }
  - { offsetInCU: 0x2197E, offset: 0x21CEB, size: 0x8, addend: 0x0, symName: __ZNKSt3__117__compressed_pairIPPNS_7variantIJN6events11MarketEventENS2_11SignalEventENS2_10OrderEventENS2_9FillEventEEEERNS_9allocatorIS8_EEE5firstB8ue170006Ev, symObjAddr: 0x65C4, symBinAddr: 0x1000094D0, symSize: 0x24 }
  - { offsetInCU: 0x219A3, offset: 0x21D10, size: 0x8, addend: 0x0, symName: __ZNSt3__19allocatorINS_7variantIJN6events11MarketEventENS2_11SignalEventENS2_10OrderEventENS2_9FillEventEEEEE9constructB8ue170006IS7_JS7_EEEvPT_DpOT0_, symObjAddr: 0x65E8, symBinAddr: 0x1000094F4, symSize: 0x34 }
  - { offsetInCU: 0x219F8, offset: 0x21D65, size: 0x8, addend: 0x0, symName: __ZNKSt3__114__split_bufferIPNS_7variantIJN6events11MarketEventENS2_11SignalEventENS2_10OrderEventENS2_9FillEventEEEENS_9allocatorIS8_EEE5emptyB8ue170006Ev, symObjAddr: 0x661C, symBinAddr: 0x100009528, symSize: 0x28 }
  - { offsetInCU: 0x21A1D, offset: 0x21D8A, size: 0x8, addend: 0x0, symName: __ZNSt3__116__deque_iteratorINS_7variantIJN6events11MarketEventENS2_11SignalEventENS2_10OrderEventENS2_9FillEventEEEEPS7_RS7_PS8_lLl39EEC1B8ue170006ESA_S8_, symObjAddr: 0x6644, symBinAddr: 0x100009550, symSize: 0x3C }
  - { offsetInCU: 0x21A64, offset: 0x21DD1, size: 0x8, addend: 0x0, symName: __ZNSt3__116__deque_iteratorINS_7variantIJN6events11MarketEventENS2_11SignalEventENS2_10OrderEventENS2_9FillEventEEEEPS7_RS7_PS8_lLl39EEC2B8ue170006ESA_S8_, symObjAddr: 0x6680, symBinAddr: 0x10000958C, symSize: 0x2C }
  - { offsetInCU: 0x21AAB, offset: 0x21E18, size: 0x8, addend: 0x0, symName: __ZNSt3__117__compressed_pairImNS_9allocatorINS_7variantIJN6events11MarketEventENS3_11SignalEventENS3_10OrderEventENS3_9FillEventEEEEEEE5firstB8ue170006Ev, symObjAddr: 0x66AC, symBinAddr: 0x1000095B8, symSize: 0x24 }
  - { offsetInCU: 0x21AD0, offset: 0x21E3D, size: 0x8, addend: 0x0, symName: __ZNSt3__122__compressed_pair_elemImLi0ELb0EE5__getB8ue170006Ev, symObjAddr: 0x66D0, symBinAddr: 0x1000095DC, symSize: 0x14 }
  - { offsetInCU: 0x21AF5, offset: 0x21E62, size: 0x8, addend: 0x0, symName: __ZNSt3__17variantIJN6events11MarketEventENS1_11SignalEventENS1_10OrderEventENS1_9FillEventEEEC2B8ue170006IS2_Li0ELi0ELi0ES2_Lm0ELi0EEEOT_, symObjAddr: 0x66E4, symBinAddr: 0x1000095F0, symSize: 0x3C }
  - { offsetInCU: 0x21B61, offset: 0x21ECE, size: 0x8, addend: 0x0, symName: __ZNSt3__116__variant_detail6__implIJN6events11MarketEventENS2_11SignalEventENS2_10OrderEventENS2_9FillEventEEECI1NS0_6__baseILNS0_6_TraitE0EJS3_S4_S5_S6_EEEILm0EJS3_EEENS_16in_place_index_tIXT_EEEDpOT0_, symObjAddr: 0x6720, symBinAddr: 0x10000962C, symSize: 0x34 }
  - { offsetInCU: 0x21B9F, offset: 0x21F0C, size: 0x8, addend: 0x0, symName: __ZNSt3__116__variant_detail6__implIJN6events11MarketEventENS2_11SignalEventENS2_10OrderEventENS2_9FillEventEEECI2NS0_6__baseILNS0_6_TraitE0EJS3_S4_S5_S6_EEEILm0EJS3_EEENS_16in_place_index_tIXT_EEEDpOT0_, symObjAddr: 0x6754, symBinAddr: 0x100009660, symSize: 0x34 }
  - { offsetInCU: 0x21BDD, offset: 0x21F4A, size: 0x8, addend: 0x0, symName: __ZNSt3__116__variant_detail17__copy_assignmentINS0_8__traitsIJN6events11MarketEventENS3_11SignalEventENS3_10OrderEventENS3_9FillEventEEEELNS0_6_TraitE0EECI2NS0_6__baseILS9_0EJS4_S5_S6_S7_EEEILm0EJS4_EEENS_16in_place_index_tIXT_EEEDpOT0_, symObjAddr: 0x6788, symBinAddr: 0x100009694, symSize: 0x34 }
  - { offsetInCU: 0x21C1B, offset: 0x21F88, size: 0x8, addend: 0x0, symName: __ZNSt3__116__variant_detail17__move_assignmentINS0_8__traitsIJN6events11MarketEventENS3_11SignalEventENS3_10OrderEventENS3_9FillEventEEEELNS0_6_TraitE0EECI2NS0_6__baseILS9_0EJS4_S5_S6_S7_EEEILm0EJS4_EEENS_16in_place_index_tIXT_EEEDpOT0_, symObjAddr: 0x67BC, symBinAddr: 0x1000096C8, symSize: 0x34 }
  - { offsetInCU: 0x21C5E, offset: 0x21FCB, size: 0x8, addend: 0x0, symName: __ZNSt3__116__variant_detail12__assignmentINS0_8__traitsIJN6events11MarketEventENS3_11SignalEventENS3_10OrderEventENS3_9FillEventEEEEECI2NS0_6__baseILNS0_6_TraitE0EJS4_S5_S6_S7_EEEILm0EJS4_EEENS_16in_place_index_tIXT_EEEDpOT0_, symObjAddr: 0x67F0, symBinAddr: 0x1000096FC, symSize: 0x34 }
  - { offsetInCU: 0x21C9C, offset: 0x22009, size: 0x8, addend: 0x0, symName: __ZNSt3__116__variant_detail18__copy_constructorINS0_8__traitsIJN6events11MarketEventENS3_11SignalEventENS3_10OrderEventENS3_9FillEventEEEELNS0_6_TraitE0EECI2NS0_6__baseILS9_0EJS4_S5_S6_S7_EEEILm0EJS4_EEENS_16in_place_index_tIXT_EEEDpOT0_, symObjAddr: 0x6824, symBinAddr: 0x100009730, symSize: 0x34 }
  - { offsetInCU: 0x21CDA, offset: 0x22047, size: 0x8, addend: 0x0, symName: __ZNSt3__116__variant_detail18__move_constructorINS0_8__traitsIJN6events11MarketEventENS3_11SignalEventENS3_10OrderEventENS3_9FillEventEEEELNS0_6_TraitE0EECI2NS0_6__baseILS9_0EJS4_S5_S6_S7_EEEILm0EJS4_EEENS_16in_place_index_tIXT_EEEDpOT0_, symObjAddr: 0x6858, symBinAddr: 0x100009764, symSize: 0x34 }
  - { offsetInCU: 0x21D1D, offset: 0x2208A, size: 0x8, addend: 0x0, symName: __ZNSt3__116__variant_detail6__ctorINS0_8__traitsIJN6events11MarketEventENS3_11SignalEventENS3_10OrderEventENS3_9FillEventEEEEECI2NS0_6__baseILNS0_6_TraitE0EJS4_S5_S6_S7_EEEILm0EJS4_EEENS_16in_place_index_tIXT_EEEDpOT0_, symObjAddr: 0x688C, symBinAddr: 0x100009798, symSize: 0x34 }
  - { offsetInCU: 0x21D5B, offset: 0x220C8, size: 0x8, addend: 0x0, symName: __ZNSt3__116__variant_detail6__dtorINS0_8__traitsIJN6events11MarketEventENS3_11SignalEventENS3_10OrderEventENS3_9FillEventEEEELNS0_6_TraitE0EECI2NS0_6__baseILS9_0EJS4_S5_S6_S7_EEEILm0EJS4_EEENS_16in_place_index_tIXT_EEEDpOT0_, symObjAddr: 0x68C0, symBinAddr: 0x1000097CC, symSize: 0x34 }
  - { offsetInCU: 0x21D99, offset: 0x22106, size: 0x8, addend: 0x0, symName: __ZNSt3__116__variant_detail6__baseILNS0_6_TraitE0EJN6events11MarketEventENS3_11SignalEventENS3_10OrderEventENS3_9FillEventEEEC2B8ue170006ILm0EJS4_EEENS_16in_place_index_tIXT_EEEDpOT0_, symObjAddr: 0x68F4, symBinAddr: 0x100009800, symSize: 0x38 }
  - { offsetInCU: 0x21DF2, offset: 0x2215F, size: 0x8, addend: 0x0, symName: __ZNSt3__116__variant_detail7__unionILNS0_6_TraitE0ELm0EJN6events11MarketEventENS3_11SignalEventENS3_10OrderEventENS3_9FillEventEEEC1B8ue170006IJS4_EEENS_16in_place_index_tILm0EEEDpOT_, symObjAddr: 0x692C, symBinAddr: 0x100009838, symSize: 0x34 }
  - { offsetInCU: 0x21E41, offset: 0x221AE, size: 0x8, addend: 0x0, symName: __ZNSt3__116__variant_detail7__unionILNS0_6_TraitE0ELm0EJN6events11MarketEventENS3_11SignalEventENS3_10OrderEventENS3_9FillEventEEEC2B8ue170006IJS4_EEENS_16in_place_index_tILm0EEEDpOT_, symObjAddr: 0x6960, symBinAddr: 0x10000986C, symSize: 0x34 }
  - { offsetInCU: 0x21E95, offset: 0x22202, size: 0x8, addend: 0x0, symName: __ZNSt3__116__variant_detail5__altILm0EN6events11MarketEventEEC1B8ue170006IJS3_EEENS_10in_place_tEDpOT_, symObjAddr: 0x6994, symBinAddr: 0x1000098A0, symSize: 0x34 }
  - { offsetInCU: 0x21EE4, offset: 0x22251, size: 0x8, addend: 0x0, symName: __ZNSt3__116__variant_detail5__altILm0EN6events11MarketEventEEC2B8ue170006IJS3_EEENS_10in_place_tEDpOT_, symObjAddr: 0x69C8, symBinAddr: 0x1000098D4, symSize: 0x38 }
  - { offsetInCU: 0x21F33, offset: 0x222A0, size: 0x8, addend: 0x0, symName: __ZNK6events10Dispatcher5emptyEv, symObjAddr: 0x6A00, symBinAddr: 0x10000990C, symSize: 0x28 }
  - { offsetInCU: 0x21F58, offset: 0x222C5, size: 0x8, addend: 0x0, symName: __ZN6events10Dispatcher14dispatchSingleEv, symObjAddr: 0x6A28, symBinAddr: 0x100009934, symSize: 0xA4 }
  - { offsetInCU: 0x21FE0, offset: 0x2234D, size: 0x8, addend: 0x0, symName: __ZNSt3__15dequeINS_7variantIJN6events11MarketEventENS2_11SignalEventENS2_10OrderEventENS2_9FillEventEEEENS_9allocatorIS7_EEE5frontEv, symObjAddr: 0x6ACC, symBinAddr: 0x1000099D8, symSize: 0x58 }
  - { offsetInCU: 0x22007, offset: 0x22374, size: 0x8, addend: 0x0, symName: __ZNSt3__15dequeINS_7variantIJN6events11MarketEventENS2_11SignalEventENS2_10OrderEventENS2_9FillEventEEEENS_9allocatorIS7_EEE9pop_frontEv, symObjAddr: 0x6B24, symBinAddr: 0x100009A30, symSize: 0xDC }
  - { offsetInCU: 0x2205B, offset: 0x223C8, size: 0x8, addend: 0x0, symName: __ZNSt3__16vectorINS_8functionIFvRKNS_7variantIJN6events11MarketEventENS3_11SignalEventENS3_10OrderEventENS3_9FillEventEEEEEEENS_9allocatorISC_EEE5beginB8ue170006Ev, symObjAddr: 0x6C00, symBinAddr: 0x100009B0C, symSize: 0x30 }
  - { offsetInCU: 0x22082, offset: 0x223EF, size: 0x8, addend: 0x0, symName: __ZNSt3__16vectorINS_8functionIFvRKNS_7variantIJN6events11MarketEventENS3_11SignalEventENS3_10OrderEventENS3_9FillEventEEEEEEENS_9allocatorISC_EEE3endB8ue170006Ev, symObjAddr: 0x6C30, symBinAddr: 0x100009B3C, symSize: 0x30 }
  - { offsetInCU: 0x220A9, offset: 0x22416, size: 0x8, addend: 0x0, symName: __ZNKSt3__111__wrap_iterIPNS_8functionIFvRKNS_7variantIJN6events11MarketEventENS3_11SignalEventENS3_10OrderEventENS3_9FillEventEEEEEEEEdeB8ue170006Ev, symObjAddr: 0x6C94, symBinAddr: 0x100009BA0, symSize: 0x18 }
  - { offsetInCU: 0x220CE, offset: 0x2243B, size: 0x8, addend: 0x0, symName: __ZNKSt3__18functionIFvRKNS_7variantIJN6events11MarketEventENS2_11SignalEventENS2_10OrderEventENS2_9FillEventEEEEEEclES9_, symObjAddr: 0x6CAC, symBinAddr: 0x100009BB8, symSize: 0x2C }
  - { offsetInCU: 0x22104, offset: 0x22471, size: 0x8, addend: 0x0, symName: __ZNSt3__111__wrap_iterIPNS_8functionIFvRKNS_7variantIJN6events11MarketEventENS3_11SignalEventENS3_10OrderEventENS3_9FillEventEEEEEEEEppB8ue170006Ev, symObjAddr: 0x6CD8, symBinAddr: 0x100009BE4, symSize: 0x20 }
  - { offsetInCU: 0x22129, offset: 0x22496, size: 0x8, addend: 0x0, symName: __ZNSt3__116allocator_traitsINS_9allocatorINS_7variantIJN6events11MarketEventENS3_11SignalEventENS3_10OrderEventENS3_9FillEventEEEEEEE7destroyB8ue170006IS8_vEEvRS9_PT_, symObjAddr: 0x6CF8, symBinAddr: 0x100009C04, symSize: 0x2C }
  - { offsetInCU: 0x22166, offset: 0x224D3, size: 0x8, addend: 0x0, symName: __ZNKSt3__15dequeINS_7variantIJN6events11MarketEventENS2_11SignalEventENS2_10OrderEventENS2_9FillEventEEEENS_9allocatorIS7_EEE23__annotate_shrink_frontB8ue170006Emm, symObjAddr: 0x6D24, symBinAddr: 0x100009C30, symSize: 0x70 }
  - { offsetInCU: 0x221A9, offset: 0x22516, size: 0x8, addend: 0x0, symName: __ZNSt3__15dequeINS_7variantIJN6events11MarketEventENS2_11SignalEventENS2_10OrderEventENS2_9FillEventEEEENS_9allocatorIS7_EEE26__maybe_remove_front_spareB8ue170006Eb, symObjAddr: 0x6D94, symBinAddr: 0x100009CA0, symSize: 0xEC }
  - { offsetInCU: 0x221DD, offset: 0x2254A, size: 0x8, addend: 0x0, symName: __ZNSt3__19allocatorINS_7variantIJN6events11MarketEventENS2_11SignalEventENS2_10OrderEventENS2_9FillEventEEEEE7destroyB8ue170006EPS7_, symObjAddr: 0x6E80, symBinAddr: 0x100009D8C, symSize: 0x14 }
  - { offsetInCU: 0x22210, offset: 0x2257D, size: 0x8, addend: 0x0, symName: __ZNKSt3__15dequeINS_7variantIJN6events11MarketEventENS2_11SignalEventENS2_10OrderEventENS2_9FillEventEEEENS_9allocatorIS7_EEE20__front_spare_blocksB8ue170006Ev, symObjAddr: 0x6E94, symBinAddr: 0x100009DA0, symSize: 0x2C }
  - { offsetInCU: 0x22235, offset: 0x225A2, size: 0x8, addend: 0x0, symName: __ZNSt3__16vectorINS_8functionIFvRKNS_7variantIJN6events11MarketEventENS3_11SignalEventENS3_10OrderEventENS3_9FillEventEEEEEEENS_9allocatorISC_EEE11__make_iterB8ue170006EPSC_, symObjAddr: 0x6EC0, symBinAddr: 0x100009DCC, symSize: 0x30 }
  - { offsetInCU: 0x22269, offset: 0x225D6, size: 0x8, addend: 0x0, symName: __ZNSt3__111__wrap_iterIPNS_8functionIFvRKNS_7variantIJN6events11MarketEventENS3_11SignalEventENS3_10OrderEventENS3_9FillEventEEEEEEEEC1B8ue170006ESD_, symObjAddr: 0x6EF0, symBinAddr: 0x100009DFC, symSize: 0x34 }
  - { offsetInCU: 0x222A0, offset: 0x2260D, size: 0x8, addend: 0x0, symName: __ZNSt3__111__wrap_iterIPNS_8functionIFvRKNS_7variantIJN6events11MarketEventENS3_11SignalEventENS3_10OrderEventENS3_9FillEventEEEEEEEEC2B8ue170006ESD_, symObjAddr: 0x6F24, symBinAddr: 0x100009E30, symSize: 0x20 }
  - { offsetInCU: 0x222D7, offset: 0x22644, size: 0x8, addend: 0x0, symName: __ZNKSt3__111__wrap_iterIPNS_8functionIFvRKNS_7variantIJN6events11MarketEventENS3_11SignalEventENS3_10OrderEventENS3_9FillEventEEEEEEEE4baseB8ue170006Ev, symObjAddr: 0x6F8C, symBinAddr: 0x100009E98, symSize: 0x18 }
  - { offsetInCU: 0x222FC, offset: 0x22669, size: 0x8, addend: 0x0, symName: __ZNKSt3__110__function12__value_funcIFvRKNS_7variantIJN6events11MarketEventENS3_11SignalEventENS3_10OrderEventENS3_9FillEventEEEEEEclB8ue170006ESA_, symObjAddr: 0x6FA4, symBinAddr: 0x100009EB0, symSize: 0x58 }
  - { offsetInCU: 0x22335, offset: 0x226A2, size: 0x8, addend: 0x0, symName: __ZNSt3__117bad_function_callC1Ev, symObjAddr: 0x7034, symBinAddr: 0x100009F40, symSize: 0x2C }
  - { offsetInCU: 0x22360, offset: 0x226CD, size: 0x8, addend: 0x0, symName: __ZNSt3__117bad_function_callD1Ev, symObjAddr: 0x7060, symBinAddr: 0x100009F6C, symSize: 0x2C }
  - { offsetInCU: 0x22389, offset: 0x226F6, size: 0x8, addend: 0x0, symName: __ZNSt3__117bad_function_callC2Ev, symObjAddr: 0x708C, symBinAddr: 0x100009F98, symSize: 0x44 }
  - { offsetInCU: 0x223B4, offset: 0x22721, size: 0x8, addend: 0x0, symName: __ZNSt9exceptionC2B8ue170006Ev, symObjAddr: 0x70D0, symBinAddr: 0x100009FDC, symSize: 0x24 }
  - { offsetInCU: 0x223DD, offset: 0x2274A, size: 0x8, addend: 0x0, symName: __ZNSt3__117bad_function_callD0Ev, symObjAddr: 0x70F4, symBinAddr: 0x10000A000, symSize: 0x30 }
  - { offsetInCU: 0x22406, offset: 0x22773, size: 0x8, addend: 0x0, symName: __ZNSt3__117bad_function_callD2Ev, symObjAddr: 0x7124, symBinAddr: 0x10000A030, symSize: 0x2C }
  - { offsetInCU: 0x2242F, offset: 0x2279C, size: 0x8, addend: 0x0, symName: __ZN6events10DispatcherD2Ev, symObjAddr: 0x7150, symBinAddr: 0x10000A05C, symSize: 0x38 }
  - { offsetInCU: 0x2245A, offset: 0x227C7, size: 0x8, addend: 0x0, symName: __ZNSt3__16vectorINS_8functionIFvRKNS_7variantIJN6events11MarketEventENS3_11SignalEventENS3_10OrderEventENS3_9FillEventEEEEEEENS_9allocatorISC_EEED1B8ue170006Ev, symObjAddr: 0x7188, symBinAddr: 0x10000A094, symSize: 0x2C }
  - { offsetInCU: 0x22483, offset: 0x227F0, size: 0x8, addend: 0x0, symName: __ZNSt3__15dequeINS_7variantIJN6events11MarketEventENS2_11SignalEventENS2_10OrderEventENS2_9FillEventEEEENS_9allocatorIS7_EEED1B8ue170006Ev, symObjAddr: 0x71B4, symBinAddr: 0x10000A0C0, symSize: 0x2C }
  - { offsetInCU: 0x224AC, offset: 0x22819, size: 0x8, addend: 0x0, symName: __ZNSt3__16vectorINS_8functionIFvRKNS_7variantIJN6events11MarketEventENS3_11SignalEventENS3_10OrderEventENS3_9FillEventEEEEEEENS_9allocatorISC_EEED2B8ue170006Ev, symObjAddr: 0x71E0, symBinAddr: 0x10000A0EC, symSize: 0x44 }
  - { offsetInCU: 0x224D5, offset: 0x22842, size: 0x8, addend: 0x0, symName: __ZNSt3__16vectorINS_8functionIFvRKNS_7variantIJN6events11MarketEventENS3_11SignalEventENS3_10OrderEventENS3_9FillEventEEEEEEENS_9allocatorISC_EEE16__destroy_vectorC1B8ue170006ERSF_, symObjAddr: 0x7224, symBinAddr: 0x10000A130, symSize: 0x34 }
  - { offsetInCU: 0x2250D, offset: 0x2287A, size: 0x8, addend: 0x0, symName: __ZNSt3__16vectorINS_8functionIFvRKNS_7variantIJN6events11MarketEventENS3_11SignalEventENS3_10OrderEventENS3_9FillEventEEEEEEENS_9allocatorISC_EEE16__destroy_vectorclB8ue170006Ev, symObjAddr: 0x7258, symBinAddr: 0x10000A164, symSize: 0x90 }
  - { offsetInCU: 0x22532, offset: 0x2289F, size: 0x8, addend: 0x0, symName: __ZNSt3__16vectorINS_8functionIFvRKNS_7variantIJN6events11MarketEventENS3_11SignalEventENS3_10OrderEventENS3_9FillEventEEEEEEENS_9allocatorISC_EEE16__destroy_vectorC2B8ue170006ERSF_, symObjAddr: 0x72E8, symBinAddr: 0x10000A1F4, symSize: 0x20 }
  - { offsetInCU: 0x2256A, offset: 0x228D7, size: 0x8, addend: 0x0, symName: __ZNSt3__16vectorINS_8functionIFvRKNS_7variantIJN6events11MarketEventENS3_11SignalEventENS3_10OrderEventENS3_9FillEventEEEEEEENS_9allocatorISC_EEE7__clearB8ue170006Ev, symObjAddr: 0x7308, symBinAddr: 0x10000A214, symSize: 0x28 }
  - { offsetInCU: 0x2258F, offset: 0x228FC, size: 0x8, addend: 0x0, symName: __ZNSt3__16vectorINS_8functionIFvRKNS_7variantIJN6events11MarketEventENS3_11SignalEventENS3_10OrderEventENS3_9FillEventEEEEEEENS_9allocatorISC_EEE22__base_destruct_at_endB8ue170006EPSC_, symObjAddr: 0x7330, symBinAddr: 0x10000A23C, symSize: 0x8C }
  - { offsetInCU: 0x225D2, offset: 0x2293F, size: 0x8, addend: 0x0, symName: __ZNSt3__15dequeINS_7variantIJN6events11MarketEventENS2_11SignalEventENS2_10OrderEventENS2_9FillEventEEEENS_9allocatorIS7_EEED2B8ue170006Ev, symObjAddr: 0x73BC, symBinAddr: 0x10000A2C8, symSize: 0xA4 }
  - { offsetInCU: 0x22628, offset: 0x22995, size: 0x8, addend: 0x0, symName: __ZNSt3__15dequeINS_7variantIJN6events11MarketEventENS2_11SignalEventENS2_10OrderEventENS2_9FillEventEEEENS_9allocatorIS7_EEE5clearEv, symObjAddr: 0x7460, symBinAddr: 0x10000A36C, symSize: 0x170 }
  - { offsetInCU: 0x22682, offset: 0x229EF, size: 0x8, addend: 0x0, symName: __ZNKSt3__15dequeINS_7variantIJN6events11MarketEventENS2_11SignalEventENS2_10OrderEventENS2_9FillEventEEEENS_9allocatorIS7_EEE17__annotate_deleteB8ue170006Ev, symObjAddr: 0x75D0, symBinAddr: 0x10000A4DC, symSize: 0xEC }
  - { offsetInCU: 0x226C5, offset: 0x22A32, size: 0x8, addend: 0x0, symName: __ZNSt3__114__split_bufferIPNS_7variantIJN6events11MarketEventENS2_11SignalEventENS2_10OrderEventENS2_9FillEventEEEENS_9allocatorIS8_EEED1Ev, symObjAddr: 0x76BC, symBinAddr: 0x10000A5C8, symSize: 0x2C }
  - { offsetInCU: 0x226F0, offset: 0x22A5D, size: 0x8, addend: 0x0, symName: __ZNSt3__15dequeINS_7variantIJN6events11MarketEventENS2_11SignalEventENS2_10OrderEventENS2_9FillEventEEEENS_9allocatorIS7_EEE5beginB8ue170006Ev, symObjAddr: 0x76E8, symBinAddr: 0x10000A5F4, symSize: 0xB0 }
  - { offsetInCU: 0x22724, offset: 0x22A91, size: 0x8, addend: 0x0, symName: __ZNSt3__116__deque_iteratorINS_7variantIJN6events11MarketEventENS2_11SignalEventENS2_10OrderEventENS2_9FillEventEEEEPS7_RS7_PS8_lLl39EEppB8ue170006Ev, symObjAddr: 0x77CC, symBinAddr: 0x10000A6D8, symSize: 0x70 }
  - { offsetInCU: 0x22749, offset: 0x22AB6, size: 0x8, addend: 0x0, symName: __ZNSt3__114__split_bufferIPNS_7variantIJN6events11MarketEventENS2_11SignalEventENS2_10OrderEventENS2_9FillEventEEEENS_9allocatorIS8_EEED2Ev, symObjAddr: 0x786C, symBinAddr: 0x10000A778, symSize: 0x80 }
  - { offsetInCU: 0x22774, offset: 0x22AE1, size: 0x8, addend: 0x0, symName: __ZNSt3__114__split_bufferIPNS_7variantIJN6events11MarketEventENS2_11SignalEventENS2_10OrderEventENS2_9FillEventEEEENS_9allocatorIS8_EEE5clearB8ue170006Ev, symObjAddr: 0x78EC, symBinAddr: 0x10000A7F8, symSize: 0x28 }
  - { offsetInCU: 0x22799, offset: 0x22B06, size: 0x8, addend: 0x0, symName: __ZNSt3__114__split_bufferIPNS_7variantIJN6events11MarketEventENS2_11SignalEventENS2_10OrderEventENS2_9FillEventEEEENS_9allocatorIS8_EEE17__destruct_at_endB8ue170006EPS8_, symObjAddr: 0x7914, symBinAddr: 0x10000A820, symSize: 0x2C }
  - { offsetInCU: 0x227CC, offset: 0x22B39, size: 0x8, addend: 0x0, symName: __ZNSt3__114__split_bufferIPNS_7variantIJN6events11MarketEventENS2_11SignalEventENS2_10OrderEventENS2_9FillEventEEEENS_9allocatorIS8_EEE17__destruct_at_endB8ue170006EPS8_NS_17integral_constantIbLb0EEE, symObjAddr: 0x7940, symBinAddr: 0x10000A84C, symSize: 0x80 }
  - { offsetInCU: 0x2280B, offset: 0x22B78, size: 0x8, addend: 0x0, symName: __ZN3trd6ResultD2Ev, symObjAddr: 0x79C0, symBinAddr: 0x10000A8CC, symSize: 0x38 }
  - { offsetInCU: 0x22836, offset: 0x22BA3, size: 0x8, addend: 0x0, symName: __ZNSt3__16vectorIN3trd5TradeENS_9allocatorIS2_EEED1B8ue170006Ev, symObjAddr: 0x79F8, symBinAddr: 0x10000A904, symSize: 0x2C }
  - { offsetInCU: 0x2285F, offset: 0x22BCC, size: 0x8, addend: 0x0, symName: __ZNSt3__16vectorIdNS_9allocatorIdEEED1B8ue170006Ev, symObjAddr: 0x7A24, symBinAddr: 0x10000A930, symSize: 0x2C }
  - { offsetInCU: 0x22888, offset: 0x22BF5, size: 0x8, addend: 0x0, symName: __ZNSt3__16vectorIN3trd5TradeENS_9allocatorIS2_EEED2B8ue170006Ev, symObjAddr: 0x7A50, symBinAddr: 0x10000A95C, symSize: 0x44 }
  - { offsetInCU: 0x228B1, offset: 0x22C1E, size: 0x8, addend: 0x0, symName: __ZNSt3__16vectorIN3trd5TradeENS_9allocatorIS2_EEE16__destroy_vectorC1B8ue170006ERS5_, symObjAddr: 0x7A94, symBinAddr: 0x10000A9A0, symSize: 0x34 }
  - { offsetInCU: 0x228E9, offset: 0x22C56, size: 0x8, addend: 0x0, symName: __ZNSt3__16vectorIN3trd5TradeENS_9allocatorIS2_EEE16__destroy_vectorclB8ue170006Ev, symObjAddr: 0x7AC8, symBinAddr: 0x10000A9D4, symSize: 0x90 }
  - { offsetInCU: 0x2290E, offset: 0x22C7B, size: 0x8, addend: 0x0, symName: __ZNSt3__16vectorIN3trd5TradeENS_9allocatorIS2_EEE16__destroy_vectorC2B8ue170006ERS5_, symObjAddr: 0x7B58, symBinAddr: 0x10000AA64, symSize: 0x20 }
  - { offsetInCU: 0x22946, offset: 0x22CB3, size: 0x8, addend: 0x0, symName: __ZNSt3__16vectorIN3trd5TradeENS_9allocatorIS2_EEE7__clearB8ue170006Ev, symObjAddr: 0x7B78, symBinAddr: 0x10000AA84, symSize: 0x28 }
  - { offsetInCU: 0x2296B, offset: 0x22CD8, size: 0x8, addend: 0x0, symName: __ZNKSt3__16vectorIN3trd5TradeENS_9allocatorIS2_EEE17__annotate_deleteB8ue170006Ev, symObjAddr: 0x7BA0, symBinAddr: 0x10000AAAC, symSize: 0xB8 }
  - { offsetInCU: 0x22990, offset: 0x22CFD, size: 0x8, addend: 0x0, symName: __ZNSt3__116allocator_traitsINS_9allocatorIN3trd5TradeEEEE10deallocateB8ue170006ERS4_PS3_m, symObjAddr: 0x7C58, symBinAddr: 0x10000AB64, symSize: 0x34 }
  - { offsetInCU: 0x229D2, offset: 0x22D3F, size: 0x8, addend: 0x0, symName: __ZNSt3__16vectorIN3trd5TradeENS_9allocatorIS2_EEE7__allocB8ue170006Ev, symObjAddr: 0x7C8C, symBinAddr: 0x10000AB98, symSize: 0x28 }
  - { offsetInCU: 0x229F7, offset: 0x22D64, size: 0x8, addend: 0x0, symName: __ZNKSt3__16vectorIN3trd5TradeENS_9allocatorIS2_EEE8capacityB8ue170006Ev, symObjAddr: 0x7CB4, symBinAddr: 0x10000ABC0, symSize: 0x40 }
  - { offsetInCU: 0x22A1C, offset: 0x22D89, size: 0x8, addend: 0x0, symName: __ZNSt3__16vectorIN3trd5TradeENS_9allocatorIS2_EEE22__base_destruct_at_endB8ue170006EPS2_, symObjAddr: 0x7CF4, symBinAddr: 0x10000AC00, symSize: 0x8C }
  - { offsetInCU: 0x22A5F, offset: 0x22DCC, size: 0x8, addend: 0x0, symName: __ZNSt3__116allocator_traitsINS_9allocatorIN3trd5TradeEEEE7destroyB8ue170006IS3_vEEvRS4_PT_, symObjAddr: 0x7D80, symBinAddr: 0x10000AC8C, symSize: 0x2C }
  - { offsetInCU: 0x22A9C, offset: 0x22E09, size: 0x8, addend: 0x0, symName: __ZNSt3__19allocatorIN3trd5TradeEE7destroyB8ue170006EPS2_, symObjAddr: 0x7DC0, symBinAddr: 0x10000ACCC, symSize: 0x14 }
  - { offsetInCU: 0x22ACF, offset: 0x22E3C, size: 0x8, addend: 0x0, symName: __ZNKSt3__16vectorIN3trd5TradeENS_9allocatorIS2_EEE31__annotate_contiguous_containerB8ue170006EPKvS7_S7_S7_, symObjAddr: 0x7DD4, symBinAddr: 0x10000ACE0, symSize: 0x20 }
  - { offsetInCU: 0x22B24, offset: 0x22E91, size: 0x8, addend: 0x0, symName: __ZNKSt3__16vectorIN3trd5TradeENS_9allocatorIS2_EEE4dataB8ue170006Ev, symObjAddr: 0x7DF4, symBinAddr: 0x10000AD00, symSize: 0x28 }
  - { offsetInCU: 0x22B49, offset: 0x22EB6, size: 0x8, addend: 0x0, symName: __ZNKSt3__16vectorIN3trd5TradeENS_9allocatorIS2_EEE4sizeB8ue170006Ev, symObjAddr: 0x7E1C, symBinAddr: 0x10000AD28, symSize: 0x28 }
  - { offsetInCU: 0x22B6E, offset: 0x22EDB, size: 0x8, addend: 0x0, symName: __ZNSt3__19allocatorIN3trd5TradeEE10deallocateB8ue170006EPS2_m, symObjAddr: 0x7E44, symBinAddr: 0x10000AD50, symSize: 0x40 }
  - { offsetInCU: 0x22BAF, offset: 0x22F1C, size: 0x8, addend: 0x0, symName: __ZNSt3__117__compressed_pairIPN3trd5TradeENS_9allocatorIS2_EEE6secondB8ue170006Ev, symObjAddr: 0x7E84, symBinAddr: 0x10000AD90, symSize: 0x24 }
  - { offsetInCU: 0x22BD4, offset: 0x22F41, size: 0x8, addend: 0x0, symName: __ZNSt3__122__compressed_pair_elemINS_9allocatorIN3trd5TradeEEELi1ELb1EE5__getB8ue170006Ev, symObjAddr: 0x7EA8, symBinAddr: 0x10000ADB4, symSize: 0x14 }
  - { offsetInCU: 0x22BF9, offset: 0x22F66, size: 0x8, addend: 0x0, symName: __ZNKSt3__16vectorIN3trd5TradeENS_9allocatorIS2_EEE9__end_capB8ue170006Ev, symObjAddr: 0x7EBC, symBinAddr: 0x10000ADC8, symSize: 0x28 }
  - { offsetInCU: 0x22C1E, offset: 0x22F8B, size: 0x8, addend: 0x0, symName: __ZNKSt3__117__compressed_pairIPN3trd5TradeENS_9allocatorIS2_EEE5firstB8ue170006Ev, symObjAddr: 0x7EE4, symBinAddr: 0x10000ADF0, symSize: 0x24 }
  - { offsetInCU: 0x22C43, offset: 0x22FB0, size: 0x8, addend: 0x0, symName: __ZNKSt3__122__compressed_pair_elemIPN3trd5TradeELi0ELb0EE5__getB8ue170006Ev, symObjAddr: 0x7F08, symBinAddr: 0x10000AE14, symSize: 0x14 }
  - { offsetInCU: 0x22C68, offset: 0x22FD5, size: 0x8, addend: 0x0, symName: __ZNSt3__16vectorIdNS_9allocatorIdEEED2B8ue170006Ev, symObjAddr: 0x7F1C, symBinAddr: 0x10000AE28, symSize: 0x44 }
  - { offsetInCU: 0x22C91, offset: 0x22FFE, size: 0x8, addend: 0x0, symName: __ZNSt3__16vectorIdNS_9allocatorIdEEE16__destroy_vectorC1B8ue170006ERS3_, symObjAddr: 0x7F60, symBinAddr: 0x10000AE6C, symSize: 0x34 }
  - { offsetInCU: 0x22CC9, offset: 0x23036, size: 0x8, addend: 0x0, symName: __ZNSt3__16vectorIdNS_9allocatorIdEEE16__destroy_vectorclB8ue170006Ev, symObjAddr: 0x7F94, symBinAddr: 0x10000AEA0, symSize: 0x90 }
  - { offsetInCU: 0x22CEE, offset: 0x2305B, size: 0x8, addend: 0x0, symName: __ZNSt3__16vectorIdNS_9allocatorIdEEE16__destroy_vectorC2B8ue170006ERS3_, symObjAddr: 0x8024, symBinAddr: 0x10000AF30, symSize: 0x20 }
  - { offsetInCU: 0x22D26, offset: 0x23093, size: 0x8, addend: 0x0, symName: __ZNSt3__16vectorIdNS_9allocatorIdEEE7__clearB8ue170006Ev, symObjAddr: 0x8044, symBinAddr: 0x10000AF50, symSize: 0x28 }
  - { offsetInCU: 0x22D4B, offset: 0x230B8, size: 0x8, addend: 0x0, symName: __ZNKSt3__16vectorIdNS_9allocatorIdEEE17__annotate_deleteB8ue170006Ev, symObjAddr: 0x806C, symBinAddr: 0x10000AF78, symSize: 0xB8 }
  - { offsetInCU: 0x22D70, offset: 0x230DD, size: 0x8, addend: 0x0, symName: __ZNSt3__116allocator_traitsINS_9allocatorIdEEE10deallocateB8ue170006ERS2_Pdm, symObjAddr: 0x8124, symBinAddr: 0x10000B030, symSize: 0x34 }
  - { offsetInCU: 0x22DB2, offset: 0x2311F, size: 0x8, addend: 0x0, symName: __ZNSt3__16vectorIdNS_9allocatorIdEEE7__allocB8ue170006Ev, symObjAddr: 0x8158, symBinAddr: 0x10000B064, symSize: 0x28 }
  - { offsetInCU: 0x22DD7, offset: 0x23144, size: 0x8, addend: 0x0, symName: __ZNKSt3__16vectorIdNS_9allocatorIdEEE8capacityB8ue170006Ev, symObjAddr: 0x8180, symBinAddr: 0x10000B08C, symSize: 0x40 }
  - { offsetInCU: 0x22DFC, offset: 0x23169, size: 0x8, addend: 0x0, symName: __ZNSt3__16vectorIdNS_9allocatorIdEEE22__base_destruct_at_endB8ue170006EPd, symObjAddr: 0x81C0, symBinAddr: 0x10000B0CC, symSize: 0x8C }
  - { offsetInCU: 0x22E3F, offset: 0x231AC, size: 0x8, addend: 0x0, symName: __ZNSt3__116allocator_traitsINS_9allocatorIdEEE7destroyB8ue170006IdvEEvRS2_PT_, symObjAddr: 0x824C, symBinAddr: 0x10000B158, symSize: 0x2C }
  - { offsetInCU: 0x22E7C, offset: 0x231E9, size: 0x8, addend: 0x0, symName: __ZNSt3__19allocatorIdE7destroyB8ue170006EPd, symObjAddr: 0x828C, symBinAddr: 0x10000B198, symSize: 0x14 }
  - { offsetInCU: 0x22EAF, offset: 0x2321C, size: 0x8, addend: 0x0, symName: __ZNKSt3__16vectorIdNS_9allocatorIdEEE31__annotate_contiguous_containerB8ue170006EPKvS5_S5_S5_, symObjAddr: 0x82A0, symBinAddr: 0x10000B1AC, symSize: 0x20 }
  - { offsetInCU: 0x22F04, offset: 0x23271, size: 0x8, addend: 0x0, symName: __ZNKSt3__16vectorIdNS_9allocatorIdEEE4dataB8ue170006Ev, symObjAddr: 0x82C0, symBinAddr: 0x10000B1CC, symSize: 0x28 }
  - { offsetInCU: 0x22F29, offset: 0x23296, size: 0x8, addend: 0x0, symName: __ZNKSt3__16vectorIdNS_9allocatorIdEEE4sizeB8ue170006Ev, symObjAddr: 0x82E8, symBinAddr: 0x10000B1F4, symSize: 0x28 }
  - { offsetInCU: 0x22F4E, offset: 0x232BB, size: 0x8, addend: 0x0, symName: __ZNSt3__19allocatorIdE10deallocateB8ue170006EPdm, symObjAddr: 0x8310, symBinAddr: 0x10000B21C, symSize: 0x40 }
  - { offsetInCU: 0x22F8F, offset: 0x232FC, size: 0x8, addend: 0x0, symName: __ZNSt3__117__compressed_pairIPdNS_9allocatorIdEEE6secondB8ue170006Ev, symObjAddr: 0x8350, symBinAddr: 0x10000B25C, symSize: 0x24 }
  - { offsetInCU: 0x22FB4, offset: 0x23321, size: 0x8, addend: 0x0, symName: __ZNSt3__122__compressed_pair_elemINS_9allocatorIdEELi1ELb1EE5__getB8ue170006Ev, symObjAddr: 0x8374, symBinAddr: 0x10000B280, symSize: 0x14 }
  - { offsetInCU: 0x22FD9, offset: 0x23346, size: 0x8, addend: 0x0, symName: __ZNKSt3__16vectorIdNS_9allocatorIdEEE9__end_capB8ue170006Ev, symObjAddr: 0x8388, symBinAddr: 0x10000B294, symSize: 0x28 }
  - { offsetInCU: 0x22FFE, offset: 0x2336B, size: 0x8, addend: 0x0, symName: __ZNKSt3__117__compressed_pairIPdNS_9allocatorIdEEE5firstB8ue170006Ev, symObjAddr: 0x83B0, symBinAddr: 0x10000B2BC, symSize: 0x24 }
  - { offsetInCU: 0x23023, offset: 0x23390, size: 0x8, addend: 0x0, symName: __ZNKSt3__122__compressed_pair_elemIPdLi0ELb0EE5__getB8ue170006Ev, symObjAddr: 0x83D4, symBinAddr: 0x10000B2E0, symSize: 0x14 }
  - { offsetInCU: 0x23048, offset: 0x233B5, size: 0x8, addend: 0x0, symName: __ZNSt3__111char_traitsIcE6lengthB8ue170006EPKc, symObjAddr: 0x85D4, symBinAddr: 0x10000B4E0, symSize: 0x34 }
  - { offsetInCU: 0x2308C, offset: 0x233F9, size: 0x8, addend: 0x0, symName: __ZNKSt3__113basic_ostreamIcNS_11char_traitsIcEEE6sentrycvbB8ue170006Ev, symObjAddr: 0x8608, symBinAddr: 0x10000B514, symSize: 0x1C }
  - { offsetInCU: 0x230B1, offset: 0x2341E, size: 0x8, addend: 0x0, symName: __ZNSt3__119ostreambuf_iteratorIcNS_11char_traitsIcEEEC1B8ue170006ERNS_13basic_ostreamIcS2_EE, symObjAddr: 0x8864, symBinAddr: 0x10000B770, symSize: 0x34 }
  - { offsetInCU: 0x230E8, offset: 0x23455, size: 0x8, addend: 0x0, symName: __ZNKSt3__18ios_base5flagsB8ue170006Ev, symObjAddr: 0x8898, symBinAddr: 0x10000B7A4, symSize: 0x18 }
  - { offsetInCU: 0x2310F, offset: 0x2347C, size: 0x8, addend: 0x0, symName: __ZNKSt3__19basic_iosIcNS_11char_traitsIcEEE4fillB8ue170006Ev, symObjAddr: 0x88B0, symBinAddr: 0x10000B7BC, symSize: 0x64 }
  - { offsetInCU: 0x23136, offset: 0x234A3, size: 0x8, addend: 0x0, symName: __ZNKSt3__119ostreambuf_iteratorIcNS_11char_traitsIcEEE6failedB8ue170006Ev, symObjAddr: 0x8914, symBinAddr: 0x10000B820, symSize: 0x24 }
  - { offsetInCU: 0x2315B, offset: 0x234C8, size: 0x8, addend: 0x0, symName: __ZNSt3__19basic_iosIcNS_11char_traitsIcEEE8setstateB8ue170006Ej, symObjAddr: 0x8938, symBinAddr: 0x10000B844, symSize: 0x2C }
  - { offsetInCU: 0x2318F, offset: 0x234FC, size: 0x8, addend: 0x0, symName: __ZNKSt3__18ios_base5widthB8ue170006Ev, symObjAddr: 0x8964, symBinAddr: 0x10000B870, symSize: 0x18 }
  - { offsetInCU: 0x231B6, offset: 0x23523, size: 0x8, addend: 0x0, symName: __ZNSt3__115basic_streambufIcNS_11char_traitsIcEEE5sputnB8ue170006EPKcl, symObjAddr: 0x897C, symBinAddr: 0x10000B888, symSize: 0x3C }
  - { offsetInCU: 0x231F7, offset: 0x23564, size: 0x8, addend: 0x0, symName: __ZNSt3__112basic_stringIcNS_11char_traitsIcEENS_9allocatorIcEEEC1B8ue170006Emc, symObjAddr: 0x89B8, symBinAddr: 0x10000B8C4, symSize: 0x3C }
  - { offsetInCU: 0x2323E, offset: 0x235AB, size: 0x8, addend: 0x0, symName: __ZNSt3__112basic_stringIcNS_11char_traitsIcEENS_9allocatorIcEEE4dataB8ue170006Ev, symObjAddr: 0x89F4, symBinAddr: 0x10000B900, symSize: 0x28 }
  - { offsetInCU: 0x23263, offset: 0x235D0, size: 0x8, addend: 0x0, symName: __ZNSt3__18ios_base5widthB8ue170006El, symObjAddr: 0x8A1C, symBinAddr: 0x10000B928, symSize: 0x2C }
  - { offsetInCU: 0x232A8, offset: 0x23615, size: 0x8, addend: 0x0, symName: __ZNSt3__112basic_stringIcNS_11char_traitsIcEENS_9allocatorIcEEEC2B8ue170006Emc, symObjAddr: 0x8A48, symBinAddr: 0x10000B954, symSize: 0x4C }
  - { offsetInCU: 0x232EF, offset: 0x2365C, size: 0x8, addend: 0x0, symName: __ZNSt3__117__compressed_pairINS_12basic_stringIcNS_11char_traitsIcEENS_9allocatorIcEEE5__repES5_EC1B8ue170006INS_18__default_init_tagESA_EEOT_OT0_, symObjAddr: 0x8A94, symBinAddr: 0x10000B9A0, symSize: 0x3C }
  - { offsetInCU: 0x23346, offset: 0x236B3, size: 0x8, addend: 0x0, symName: __ZNSt3__117__compressed_pairINS_12basic_stringIcNS_11char_traitsIcEENS_9allocatorIcEEE5__repES5_EC2B8ue170006INS_18__default_init_tagESA_EEOT_OT0_, symObjAddr: 0x8AD0, symBinAddr: 0x10000B9DC, symSize: 0x3C }
  - { offsetInCU: 0x2339D, offset: 0x2370A, size: 0x8, addend: 0x0, symName: __ZNSt3__122__compressed_pair_elemINS_12basic_stringIcNS_11char_traitsIcEENS_9allocatorIcEEE5__repELi0ELb0EEC2B8ue170006ENS_18__default_init_tagE, symObjAddr: 0x8B0C, symBinAddr: 0x10000BA18, symSize: 0x14 }
  - { offsetInCU: 0x233D0, offset: 0x2373D, size: 0x8, addend: 0x0, symName: __ZNSt3__122__compressed_pair_elemINS_9allocatorIcEELi1ELb1EEC2B8ue170006ENS_18__default_init_tagE, symObjAddr: 0x8B20, symBinAddr: 0x10000BA2C, symSize: 0x2C }
  - { offsetInCU: 0x23403, offset: 0x23770, size: 0x8, addend: 0x0, symName: __ZNSt3__19allocatorIcEC2B8ue170006Ev, symObjAddr: 0x8B4C, symBinAddr: 0x10000BA58, symSize: 0x2C }
  - { offsetInCU: 0x2342C, offset: 0x23799, size: 0x8, addend: 0x0, symName: __ZNSt3__116__non_trivial_ifILb1ENS_9allocatorIcEEEC2B8ue170006Ev, symObjAddr: 0x8B78, symBinAddr: 0x10000BA84, symSize: 0x14 }
  - { offsetInCU: 0x23455, offset: 0x237C2, size: 0x8, addend: 0x0, symName: __ZNSt3__112basic_stringIcNS_11char_traitsIcEENS_9allocatorIcEEE13__get_pointerB8ue170006Ev, symObjAddr: 0x8BA0, symBinAddr: 0x10000BAAC, symSize: 0x54 }
  - { offsetInCU: 0x2347A, offset: 0x237E7, size: 0x8, addend: 0x0, symName: __ZNKSt3__112basic_stringIcNS_11char_traitsIcEENS_9allocatorIcEEE9__is_longB8ue170006Ev, symObjAddr: 0x8BF4, symBinAddr: 0x10000BB00, symSize: 0x38 }
  - { offsetInCU: 0x2349F, offset: 0x2380C, size: 0x8, addend: 0x0, symName: __ZNSt3__112basic_stringIcNS_11char_traitsIcEENS_9allocatorIcEEE18__get_long_pointerB8ue170006Ev, symObjAddr: 0x8C2C, symBinAddr: 0x10000BB38, symSize: 0x28 }
  - { offsetInCU: 0x234C4, offset: 0x23831, size: 0x8, addend: 0x0, symName: __ZNSt3__112basic_stringIcNS_11char_traitsIcEENS_9allocatorIcEEE19__get_short_pointerB8ue170006Ev, symObjAddr: 0x8C54, symBinAddr: 0x10000BB60, symSize: 0x28 }
  - { offsetInCU: 0x234E9, offset: 0x23856, size: 0x8, addend: 0x0, symName: __ZNKSt3__117__compressed_pairINS_12basic_stringIcNS_11char_traitsIcEENS_9allocatorIcEEE5__repES5_E5firstB8ue170006Ev, symObjAddr: 0x8C7C, symBinAddr: 0x10000BB88, symSize: 0x24 }
  - { offsetInCU: 0x2350E, offset: 0x2387B, size: 0x8, addend: 0x0, symName: __ZNKSt3__122__compressed_pair_elemINS_12basic_stringIcNS_11char_traitsIcEENS_9allocatorIcEEE5__repELi0ELb0EE5__getB8ue170006Ev, symObjAddr: 0x8CA0, symBinAddr: 0x10000BBAC, symSize: 0x14 }
  - { offsetInCU: 0x23533, offset: 0x238A0, size: 0x8, addend: 0x0, symName: __ZNSt3__117__compressed_pairINS_12basic_stringIcNS_11char_traitsIcEENS_9allocatorIcEEE5__repES5_E5firstB8ue170006Ev, symObjAddr: 0x8CB4, symBinAddr: 0x10000BBC0, symSize: 0x24 }
  - { offsetInCU: 0x23558, offset: 0x238C5, size: 0x8, addend: 0x0, symName: __ZNSt3__122__compressed_pair_elemINS_12basic_stringIcNS_11char_traitsIcEENS_9allocatorIcEEE5__repELi0ELb0EE5__getB8ue170006Ev, symObjAddr: 0x8CD8, symBinAddr: 0x10000BBE4, symSize: 0x14 }
  - { offsetInCU: 0x2357D, offset: 0x238EA, size: 0x8, addend: 0x0, symName: __ZNSt3__114pointer_traitsIPcE10pointer_toB8ue170006ERc, symObjAddr: 0x8CEC, symBinAddr: 0x10000BBF8, symSize: 0x14 }
  - { offsetInCU: 0x235A0, offset: 0x2390D, size: 0x8, addend: 0x0, symName: __ZNSt3__119ostreambuf_iteratorIcNS_11char_traitsIcEEEC2B8ue170006ERNS_13basic_ostreamIcS2_EE, symObjAddr: 0x8D00, symBinAddr: 0x10000BC0C, symSize: 0x54 }
  - { offsetInCU: 0x235D7, offset: 0x23944, size: 0x8, addend: 0x0, symName: __ZNKSt3__19basic_iosIcNS_11char_traitsIcEEE5rdbufB8ue170006Ev, symObjAddr: 0x8D54, symBinAddr: 0x10000BC60, symSize: 0x24 }
  - { offsetInCU: 0x235FE, offset: 0x2396B, size: 0x8, addend: 0x0, symName: __ZNKSt3__18ios_base5rdbufB8ue170006Ev, symObjAddr: 0x8D78, symBinAddr: 0x10000BC84, symSize: 0x18 }
  - { offsetInCU: 0x23623, offset: 0x23990, size: 0x8, addend: 0x0, symName: __ZNSt3__111char_traitsIcE11eq_int_typeB8ue170006Eii, symObjAddr: 0x8D90, symBinAddr: 0x10000BC9C, symSize: 0x28 }
  - { offsetInCU: 0x23656, offset: 0x239C3, size: 0x8, addend: 0x0, symName: __ZNSt3__111char_traitsIcE3eofB8ue170006Ev, symObjAddr: 0x8DB8, symBinAddr: 0x10000BCC4, symSize: 0x8 }
  - { offsetInCU: 0x2366A, offset: 0x239D7, size: 0x8, addend: 0x0, symName: __ZNKSt3__19basic_iosIcNS_11char_traitsIcEEE5widenB8ue170006Ec, symObjAddr: 0x8DC0, symBinAddr: 0x10000BCCC, symSize: 0x84 }
  - { offsetInCU: 0x236D2, offset: 0x23A3F, size: 0x8, addend: 0x0, symName: __ZNKSt3__15ctypeIcE5widenB8ue170006Ec, symObjAddr: 0x8E70, symBinAddr: 0x10000BD7C, symSize: 0x38 }
  - { offsetInCU: 0x23706, offset: 0x23A73, size: 0x8, addend: 0x0, symName: __ZNSt3__18ios_base8setstateB8ue170006Ej, symObjAddr: 0x8EA8, symBinAddr: 0x10000BDB4, symSize: 0x34 }
  - { offsetInCU: 0x2373C, offset: 0x23AA9, size: 0x8, addend: 0x0, symName: '__ZNSt3__18functionIFvRKNS_7variantIJN6events11MarketEventENS2_11SignalEventENS2_10OrderEventENS2_9FillEventEEEEEEC2IZN3trd8Backtest3runERKNS_6vectorINSD_3BarENS_9allocatorISG_EEEER8StrategyE3$_0vEET_', symObjAddr: 0x8F00, symBinAddr: 0x10000BE0C, symSize: 0x38 }
  - { offsetInCU: 0x23780, offset: 0x23AED, size: 0x8, addend: 0x0, symName: '__ZNSt3__110__function12__value_funcIFvRKNS_7variantIJN6events11MarketEventENS3_11SignalEventENS3_10OrderEventENS3_9FillEventEEEEEEC1B8ue170006IZN3trd8Backtest3runERKNS_6vectorINSE_3BarENS_9allocatorISH_EEEER8StrategyE3$_0vEEOT_', symObjAddr: 0x8F38, symBinAddr: 0x10000BE44, symSize: 0x50 }
  - { offsetInCU: 0x237C2, offset: 0x23B2F, size: 0x8, addend: 0x0, symName: '__ZNSt3__19allocatorIZN3trd8Backtest3runERKNS_6vectorINS1_3BarENS0_IS4_EEEER8StrategyE3$_0EC1B8ue170006Ev', symObjAddr: 0x8F88, symBinAddr: 0x10000BE94, symSize: 0x2C }
  - { offsetInCU: 0x237EB, offset: 0x23B58, size: 0x8, addend: 0x0, symName: '__ZNSt3__110__function12__value_funcIFvRKNS_7variantIJN6events11MarketEventENS3_11SignalEventENS3_10OrderEventENS3_9FillEventEEEEEEC1B8ue170006IZN3trd8Backtest3runERKNS_6vectorINSE_3BarENS_9allocatorISH_EEEER8StrategyE3$_0NSI_ISP_EEEEOT_RKT0_', symObjAddr: 0x8FB4, symBinAddr: 0x10000BEC0, symSize: 0x3C }
  - { offsetInCU: 0x23844, offset: 0x23BB1, size: 0x8, addend: 0x0, symName: '__ZNSt3__19allocatorIZN3trd8Backtest3runERKNS_6vectorINS1_3BarENS0_IS4_EEEER8StrategyE3$_0EC2B8ue170006Ev', symObjAddr: 0x8FF0, symBinAddr: 0x10000BEFC, symSize: 0x2C }
  - { offsetInCU: 0x2386D, offset: 0x23BDA, size: 0x8, addend: 0x0, symName: '__ZNSt3__116__non_trivial_ifILb1ENS_9allocatorIZN3trd8Backtest3runERKNS_6vectorINS2_3BarENS1_IS5_EEEER8StrategyE3$_0EEEC2B8ue170006Ev', symObjAddr: 0x901C, symBinAddr: 0x10000BF28, symSize: 0x14 }
  - { offsetInCU: 0x23896, offset: 0x23C03, size: 0x8, addend: 0x0, symName: '__ZNSt3__110__function12__value_funcIFvRKNS_7variantIJN6events11MarketEventENS3_11SignalEventENS3_10OrderEventENS3_9FillEventEEEEEEC2B8ue170006IZN3trd8Backtest3runERKNS_6vectorINSE_3BarENS_9allocatorISH_EEEER8StrategyE3$_0NSI_ISP_EEEEOT_RKT0_', symObjAddr: 0x9030, symBinAddr: 0x10000BF3C, symSize: 0x94 }
  - { offsetInCU: 0x2393E, offset: 0x23CAB, size: 0x8, addend: 0x0, symName: '__ZNSt3__19allocatorINS_10__function6__funcIZN3trd8Backtest3runERKNS_6vectorINS3_3BarENS0_IS6_EEEER8StrategyE3$_0NS0_ISD_EEFvRKNS_7variantIJN6events11MarketEventENSG_11SignalEventENSG_10OrderEventENSG_9FillEventEEEEEEEEC1B8ue170006ISD_EERKNS0_IT_EE', symObjAddr: 0x90DC, symBinAddr: 0x10000BFE8, symSize: 0x34 }
  - { offsetInCU: 0x23980, offset: 0x23CED, size: 0x8, addend: 0x0, symName: '__ZNSt3__19allocatorIZN3trd8Backtest3runERKNS_6vectorINS1_3BarENS0_IS4_EEEER8StrategyE3$_0EC1B8ue170006INS_10__function6__funcISB_SC_FvRKNS_7variantIJN6events11MarketEventENSH_11SignalEventENSH_10OrderEventENSH_9FillEventEEEEEEEEERKNS0_IT_EE', symObjAddr: 0x9110, symBinAddr: 0x10000C01C, symSize: 0x34 }
  - { offsetInCU: 0x239BC, offset: 0x23D29, size: 0x8, addend: 0x0, symName: '__ZNSt3__110__function6__funcIZN3trd8Backtest3runERKNS_6vectorINS2_3BarENS_9allocatorIS5_EEEER8StrategyE3$_0NS6_ISD_EEFvRKNS_7variantIJN6events11MarketEventENSG_11SignalEventENSG_10OrderEventENSG_9FillEventEEEEEEC1B8ue170006EOSD_OSE_', symObjAddr: 0x9144, symBinAddr: 0x10000C050, symSize: 0x3C }
  - { offsetInCU: 0x23A03, offset: 0x23D70, size: 0x8, addend: 0x0, symName: '__ZNSt3__19allocatorINS_10__function6__funcIZN3trd8Backtest3runERKNS_6vectorINS3_3BarENS0_IS6_EEEER8StrategyE3$_0NS0_ISD_EEFvRKNS_7variantIJN6events11MarketEventENSG_11SignalEventENSG_10OrderEventENSG_9FillEventEEEEEEEEC2B8ue170006ISD_EERKNS0_IT_EE', symObjAddr: 0x9180, symBinAddr: 0x10000C08C, symSize: 0x30 }
  - { offsetInCU: 0x23A3F, offset: 0x23DAC, size: 0x8, addend: 0x0, symName: '__ZNSt3__116__non_trivial_ifILb1ENS_9allocatorINS_10__function6__funcIZN3trd8Backtest3runERKNS_6vectorINS4_3BarENS1_IS7_EEEER8StrategyE3$_0NS1_ISE_EEFvRKNS_7variantIJN6events11MarketEventENSH_11SignalEventENSH_10OrderEventENSH_9FillEventEEEEEEEEEEC2B8ue170006Ev', symObjAddr: 0x91B0, symBinAddr: 0x10000C0BC, symSize: 0x14 }
  - { offsetInCU: 0x23A68, offset: 0x23DD5, size: 0x8, addend: 0x0, symName: '__ZNSt3__19allocatorIZN3trd8Backtest3runERKNS_6vectorINS1_3BarENS0_IS4_EEEER8StrategyE3$_0EC2B8ue170006INS_10__function6__funcISB_SC_FvRKNS_7variantIJN6events11MarketEventENSH_11SignalEventENSH_10OrderEventENSH_9FillEventEEEEEEEEERKNS0_IT_EE', symObjAddr: 0x91C4, symBinAddr: 0x10000C0D0, symSize: 0x30 }
  - { offsetInCU: 0x23AA4, offset: 0x23E11, size: 0x8, addend: 0x0, symName: '__ZNSt3__110__function6__funcIZN3trd8Backtest3runERKNS_6vectorINS2_3BarENS_9allocatorIS5_EEEER8StrategyE3$_0NS6_ISD_EEFvRKNS_7variantIJN6events11MarketEventENSG_11SignalEventENSG_10OrderEventENSG_9FillEventEEEEEEC2B8ue170006EOSD_OSE_', symObjAddr: 0x91F4, symBinAddr: 0x10000C100, symSize: 0x88 }
  - { offsetInCU: 0x23AEB, offset: 0x23E58, size: 0x8, addend: 0x0, symName: __ZNSt3__110__function6__baseIFvRKNS_7variantIJN6events11MarketEventENS3_11SignalEventENS3_10OrderEventENS3_9FillEventEEEEEEC2B8ue170006Ev, symObjAddr: 0x927C, symBinAddr: 0x10000C188, symSize: 0x24 }
  - { offsetInCU: 0x23B14, offset: 0x23E81, size: 0x8, addend: 0x0, symName: '__ZNSt3__110__function12__alloc_funcIZN3trd8Backtest3runERKNS_6vectorINS2_3BarENS_9allocatorIS5_EEEER8StrategyE3$_0NS6_ISD_EEFvRKNS_7variantIJN6events11MarketEventENSG_11SignalEventENSG_10OrderEventENSG_9FillEventEEEEEEC1B8ue170006EOSD_OSE_', symObjAddr: 0x92A0, symBinAddr: 0x10000C1AC, symSize: 0x3C }
  - { offsetInCU: 0x23B59, offset: 0x23EC6, size: 0x8, addend: 0x0, symName: __ZNSt3__110__function6__baseIFvRKNS_7variantIJN6events11MarketEventENS3_11SignalEventENS3_10OrderEventENS3_9FillEventEEEEEED2Ev, symObjAddr: 0x92DC, symBinAddr: 0x10000C1E8, symSize: 0x14 }
  - { offsetInCU: 0x23B82, offset: 0x23EEF, size: 0x8, addend: 0x0, symName: '__ZNSt3__110__function6__funcIZN3trd8Backtest3runERKNS_6vectorINS2_3BarENS_9allocatorIS5_EEEER8StrategyE3$_0NS6_ISD_EEFvRKNS_7variantIJN6events11MarketEventENSG_11SignalEventENSG_10OrderEventENSG_9FillEventEEEEEED1Ev', symObjAddr: 0x92F0, symBinAddr: 0x10000C1FC, symSize: 0x2C }
  - { offsetInCU: 0x23BAE, offset: 0x23F1B, size: 0x8, addend: 0x0, symName: '__ZNSt3__110__function6__funcIZN3trd8Backtest3runERKNS_6vectorINS2_3BarENS_9allocatorIS5_EEEER8StrategyE3$_0NS6_ISD_EEFvRKNS_7variantIJN6events11MarketEventENSG_11SignalEventENSG_10OrderEventENSG_9FillEventEEEEEED0Ev', symObjAddr: 0x931C, symBinAddr: 0x10000C228, symSize: 0x30 }
  - { offsetInCU: 0x23BDA, offset: 0x23F47, size: 0x8, addend: 0x0, symName: '__ZNKSt3__110__function6__funcIZN3trd8Backtest3runERKNS_6vectorINS2_3BarENS_9allocatorIS5_EEEER8StrategyE3$_0NS6_ISD_EEFvRKNS_7variantIJN6events11MarketEventENSG_11SignalEventENSG_10OrderEventENSG_9FillEventEEEEEE7__cloneEv', symObjAddr: 0x934C, symBinAddr: 0x10000C258, symSize: 0xFC }
  - { offsetInCU: 0x23C2B, offset: 0x23F98, size: 0x8, addend: 0x0, symName: '__ZNKSt3__110__function6__funcIZN3trd8Backtest3runERKNS_6vectorINS2_3BarENS_9allocatorIS5_EEEER8StrategyE3$_0NS6_ISD_EEFvRKNS_7variantIJN6events11MarketEventENSG_11SignalEventENSG_10OrderEventENSG_9FillEventEEEEEE7__cloneEPNS0_6__baseISO_EE', symObjAddr: 0x9448, symBinAddr: 0x10000C354, symSize: 0x58 }
  - { offsetInCU: 0x23C61, offset: 0x23FCE, size: 0x8, addend: 0x0, symName: '__ZNSt3__110__function6__funcIZN3trd8Backtest3runERKNS_6vectorINS2_3BarENS_9allocatorIS5_EEEER8StrategyE3$_0NS6_ISD_EEFvRKNS_7variantIJN6events11MarketEventENSG_11SignalEventENSG_10OrderEventENSG_9FillEventEEEEEE7destroyEv', symObjAddr: 0x94A0, symBinAddr: 0x10000C3AC, symSize: 0x28 }
  - { offsetInCU: 0x23C88, offset: 0x23FF5, size: 0x8, addend: 0x0, symName: '__ZNSt3__110__function6__funcIZN3trd8Backtest3runERKNS_6vectorINS2_3BarENS_9allocatorIS5_EEEER8StrategyE3$_0NS6_ISD_EEFvRKNS_7variantIJN6events11MarketEventENSG_11SignalEventENSG_10OrderEventENSG_9FillEventEEEEEE18destroy_deallocateEv', symObjAddr: 0x94C8, symBinAddr: 0x10000C3D4, symSize: 0x58 }
  - { offsetInCU: 0x23CCA, offset: 0x24037, size: 0x8, addend: 0x0, symName: '__ZNSt3__110__function6__funcIZN3trd8Backtest3runERKNS_6vectorINS2_3BarENS_9allocatorIS5_EEEER8StrategyE3$_0NS6_ISD_EEFvRKNS_7variantIJN6events11MarketEventENSG_11SignalEventENSG_10OrderEventENSG_9FillEventEEEEEEclESN_', symObjAddr: 0x9520, symBinAddr: 0x10000C42C, symSize: 0x30 }
  - { offsetInCU: 0x23D00, offset: 0x2406D, size: 0x8, addend: 0x0, symName: '__ZNKSt3__110__function6__funcIZN3trd8Backtest3runERKNS_6vectorINS2_3BarENS_9allocatorIS5_EEEER8StrategyE3$_0NS6_ISD_EEFvRKNS_7variantIJN6events11MarketEventENSG_11SignalEventENSG_10OrderEventENSG_9FillEventEEEEEE6targetERKSt9type_info', symObjAddr: 0x9550, symBinAddr: 0x10000C45C, symSize: 0x60 }
  - { offsetInCU: 0x23D36, offset: 0x240A3, size: 0x8, addend: 0x0, symName: '__ZNKSt3__110__function6__funcIZN3trd8Backtest3runERKNS_6vectorINS2_3BarENS_9allocatorIS5_EEEER8StrategyE3$_0NS6_ISD_EEFvRKNS_7variantIJN6events11MarketEventENSG_11SignalEventENSG_10OrderEventENSG_9FillEventEEEEEE11target_typeEv', symObjAddr: 0x95B0, symBinAddr: 0x10000C4BC, symSize: 0x18 }
  - { offsetInCU: 0x23D5D, offset: 0x240CA, size: 0x8, addend: 0x0, symName: __ZNSt3__110__function6__baseIFvRKNS_7variantIJN6events11MarketEventENS3_11SignalEventENS3_10OrderEventENS3_9FillEventEEEEEED1Ev, symObjAddr: 0x95C8, symBinAddr: 0x10000C4D4, symSize: 0x14 }
  - { offsetInCU: 0x23D86, offset: 0x240F3, size: 0x8, addend: 0x0, symName: __ZNSt3__110__function6__baseIFvRKNS_7variantIJN6events11MarketEventENS3_11SignalEventENS3_10OrderEventENS3_9FillEventEEEEEED0Ev, symObjAddr: 0x95DC, symBinAddr: 0x10000C4E8, symSize: 0xC }
  - { offsetInCU: 0x23DAF, offset: 0x2411C, size: 0x8, addend: 0x0, symName: '__ZNSt3__110__function12__alloc_funcIZN3trd8Backtest3runERKNS_6vectorINS2_3BarENS_9allocatorIS5_EEEER8StrategyE3$_0NS6_ISD_EEFvRKNS_7variantIJN6events11MarketEventENSG_11SignalEventENSG_10OrderEventENSG_9FillEventEEEEEEC2B8ue170006EOSD_OSE_', symObjAddr: 0x95E8, symBinAddr: 0x10000C4F4, symSize: 0x5C }
  - { offsetInCU: 0x23DF4, offset: 0x24161, size: 0x8, addend: 0x0, symName: '__ZNSt3__117__compressed_pairIZN3trd8Backtest3runERKNS_6vectorINS1_3BarENS_9allocatorIS4_EEEER8StrategyE3$_0NS5_ISC_EEEC1B8ue170006IJOSC_EJOSD_EEENS_21piecewise_construct_tENS_5tupleIJDpT_EEENSJ_IJDpT0_EEE', symObjAddr: 0x969C, symBinAddr: 0x10000C5A8, symSize: 0x3C }
  - { offsetInCU: 0x23E5D, offset: 0x241CA, size: 0x8, addend: 0x0, symName: '__ZNSt3__15tupleIJOZN3trd8Backtest3runERKNS_6vectorINS1_3BarENS_9allocatorIS4_EEEER8StrategyE3$_0EEC1B8ue170006IJSC_ELi0EEEDpOT_', symObjAddr: 0x96D8, symBinAddr: 0x10000C5E4, symSize: 0x34 }
  - { offsetInCU: 0x23EA6, offset: 0x24213, size: 0x8, addend: 0x0, symName: '__ZNSt3__15tupleIJOZN3trd8Backtest3runERKNS_6vectorINS1_3BarENS_9allocatorIS4_EEEER8StrategyE3$_0EEC2B8ue170006IJSC_ELi0EEEDpOT_', symObjAddr: 0x970C, symBinAddr: 0x10000C618, symSize: 0x34 }
  - { offsetInCU: 0x23EEF, offset: 0x2425C, size: 0x8, addend: 0x0, symName: '__ZNSt3__112__tuple_implINS_15__tuple_indicesIJLm0EEEEJOZN3trd8Backtest3runERKNS_6vectorINS3_3BarENS_9allocatorIS6_EEEER8StrategyE3$_0EEC1B8ue170006IJLm0EEJSF_EJEJEJSE_EEENS1_IJXspT_EEEENS_13__tuple_typesIJDpT0_EEENS1_IJXspT1_EEEENSJ_IJDpT2_EEEDpOT3_', symObjAddr: 0x9740, symBinAddr: 0x10000C64C, symSize: 0x34 }
  - { offsetInCU: 0x23F83, offset: 0x242F0, size: 0x8, addend: 0x0, symName: '__ZNSt3__112__tuple_implINS_15__tuple_indicesIJLm0EEEEJOZN3trd8Backtest3runERKNS_6vectorINS3_3BarENS_9allocatorIS6_EEEER8StrategyE3$_0EEC2B8ue170006IJLm0EEJSF_EJEJEJSE_EEENS1_IJXspT_EEEENS_13__tuple_typesIJDpT0_EEENS1_IJXspT1_EEEENSJ_IJDpT2_EEEDpOT3_', symObjAddr: 0x9774, symBinAddr: 0x10000C680, symSize: 0x34 }
  - { offsetInCU: 0x24017, offset: 0x24384, size: 0x8, addend: 0x0, symName: '__ZNSt3__112__tuple_leafILm0EOZN3trd8Backtest3runERKNS_6vectorINS1_3BarENS_9allocatorIS4_EEEER8StrategyE3$_0Lb0EEC2B8ue170006ISC_vEEOT_', symObjAddr: 0x97A8, symBinAddr: 0x10000C6B4, symSize: 0x20 }
  - { offsetInCU: 0x24059, offset: 0x243C6, size: 0x8, addend: 0x0, symName: '__ZNSt3__15tupleIJONS_9allocatorIZN3trd8Backtest3runERKNS_6vectorINS2_3BarENS1_IS5_EEEER8StrategyE3$_0EEEEC1B8ue170006IJSD_ELi0EEEDpOT_', symObjAddr: 0x97C8, symBinAddr: 0x10000C6D4, symSize: 0x34 }
  - { offsetInCU: 0x240A2, offset: 0x2440F, size: 0x8, addend: 0x0, symName: '__ZNSt3__15tupleIJONS_9allocatorIZN3trd8Backtest3runERKNS_6vectorINS2_3BarENS1_IS5_EEEER8StrategyE3$_0EEEEC2B8ue170006IJSD_ELi0EEEDpOT_', symObjAddr: 0x97FC, symBinAddr: 0x10000C708, symSize: 0x34 }
  - { offsetInCU: 0x240EB, offset: 0x24458, size: 0x8, addend: 0x0, symName: '__ZNSt3__112__tuple_implINS_15__tuple_indicesIJLm0EEEEJONS_9allocatorIZN3trd8Backtest3runERKNS_6vectorINS4_3BarENS3_IS7_EEEER8StrategyE3$_0EEEEC1B8ue170006IJLm0EEJSG_EJEJEJSF_EEENS1_IJXspT_EEEENS_13__tuple_typesIJDpT0_EEENS1_IJXspT1_EEEENSK_IJDpT2_EEEDpOT3_', symObjAddr: 0x9830, symBinAddr: 0x10000C73C, symSize: 0x34 }
  - { offsetInCU: 0x2417F, offset: 0x244EC, size: 0x8, addend: 0x0, symName: '__ZNSt3__112__tuple_implINS_15__tuple_indicesIJLm0EEEEJONS_9allocatorIZN3trd8Backtest3runERKNS_6vectorINS4_3BarENS3_IS7_EEEER8StrategyE3$_0EEEEC2B8ue170006IJLm0EEJSG_EJEJEJSF_EEENS1_IJXspT_EEEENS_13__tuple_typesIJDpT0_EEENS1_IJXspT1_EEEENSK_IJDpT2_EEEDpOT3_', symObjAddr: 0x9864, symBinAddr: 0x10000C770, symSize: 0x34 }
  - { offsetInCU: 0x24213, offset: 0x24580, size: 0x8, addend: 0x0, symName: '__ZNSt3__112__tuple_leafILm0EONS_9allocatorIZN3trd8Backtest3runERKNS_6vectorINS2_3BarENS1_IS5_EEEER8StrategyE3$_0EELb0EEC2B8ue170006ISD_vEEOT_', symObjAddr: 0x9898, symBinAddr: 0x10000C7A4, symSize: 0x20 }
  - { offsetInCU: 0x24255, offset: 0x245C2, size: 0x8, addend: 0x0, symName: '__ZNSt3__117__compressed_pairIZN3trd8Backtest3runERKNS_6vectorINS1_3BarENS_9allocatorIS4_EEEER8StrategyE3$_0NS5_ISC_EEEC2B8ue170006IJOSC_EJOSD_EEENS_21piecewise_construct_tENS_5tupleIJDpT_EEENSJ_IJDpT0_EEE', symObjAddr: 0x98B8, symBinAddr: 0x10000C7C4, symSize: 0x54 }
  - { offsetInCU: 0x242BE, offset: 0x2462B, size: 0x8, addend: 0x0, symName: '__ZNSt3__122__compressed_pair_elemIZN3trd8Backtest3runERKNS_6vectorINS1_3BarENS_9allocatorIS4_EEEER8StrategyE3$_0Li0ELb0EEC2B8ue170006IJOSC_EJLm0EEEENS_21piecewise_construct_tENS_5tupleIJDpT_EEENS_15__tuple_indicesIJXspT0_EEEE', symObjAddr: 0x990C, symBinAddr: 0x10000C818, symSize: 0x44 }
  - { offsetInCU: 0x24320, offset: 0x2468D, size: 0x8, addend: 0x0, symName: '__ZNSt3__122__compressed_pair_elemINS_9allocatorIZN3trd8Backtest3runERKNS_6vectorINS2_3BarENS1_IS5_EEEER8StrategyE3$_0EELi1ELb1EEC2B8ue170006IJOSD_EJLm0EEEENS_21piecewise_construct_tENS_5tupleIJDpT_EEENS_15__tuple_indicesIJXspT0_EEEE', symObjAddr: 0x9950, symBinAddr: 0x10000C85C, symSize: 0x38 }
  - { offsetInCU: 0x24382, offset: 0x246EF, size: 0x8, addend: 0x0, symName: '__ZNSt3__112__tuple_leafILm0EOZN3trd8Backtest3runERKNS_6vectorINS1_3BarENS_9allocatorIS4_EEEER8StrategyE3$_0Lb0EE3getB8ue170006Ev', symObjAddr: 0x99AC, symBinAddr: 0x10000C8B8, symSize: 0x18 }
  - { offsetInCU: 0x243A7, offset: 0x24714, size: 0x8, addend: 0x0, symName: '__ZNSt3__112__tuple_leafILm0EONS_9allocatorIZN3trd8Backtest3runERKNS_6vectorINS2_3BarENS1_IS5_EEEER8StrategyE3$_0EELb0EE3getB8ue170006Ev', symObjAddr: 0x99E8, symBinAddr: 0x10000C8F4, symSize: 0x18 }
  - { offsetInCU: 0x243CC, offset: 0x24739, size: 0x8, addend: 0x0, symName: '__ZNSt3__110__function6__funcIZN3trd8Backtest3runERKNS_6vectorINS2_3BarENS_9allocatorIS5_EEEER8StrategyE3$_0NS6_ISD_EEFvRKNS_7variantIJN6events11MarketEventENSG_11SignalEventENSG_10OrderEventENSG_9FillEventEEEEEED2Ev', symObjAddr: 0x9A00, symBinAddr: 0x10000C90C, symSize: 0x2C }
  - { offsetInCU: 0x243F8, offset: 0x24765, size: 0x8, addend: 0x0, symName: '__ZNKSt3__110__function12__alloc_funcIZN3trd8Backtest3runERKNS_6vectorINS2_3BarENS_9allocatorIS5_EEEER8StrategyE3$_0NS6_ISD_EEFvRKNS_7variantIJN6events11MarketEventENSG_11SignalEventENSG_10OrderEventENSG_9FillEventEEEEEE15__get_allocatorB8ue170006Ev', symObjAddr: 0x9A2C, symBinAddr: 0x10000C938, symSize: 0x24 }
  - { offsetInCU: 0x2441D, offset: 0x2478A, size: 0x8, addend: 0x0, symName: '__ZNSt3__19allocatorINS_10__function6__funcIZN3trd8Backtest3runERKNS_6vectorINS3_3BarENS0_IS6_EEEER8StrategyE3$_0NS0_ISD_EEFvRKNS_7variantIJN6events11MarketEventENSG_11SignalEventENSG_10OrderEventENSG_9FillEventEEEEEEEE8allocateB8ue170006Em', symObjAddr: 0x9A50, symBinAddr: 0x10000C95C, symSize: 0x58 }
  - { offsetInCU: 0x24461, offset: 0x247CE, size: 0x8, addend: 0x0, symName: '__ZNSt3__122__allocator_destructorINS_9allocatorINS_10__function6__funcIZN3trd8Backtest3runERKNS_6vectorINS4_3BarENS1_IS7_EEEER8StrategyE3$_0NS1_ISE_EEFvRKNS_7variantIJN6events11MarketEventENSH_11SignalEventENSH_10OrderEventENSH_9FillEventEEEEEEEEEEC1B8ue170006ERSR_m', symObjAddr: 0x9AA8, symBinAddr: 0x10000C9B4, symSize: 0x3C }
  - { offsetInCU: 0x2453C, offset: 0x248A9, size: 0x8, addend: 0x0, symName: '__ZNSt3__110unique_ptrINS_10__function6__funcIZN3trd8Backtest3runERKNS_6vectorINS3_3BarENS_9allocatorIS6_EEEER8StrategyE3$_0NS7_ISE_EEFvRKNS_7variantIJN6events11MarketEventENSH_11SignalEventENSH_10OrderEventENSH_9FillEventEEEEEEENS_22__allocator_destructorINS7_ISQ_EEEEEC1B8ue170006ILb1EvEEPSQ_NS_16__dependent_typeINS_27__unique_ptr_deleter_sfinaeIST_EEXT_EE20__good_rval_ref_typeE', symObjAddr: 0x9AE4, symBinAddr: 0x10000C9F0, symSize: 0x3C }
  - { offsetInCU: 0x2458C, offset: 0x248F9, size: 0x8, addend: 0x0, symName: '__ZNKSt3__110unique_ptrINS_10__function6__funcIZN3trd8Backtest3runERKNS_6vectorINS3_3BarENS_9allocatorIS6_EEEER8StrategyE3$_0NS7_ISE_EEFvRKNS_7variantIJN6events11MarketEventENSH_11SignalEventENSH_10OrderEventENSH_9FillEventEEEEEEENS_22__allocator_destructorINS7_ISQ_EEEEE3getB8ue170006Ev', symObjAddr: 0x9B20, symBinAddr: 0x10000CA2C, symSize: 0x28 }
  - { offsetInCU: 0x245B1, offset: 0x2491E, size: 0x8, addend: 0x0, symName: '__ZNKSt3__110__function12__alloc_funcIZN3trd8Backtest3runERKNS_6vectorINS2_3BarENS_9allocatorIS5_EEEER8StrategyE3$_0NS6_ISD_EEFvRKNS_7variantIJN6events11MarketEventENSG_11SignalEventENSG_10OrderEventENSG_9FillEventEEEEEE8__targetB8ue170006Ev', symObjAddr: 0x9B48, symBinAddr: 0x10000CA54, symSize: 0x24 }
  - { offsetInCU: 0x245D6, offset: 0x24943, size: 0x8, addend: 0x0, symName: '__ZNSt3__110__function6__funcIZN3trd8Backtest3runERKNS_6vectorINS2_3BarENS_9allocatorIS5_EEEER8StrategyE3$_0NS6_ISD_EEFvRKNS_7variantIJN6events11MarketEventENSG_11SignalEventENSG_10OrderEventENSG_9FillEventEEEEEEC1B8ue170006ERKSD_OSE_', symObjAddr: 0x9B6C, symBinAddr: 0x10000CA78, symSize: 0x3C }
  - { offsetInCU: 0x2461D, offset: 0x2498A, size: 0x8, addend: 0x0, symName: '__ZNSt3__110unique_ptrINS_10__function6__funcIZN3trd8Backtest3runERKNS_6vectorINS3_3BarENS_9allocatorIS6_EEEER8StrategyE3$_0NS7_ISE_EEFvRKNS_7variantIJN6events11MarketEventENSH_11SignalEventENSH_10OrderEventENSH_9FillEventEEEEEEENS_22__allocator_destructorINS7_ISQ_EEEEE7releaseB8ue170006Ev', symObjAddr: 0x9BA8, symBinAddr: 0x10000CAB4, symSize: 0x44 }
  - { offsetInCU: 0x24651, offset: 0x249BE, size: 0x8, addend: 0x0, symName: '__ZNSt3__110unique_ptrINS_10__function6__funcIZN3trd8Backtest3runERKNS_6vectorINS3_3BarENS_9allocatorIS6_EEEER8StrategyE3$_0NS7_ISE_EEFvRKNS_7variantIJN6events11MarketEventENSH_11SignalEventENSH_10OrderEventENSH_9FillEventEEEEEEENS_22__allocator_destructorINS7_ISQ_EEEEED1B8ue170006Ev', symObjAddr: 0x9BEC, symBinAddr: 0x10000CAF8, symSize: 0x2C }
  - { offsetInCU: 0x2467A, offset: 0x249E7, size: 0x8, addend: 0x0, symName: '__ZNKSt3__117__compressed_pairIZN3trd8Backtest3runERKNS_6vectorINS1_3BarENS_9allocatorIS4_EEEER8StrategyE3$_0NS5_ISC_EEE6secondB8ue170006Ev', symObjAddr: 0x9C18, symBinAddr: 0x10000CB24, symSize: 0x24 }
  - { offsetInCU: 0x2469F, offset: 0x24A0C, size: 0x8, addend: 0x0, symName: '__ZNKSt3__122__compressed_pair_elemINS_9allocatorIZN3trd8Backtest3runERKNS_6vectorINS2_3BarENS1_IS5_EEEER8StrategyE3$_0EELi1ELb1EE5__getB8ue170006Ev', symObjAddr: 0x9C3C, symBinAddr: 0x10000CB48, symSize: 0x14 }
  - { offsetInCU: 0x246CF, offset: 0x24A3C, size: 0x8, addend: 0x0, symName: '__ZNSt3__116allocator_traitsINS_9allocatorINS_10__function6__funcIZN3trd8Backtest3runERKNS_6vectorINS4_3BarENS1_IS7_EEEER8StrategyE3$_0NS1_ISE_EEFvRKNS_7variantIJN6events11MarketEventENSH_11SignalEventENSH_10OrderEventENSH_9FillEventEEEEEEEEEE8max_sizeB8ue170006ISR_vEEmRKSR_', symObjAddr: 0x9C50, symBinAddr: 0x10000CB5C, symSize: 0x24 }
  - { offsetInCU: 0x246FD, offset: 0x24A6A, size: 0x8, addend: 0x0, symName: '__ZNKSt3__19allocatorINS_10__function6__funcIZN3trd8Backtest3runERKNS_6vectorINS3_3BarENS0_IS6_EEEER8StrategyE3$_0NS0_ISD_EEFvRKNS_7variantIJN6events11MarketEventENSG_11SignalEventENSG_10OrderEventENSG_9FillEventEEEEEEEE8max_sizeB8ue170006Ev', symObjAddr: 0x9C74, symBinAddr: 0x10000CB80, symSize: 0x14 }
  - { offsetInCU: 0x24722, offset: 0x24A8F, size: 0x8, addend: 0x0, symName: '__ZNSt3__122__allocator_destructorINS_9allocatorINS_10__function6__funcIZN3trd8Backtest3runERKNS_6vectorINS4_3BarENS1_IS7_EEEER8StrategyE3$_0NS1_ISE_EEFvRKNS_7variantIJN6events11MarketEventENSH_11SignalEventENSH_10OrderEventENSH_9FillEventEEEEEEEEEEC2B8ue170006ERSR_m', symObjAddr: 0x9C88, symBinAddr: 0x10000CB94, symSize: 0x2C }
  - { offsetInCU: 0x24767, offset: 0x24AD4, size: 0x8, addend: 0x0, symName: '__ZNSt3__110unique_ptrINS_10__function6__funcIZN3trd8Backtest3runERKNS_6vectorINS3_3BarENS_9allocatorIS6_EEEER8StrategyE3$_0NS7_ISE_EEFvRKNS_7variantIJN6events11MarketEventENSH_11SignalEventENSH_10OrderEventENSH_9FillEventEEEEEEENS_22__allocator_destructorINS7_ISQ_EEEEEC2B8ue170006ILb1EvEEPSQ_NS_16__dependent_typeINS_27__unique_ptr_deleter_sfinaeIST_EEXT_EE20__good_rval_ref_typeE', symObjAddr: 0x9CB4, symBinAddr: 0x10000CBC0, symSize: 0x48 }
  - { offsetInCU: 0x247B7, offset: 0x24B24, size: 0x8, addend: 0x0, symName: '__ZNSt3__117__compressed_pairIPNS_10__function6__funcIZN3trd8Backtest3runERKNS_6vectorINS3_3BarENS_9allocatorIS6_EEEER8StrategyE3$_0NS7_ISE_EEFvRKNS_7variantIJN6events11MarketEventENSH_11SignalEventENSH_10OrderEventENSH_9FillEventEEEEEEENS_22__allocator_destructorINS7_ISQ_EEEEEC1B8ue170006IRSR_SU_EEOT_OT0_', symObjAddr: 0x9CFC, symBinAddr: 0x10000CC08, symSize: 0x3C }
  - { offsetInCU: 0x2480E, offset: 0x24B7B, size: 0x8, addend: 0x0, symName: '__ZNSt3__117__compressed_pairIPNS_10__function6__funcIZN3trd8Backtest3runERKNS_6vectorINS3_3BarENS_9allocatorIS6_EEEER8StrategyE3$_0NS7_ISE_EEFvRKNS_7variantIJN6events11MarketEventENSH_11SignalEventENSH_10OrderEventENSH_9FillEventEEEEEEENS_22__allocator_destructorINS7_ISQ_EEEEEC2B8ue170006IRSR_SU_EEOT_OT0_', symObjAddr: 0x9D38, symBinAddr: 0x10000CC44, symSize: 0x48 }
  - { offsetInCU: 0x24865, offset: 0x24BD2, size: 0x8, addend: 0x0, symName: '__ZNSt3__122__compressed_pair_elemIPNS_10__function6__funcIZN3trd8Backtest3runERKNS_6vectorINS3_3BarENS_9allocatorIS6_EEEER8StrategyE3$_0NS7_ISE_EEFvRKNS_7variantIJN6events11MarketEventENSH_11SignalEventENSH_10OrderEventENSH_9FillEventEEEEEEELi0ELb0EEC2B8ue170006IRSR_vEEOT_', symObjAddr: 0x9D80, symBinAddr: 0x10000CC8C, symSize: 0x24 }
  - { offsetInCU: 0x248A6, offset: 0x24C13, size: 0x8, addend: 0x0, symName: '__ZNSt3__122__compressed_pair_elemINS_22__allocator_destructorINS_9allocatorINS_10__function6__funcIZN3trd8Backtest3runERKNS_6vectorINS5_3BarENS2_IS8_EEEER8StrategyE3$_0NS2_ISF_EEFvRKNS_7variantIJN6events11MarketEventENSI_11SignalEventENSI_10OrderEventENSI_9FillEventEEEEEEEEEEELi1ELb0EEC2B8ue170006IST_vEEOT_', symObjAddr: 0x9DA4, symBinAddr: 0x10000CCB0, symSize: 0x24 }
  - { offsetInCU: 0x248E7, offset: 0x24C54, size: 0x8, addend: 0x0, symName: '__ZNKSt3__117__compressed_pairIPNS_10__function6__funcIZN3trd8Backtest3runERKNS_6vectorINS3_3BarENS_9allocatorIS6_EEEER8StrategyE3$_0NS7_ISE_EEFvRKNS_7variantIJN6events11MarketEventENSH_11SignalEventENSH_10OrderEventENSH_9FillEventEEEEEEENS_22__allocator_destructorINS7_ISQ_EEEEE5firstB8ue170006Ev', symObjAddr: 0x9DC8, symBinAddr: 0x10000CCD4, symSize: 0x24 }
  - { offsetInCU: 0x2490C, offset: 0x24C79, size: 0x8, addend: 0x0, symName: '__ZNKSt3__122__compressed_pair_elemIPNS_10__function6__funcIZN3trd8Backtest3runERKNS_6vectorINS3_3BarENS_9allocatorIS6_EEEER8StrategyE3$_0NS7_ISE_EEFvRKNS_7variantIJN6events11MarketEventENSH_11SignalEventENSH_10OrderEventENSH_9FillEventEEEEEEELi0ELb0EE5__getB8ue170006Ev', symObjAddr: 0x9DEC, symBinAddr: 0x10000CCF8, symSize: 0x14 }
  - { offsetInCU: 0x24931, offset: 0x24C9E, size: 0x8, addend: 0x0, symName: '__ZNKSt3__117__compressed_pairIZN3trd8Backtest3runERKNS_6vectorINS1_3BarENS_9allocatorIS4_EEEER8StrategyE3$_0NS5_ISC_EEE5firstB8ue170006Ev', symObjAddr: 0x9E00, symBinAddr: 0x10000CD0C, symSize: 0x24 }
  - { offsetInCU: 0x24956, offset: 0x24CC3, size: 0x8, addend: 0x0, symName: '__ZNKSt3__122__compressed_pair_elemIZN3trd8Backtest3runERKNS_6vectorINS1_3BarENS_9allocatorIS4_EEEER8StrategyE3$_0Li0ELb0EE5__getB8ue170006Ev', symObjAddr: 0x9E24, symBinAddr: 0x10000CD30, symSize: 0x14 }
  - { offsetInCU: 0x2497B, offset: 0x24CE8, size: 0x8, addend: 0x0, symName: '__ZNSt3__110__function6__funcIZN3trd8Backtest3runERKNS_6vectorINS2_3BarENS_9allocatorIS5_EEEER8StrategyE3$_0NS6_ISD_EEFvRKNS_7variantIJN6events11MarketEventENSG_11SignalEventENSG_10OrderEventENSG_9FillEventEEEEEEC2B8ue170006ERKSD_OSE_', symObjAddr: 0x9E38, symBinAddr: 0x10000CD44, symSize: 0x88 }
  - { offsetInCU: 0x249C2, offset: 0x24D2F, size: 0x8, addend: 0x0, symName: '__ZNSt3__110__function12__alloc_funcIZN3trd8Backtest3runERKNS_6vectorINS2_3BarENS_9allocatorIS5_EEEER8StrategyE3$_0NS6_ISD_EEFvRKNS_7variantIJN6events11MarketEventENSG_11SignalEventENSG_10OrderEventENSG_9FillEventEEEEEEC1B8ue170006ERKSD_OSE_', symObjAddr: 0x9EC0, symBinAddr: 0x10000CDCC, symSize: 0x3C }
  - { offsetInCU: 0x24A07, offset: 0x24D74, size: 0x8, addend: 0x0, symName: '__ZNSt3__110__function12__alloc_funcIZN3trd8Backtest3runERKNS_6vectorINS2_3BarENS_9allocatorIS5_EEEER8StrategyE3$_0NS6_ISD_EEFvRKNS_7variantIJN6events11MarketEventENSG_11SignalEventENSG_10OrderEventENSG_9FillEventEEEEEEC2B8ue170006ERKSD_OSE_', symObjAddr: 0x9EFC, symBinAddr: 0x10000CE08, symSize: 0x5C }
  - { offsetInCU: 0x24A4C, offset: 0x24DB9, size: 0x8, addend: 0x0, symName: '__ZNSt3__117__compressed_pairIZN3trd8Backtest3runERKNS_6vectorINS1_3BarENS_9allocatorIS4_EEEER8StrategyE3$_0NS5_ISC_EEEC1B8ue170006IJRKSC_EJOSD_EEENS_21piecewise_construct_tENS_5tupleIJDpT_EEENSK_IJDpT0_EEE', symObjAddr: 0x9F84, symBinAddr: 0x10000CE90, symSize: 0x3C }
  - { offsetInCU: 0x24AB5, offset: 0x24E22, size: 0x8, addend: 0x0, symName: '__ZNSt3__15tupleIJRKZN3trd8Backtest3runERKNS_6vectorINS1_3BarENS_9allocatorIS4_EEEER8StrategyE3$_0EEC1B8ue170006INS_4_AndELi0EEESE_', symObjAddr: 0x9FC0, symBinAddr: 0x10000CECC, symSize: 0x34 }
  - { offsetInCU: 0x24AFD, offset: 0x24E6A, size: 0x8, addend: 0x0, symName: '__ZNSt3__15tupleIJRKZN3trd8Backtest3runERKNS_6vectorINS1_3BarENS_9allocatorIS4_EEEER8StrategyE3$_0EEC2B8ue170006INS_4_AndELi0EEESE_', symObjAddr: 0x9FF4, symBinAddr: 0x10000CF00, symSize: 0x34 }
  - { offsetInCU: 0x24B45, offset: 0x24EB2, size: 0x8, addend: 0x0, symName: '__ZNSt3__112__tuple_implINS_15__tuple_indicesIJLm0EEEEJRKZN3trd8Backtest3runERKNS_6vectorINS3_3BarENS_9allocatorIS6_EEEER8StrategyE3$_0EEC1B8ue170006IJLm0EEJSG_EJEJEJSG_EEENS1_IJXspT_EEEENS_13__tuple_typesIJDpT0_EEENS1_IJXspT1_EEEENSK_IJDpT2_EEEDpOT3_', symObjAddr: 0xA028, symBinAddr: 0x10000CF34, symSize: 0x34 }
  - { offsetInCU: 0x24BD9, offset: 0x24F46, size: 0x8, addend: 0x0, symName: '__ZNSt3__112__tuple_implINS_15__tuple_indicesIJLm0EEEEJRKZN3trd8Backtest3runERKNS_6vectorINS3_3BarENS_9allocatorIS6_EEEER8StrategyE3$_0EEC2B8ue170006IJLm0EEJSG_EJEJEJSG_EEENS1_IJXspT_EEEENS_13__tuple_typesIJDpT0_EEENS1_IJXspT1_EEEENSK_IJDpT2_EEEDpOT3_', symObjAddr: 0xA05C, symBinAddr: 0x10000CF68, symSize: 0x34 }
  - { offsetInCU: 0x24C6D, offset: 0x24FDA, size: 0x8, addend: 0x0, symName: '__ZNSt3__112__tuple_leafILm0ERKZN3trd8Backtest3runERKNS_6vectorINS1_3BarENS_9allocatorIS4_EEEER8StrategyE3$_0Lb0EEC2B8ue170006ISE_vEEOT_', symObjAddr: 0xA090, symBinAddr: 0x10000CF9C, symSize: 0x20 }
  - { offsetInCU: 0x24CAF, offset: 0x2501C, size: 0x8, addend: 0x0, symName: '__ZNSt3__117__compressed_pairIZN3trd8Backtest3runERKNS_6vectorINS1_3BarENS_9allocatorIS4_EEEER8StrategyE3$_0NS5_ISC_EEEC2B8ue170006IJRKSC_EJOSD_EEENS_21piecewise_construct_tENS_5tupleIJDpT_EEENSK_IJDpT0_EEE', symObjAddr: 0xA0B0, symBinAddr: 0x10000CFBC, symSize: 0x54 }
  - { offsetInCU: 0x24D18, offset: 0x25085, size: 0x8, addend: 0x0, symName: '__ZNSt3__122__compressed_pair_elemIZN3trd8Backtest3runERKNS_6vectorINS1_3BarENS_9allocatorIS4_EEEER8StrategyE3$_0Li0ELb0EEC2B8ue170006IJRKSC_EJLm0EEEENS_21piecewise_construct_tENS_5tupleIJDpT_EEENS_15__tuple_indicesIJXspT0_EEEE', symObjAddr: 0xA104, symBinAddr: 0x10000D010, symSize: 0x44 }
  - { offsetInCU: 0x24D7A, offset: 0x250E7, size: 0x8, addend: 0x0, symName: '__ZNSt3__112__tuple_leafILm0ERKZN3trd8Backtest3runERKNS_6vectorINS1_3BarENS_9allocatorIS4_EEEER8StrategyE3$_0Lb0EE3getB8ue170006Ev', symObjAddr: 0xA16C, symBinAddr: 0x10000D078, symSize: 0x18 }
  - { offsetInCU: 0x24D9F, offset: 0x2510C, size: 0x8, addend: 0x0, symName: '__ZNSt3__117__compressed_pairIPNS_10__function6__funcIZN3trd8Backtest3runERKNS_6vectorINS3_3BarENS_9allocatorIS6_EEEER8StrategyE3$_0NS7_ISE_EEFvRKNS_7variantIJN6events11MarketEventENSH_11SignalEventENSH_10OrderEventENSH_9FillEventEEEEEEENS_22__allocator_destructorINS7_ISQ_EEEEE5firstB8ue170006Ev', symObjAddr: 0xA184, symBinAddr: 0x10000D090, symSize: 0x24 }
  - { offsetInCU: 0x24DC4, offset: 0x25131, size: 0x8, addend: 0x0, symName: '__ZNSt3__122__compressed_pair_elemIPNS_10__function6__funcIZN3trd8Backtest3runERKNS_6vectorINS3_3BarENS_9allocatorIS6_EEEER8StrategyE3$_0NS7_ISE_EEFvRKNS_7variantIJN6events11MarketEventENSH_11SignalEventENSH_10OrderEventENSH_9FillEventEEEEEEELi0ELb0EE5__getB8ue170006Ev', symObjAddr: 0xA1A8, symBinAddr: 0x10000D0B4, symSize: 0x14 }
  - { offsetInCU: 0x24DE9, offset: 0x25156, size: 0x8, addend: 0x0, symName: '__ZNSt3__110unique_ptrINS_10__function6__funcIZN3trd8Backtest3runERKNS_6vectorINS3_3BarENS_9allocatorIS6_EEEER8StrategyE3$_0NS7_ISE_EEFvRKNS_7variantIJN6events11MarketEventENSH_11SignalEventENSH_10OrderEventENSH_9FillEventEEEEEEENS_22__allocator_destructorINS7_ISQ_EEEEED2B8ue170006Ev', symObjAddr: 0xA1BC, symBinAddr: 0x10000D0C8, symSize: 0x30 }
  - { offsetInCU: 0x24E12, offset: 0x2517F, size: 0x8, addend: 0x0, symName: '__ZNSt3__110unique_ptrINS_10__function6__funcIZN3trd8Backtest3runERKNS_6vectorINS3_3BarENS_9allocatorIS6_EEEER8StrategyE3$_0NS7_ISE_EEFvRKNS_7variantIJN6events11MarketEventENSH_11SignalEventENSH_10OrderEventENSH_9FillEventEEEEEEENS_22__allocator_destructorINS7_ISQ_EEEEE5resetB8ue170006EPSQ_', symObjAddr: 0xA1EC, symBinAddr: 0x10000D0F8, symSize: 0x78 }
  - { offsetInCU: 0x24E55, offset: 0x251C2, size: 0x8, addend: 0x0, symName: '__ZNSt3__117__compressed_pairIPNS_10__function6__funcIZN3trd8Backtest3runERKNS_6vectorINS3_3BarENS_9allocatorIS6_EEEER8StrategyE3$_0NS7_ISE_EEFvRKNS_7variantIJN6events11MarketEventENSH_11SignalEventENSH_10OrderEventENSH_9FillEventEEEEEEENS_22__allocator_destructorINS7_ISQ_EEEEE6secondB8ue170006Ev', symObjAddr: 0xA264, symBinAddr: 0x10000D170, symSize: 0x28 }
  - { offsetInCU: 0x24E7A, offset: 0x251E7, size: 0x8, addend: 0x0, symName: '__ZNSt3__122__allocator_destructorINS_9allocatorINS_10__function6__funcIZN3trd8Backtest3runERKNS_6vectorINS4_3BarENS1_IS7_EEEER8StrategyE3$_0NS1_ISE_EEFvRKNS_7variantIJN6events11MarketEventENSH_11SignalEventENSH_10OrderEventENSH_9FillEventEEEEEEEEEEclB8ue170006EPSQ_', symObjAddr: 0xA28C, symBinAddr: 0x10000D198, symSize: 0x34 }
  - { offsetInCU: 0x24EAD, offset: 0x2521A, size: 0x8, addend: 0x0, symName: '__ZNSt3__122__compressed_pair_elemINS_22__allocator_destructorINS_9allocatorINS_10__function6__funcIZN3trd8Backtest3runERKNS_6vectorINS5_3BarENS2_IS8_EEEER8StrategyE3$_0NS2_ISF_EEFvRKNS_7variantIJN6events11MarketEventENSI_11SignalEventENSI_10OrderEventENSI_9FillEventEEEEEEEEEEELi1ELb0EE5__getB8ue170006Ev', symObjAddr: 0xA2C0, symBinAddr: 0x10000D1CC, symSize: 0x14 }
  - { offsetInCU: 0x24ED2, offset: 0x2523F, size: 0x8, addend: 0x0, symName: '__ZNSt3__116allocator_traitsINS_9allocatorINS_10__function6__funcIZN3trd8Backtest3runERKNS_6vectorINS4_3BarENS1_IS7_EEEER8StrategyE3$_0NS1_ISE_EEFvRKNS_7variantIJN6events11MarketEventENSH_11SignalEventENSH_10OrderEventENSH_9FillEventEEEEEEEEEE10deallocateB8ue170006ERSR_PSQ_m', symObjAddr: 0xA2D4, symBinAddr: 0x10000D1E0, symSize: 0x34 }
  - { offsetInCU: 0x24F14, offset: 0x25281, size: 0x8, addend: 0x0, symName: '__ZNSt3__19allocatorINS_10__function6__funcIZN3trd8Backtest3runERKNS_6vectorINS3_3BarENS0_IS6_EEEER8StrategyE3$_0NS0_ISD_EEFvRKNS_7variantIJN6events11MarketEventENSG_11SignalEventENSG_10OrderEventENSG_9FillEventEEEEEEEE10deallocateB8ue170006EPSP_m', symObjAddr: 0xA308, symBinAddr: 0x10000D214, symSize: 0x40 }
  - { offsetInCU: 0x24F55, offset: 0x252C2, size: 0x8, addend: 0x0, symName: '__ZNSt3__110__function6__funcIZN3trd8Backtest3runERKNS_6vectorINS2_3BarENS_9allocatorIS5_EEEER8StrategyE3$_0NS6_ISD_EEFvRKNS_7variantIJN6events11MarketEventENSG_11SignalEventENSG_10OrderEventENSG_9FillEventEEEEEEC1B8ue170006ERKSD_RKSE_', symObjAddr: 0xA348, symBinAddr: 0x10000D254, symSize: 0x3C }
  - { offsetInCU: 0x24F9C, offset: 0x25309, size: 0x8, addend: 0x0, symName: '__ZNSt3__110__function6__funcIZN3trd8Backtest3runERKNS_6vectorINS2_3BarENS_9allocatorIS5_EEEER8StrategyE3$_0NS6_ISD_EEFvRKNS_7variantIJN6events11MarketEventENSG_11SignalEventENSG_10OrderEventENSG_9FillEventEEEEEEC2B8ue170006ERKSD_RKSE_', symObjAddr: 0xA384, symBinAddr: 0x10000D290, symSize: 0x88 }
  - { offsetInCU: 0x24FE3, offset: 0x25350, size: 0x8, addend: 0x0, symName: '__ZNSt3__110__function12__alloc_funcIZN3trd8Backtest3runERKNS_6vectorINS2_3BarENS_9allocatorIS5_EEEER8StrategyE3$_0NS6_ISD_EEFvRKNS_7variantIJN6events11MarketEventENSG_11SignalEventENSG_10OrderEventENSG_9FillEventEEEEEEC1B8ue170006ERKSD_RKSE_', symObjAddr: 0xA40C, symBinAddr: 0x10000D318, symSize: 0x3C }
  - { offsetInCU: 0x25028, offset: 0x25395, size: 0x8, addend: 0x0, symName: '__ZNSt3__110__function12__alloc_funcIZN3trd8Backtest3runERKNS_6vectorINS2_3BarENS_9allocatorIS5_EEEER8StrategyE3$_0NS6_ISD_EEFvRKNS_7variantIJN6events11MarketEventENSG_11SignalEventENSG_10OrderEventENSG_9FillEventEEEEEEC2B8ue170006ERKSD_RKSE_', symObjAddr: 0xA448, symBinAddr: 0x10000D354, symSize: 0x5C }
  - { offsetInCU: 0x2506D, offset: 0x253DA, size: 0x8, addend: 0x0, symName: '__ZNSt3__117__compressed_pairIZN3trd8Backtest3runERKNS_6vectorINS1_3BarENS_9allocatorIS4_EEEER8StrategyE3$_0NS5_ISC_EEEC1B8ue170006IJRKSC_EJRKSD_EEENS_21piecewise_construct_tENS_5tupleIJDpT_EEENSL_IJDpT0_EEE', symObjAddr: 0xA4D0, symBinAddr: 0x10000D3DC, symSize: 0x3C }
  - { offsetInCU: 0x250D6, offset: 0x25443, size: 0x8, addend: 0x0, symName: '__ZNSt3__15tupleIJRKNS_9allocatorIZN3trd8Backtest3runERKNS_6vectorINS2_3BarENS1_IS5_EEEER8StrategyE3$_0EEEEC1B8ue170006INS_4_AndELi0EEESF_', symObjAddr: 0xA50C, symBinAddr: 0x10000D418, symSize: 0x34 }
  - { offsetInCU: 0x2511E, offset: 0x2548B, size: 0x8, addend: 0x0, symName: '__ZNSt3__15tupleIJRKNS_9allocatorIZN3trd8Backtest3runERKNS_6vectorINS2_3BarENS1_IS5_EEEER8StrategyE3$_0EEEEC2B8ue170006INS_4_AndELi0EEESF_', symObjAddr: 0xA540, symBinAddr: 0x10000D44C, symSize: 0x34 }
  - { offsetInCU: 0x25166, offset: 0x254D3, size: 0x8, addend: 0x0, symName: '__ZNSt3__112__tuple_implINS_15__tuple_indicesIJLm0EEEEJRKNS_9allocatorIZN3trd8Backtest3runERKNS_6vectorINS4_3BarENS3_IS7_EEEER8StrategyE3$_0EEEEC1B8ue170006IJLm0EEJSH_EJEJEJSH_EEENS1_IJXspT_EEEENS_13__tuple_typesIJDpT0_EEENS1_IJXspT1_EEEENSL_IJDpT2_EEEDpOT3_', symObjAddr: 0xA574, symBinAddr: 0x10000D480, symSize: 0x34 }
  - { offsetInCU: 0x251FA, offset: 0x25567, size: 0x8, addend: 0x0, symName: '__ZNSt3__112__tuple_implINS_15__tuple_indicesIJLm0EEEEJRKNS_9allocatorIZN3trd8Backtest3runERKNS_6vectorINS4_3BarENS3_IS7_EEEER8StrategyE3$_0EEEEC2B8ue170006IJLm0EEJSH_EJEJEJSH_EEENS1_IJXspT_EEEENS_13__tuple_typesIJDpT0_EEENS1_IJXspT1_EEEENSL_IJDpT2_EEEDpOT3_', symObjAddr: 0xA5A8, symBinAddr: 0x10000D4B4, symSize: 0x34 }
  - { offsetInCU: 0x2528E, offset: 0x255FB, size: 0x8, addend: 0x0, symName: '__ZNSt3__112__tuple_leafILm0ERKNS_9allocatorIZN3trd8Backtest3runERKNS_6vectorINS2_3BarENS1_IS5_EEEER8StrategyE3$_0EELb0EEC2B8ue170006ISF_vEEOT_', symObjAddr: 0xA5DC, symBinAddr: 0x10000D4E8, symSize: 0x20 }
  - { offsetInCU: 0x252D0, offset: 0x2563D, size: 0x8, addend: 0x0, symName: '__ZNSt3__117__compressed_pairIZN3trd8Backtest3runERKNS_6vectorINS1_3BarENS_9allocatorIS4_EEEER8StrategyE3$_0NS5_ISC_EEEC2B8ue170006IJRKSC_EJRKSD_EEENS_21piecewise_construct_tENS_5tupleIJDpT_EEENSL_IJDpT0_EEE', symObjAddr: 0xA5FC, symBinAddr: 0x10000D508, symSize: 0x54 }
  - { offsetInCU: 0x25339, offset: 0x256A6, size: 0x8, addend: 0x0, symName: '__ZNSt3__122__compressed_pair_elemINS_9allocatorIZN3trd8Backtest3runERKNS_6vectorINS2_3BarENS1_IS5_EEEER8StrategyE3$_0EELi1ELb1EEC2B8ue170006IJRKSD_EJLm0EEEENS_21piecewise_construct_tENS_5tupleIJDpT_EEENS_15__tuple_indicesIJXspT0_EEEE', symObjAddr: 0xA650, symBinAddr: 0x10000D55C, symSize: 0x38 }
  - { offsetInCU: 0x2539B, offset: 0x25708, size: 0x8, addend: 0x0, symName: '__ZNSt3__112__tuple_leafILm0ERKNS_9allocatorIZN3trd8Backtest3runERKNS_6vectorINS2_3BarENS1_IS5_EEEER8StrategyE3$_0EELb0EE3getB8ue170006Ev', symObjAddr: 0xA6AC, symBinAddr: 0x10000D5B8, symSize: 0x18 }
  - { offsetInCU: 0x253C0, offset: 0x2572D, size: 0x8, addend: 0x0, symName: '__ZNSt3__110__function12__alloc_funcIZN3trd8Backtest3runERKNS_6vectorINS2_3BarENS_9allocatorIS5_EEEER8StrategyE3$_0NS6_ISD_EEFvRKNS_7variantIJN6events11MarketEventENSG_11SignalEventENSG_10OrderEventENSG_9FillEventEEEEEE7destroyB8ue170006Ev', symObjAddr: 0xA6C4, symBinAddr: 0x10000D5D0, symSize: 0x10 }
  - { offsetInCU: 0x253E5, offset: 0x25752, size: 0x8, addend: 0x0, symName: '__ZNSt3__110__function12__alloc_funcIZN3trd8Backtest3runERKNS_6vectorINS2_3BarENS_9allocatorIS5_EEEER8StrategyE3$_0NS6_ISD_EEFvRKNS_7variantIJN6events11MarketEventENSG_11SignalEventENSG_10OrderEventENSG_9FillEventEEEEEEclB8ue170006ESN_', symObjAddr: 0xA6D4, symBinAddr: 0x10000D5E0, symSize: 0x30 }
  - { offsetInCU: 0x25418, offset: 0x25785, size: 0x8, addend: 0x0, symName: '__ZNSt3__128__invoke_void_return_wrapperIvLb1EE6__callB8ue170006IJRZN3trd8Backtest3runERKNS_6vectorINS3_3BarENS_9allocatorIS6_EEEER8StrategyE3$_0RKNS_7variantIJN6events11MarketEventENSH_11SignalEventENSH_10OrderEventENSH_9FillEventEEEEEEEvDpOT_', symObjAddr: 0xA704, symBinAddr: 0x10000D610, symSize: 0x2C }
  - { offsetInCU: 0x2545B, offset: 0x257C8, size: 0x8, addend: 0x0, symName: '__ZNSt3__117__compressed_pairIZN3trd8Backtest3runERKNS_6vectorINS1_3BarENS_9allocatorIS4_EEEER8StrategyE3$_0NS5_ISC_EEE5firstB8ue170006Ev', symObjAddr: 0xA730, symBinAddr: 0x10000D63C, symSize: 0x24 }
  - { offsetInCU: 0x25485, offset: 0x257F2, size: 0x8, addend: 0x0, symName: '__ZZN3trd8Backtest3runERKNSt3__16vectorINS_3BarENS1_9allocatorIS3_EEEER8StrategyENK3$_0clERKNS1_7variantIJN6events11MarketEventENSD_11SignalEventENSD_10OrderEventENSD_9FillEventEEEE', symObjAddr: 0xA780, symBinAddr: 0x10000D68C, symSize: 0x30 }
  - { offsetInCU: 0x254BC, offset: 0x25829, size: 0x8, addend: 0x0, symName: __ZN15StrategyHandler2onERKNSt3__17variantIJN6events11MarketEventENS2_11SignalEventENS2_10OrderEventENS2_9FillEventEEEE, symObjAddr: 0xA7B0, symBinAddr: 0x10000D6BC, symSize: 0xBC }
  - { offsetInCU: 0x25528, offset: 0x25895, size: 0x8, addend: 0x0, symName: __ZNSt3__17variantIJN6events11MarketEventENS1_11SignalEventENS1_10OrderEventENS1_9FillEventEEEC1B8ue170006IS3_Li0ELi0ELi0ES3_Lm1ELi0EEEOT_, symObjAddr: 0xA890, symBinAddr: 0x10000D79C, symSize: 0x34 }
  - { offsetInCU: 0x2559F, offset: 0x2590C, size: 0x8, addend: 0x0, symName: __ZNSt3__116__variant_detail8__access9__variant9__get_altB8ue170006ILm0ERKNS_7variantIJN6events11MarketEventENS5_11SignalEventENS5_10OrderEventENS5_9FillEventEEEEEEODaOT0_, symObjAddr: 0xA988, symBinAddr: 0x10000D894, symSize: 0x24 }
  - { offsetInCU: 0x255D6, offset: 0x25943, size: 0x8, addend: 0x0, symName: __ZNKSt3__17variantIJN6events11MarketEventENS1_11SignalEventENS1_10OrderEventENS1_9FillEventEEE5indexB8ue170006Ev, symObjAddr: 0xA9AC, symBinAddr: 0x10000D8B8, symSize: 0x24 }
  - { offsetInCU: 0x255FB, offset: 0x25968, size: 0x8, addend: 0x0, symName: __ZNKSt3__116__variant_detail6__baseILNS0_6_TraitE0EJN6events11MarketEventENS3_11SignalEventENS3_10OrderEventENS3_9FillEventEEE5indexB8ue170006Ev, symObjAddr: 0xA9D0, symBinAddr: 0x10000D8DC, symSize: 0x4C }
  - { offsetInCU: 0x25620, offset: 0x2598D, size: 0x8, addend: 0x0, symName: __ZNSt3__116__variant_detail8__access6__base9__get_altB8ue170006ILm0ERKNS0_6__implIJN6events11MarketEventENS5_11SignalEventENS5_10OrderEventENS5_9FillEventEEEEEEODaOT0_, symObjAddr: 0xAA1C, symBinAddr: 0x10000D928, symSize: 0x24 }
  - { offsetInCU: 0x25657, offset: 0x259C4, size: 0x8, addend: 0x0, symName: __ZNSt3__116__variant_detail8__access7__union9__get_altB8ue170006IRKNS0_7__unionILNS0_6_TraitE0ELm0EJN6events11MarketEventENS6_11SignalEventENS6_10OrderEventENS6_9FillEventEEEEEEODaOT_NS_16in_place_index_tILm0EEE, symObjAddr: 0xAA40, symBinAddr: 0x10000D94C, symSize: 0x14 }
  - { offsetInCU: 0x25690, offset: 0x259FD, size: 0x8, addend: 0x0, symName: __ZNSt3__17variantIJN6events11MarketEventENS1_11SignalEventENS1_10OrderEventENS1_9FillEventEEEC2B8ue170006IS3_Li0ELi0ELi0ES3_Lm1ELi0EEEOT_, symObjAddr: 0xAA54, symBinAddr: 0x10000D960, symSize: 0x3C }
  - { offsetInCU: 0x256FC, offset: 0x25A69, size: 0x8, addend: 0x0, symName: __ZNSt3__116__variant_detail6__implIJN6events11MarketEventENS2_11SignalEventENS2_10OrderEventENS2_9FillEventEEECI1NS0_6__baseILNS0_6_TraitE0EJS3_S4_S5_S6_EEEILm1EJS4_EEENS_16in_place_index_tIXT_EEEDpOT0_, symObjAddr: 0xAA90, symBinAddr: 0x10000D99C, symSize: 0x34 }
  - { offsetInCU: 0x2573A, offset: 0x25AA7, size: 0x8, addend: 0x0, symName: __ZNSt3__116__variant_detail6__implIJN6events11MarketEventENS2_11SignalEventENS2_10OrderEventENS2_9FillEventEEECI2NS0_6__baseILNS0_6_TraitE0EJS3_S4_S5_S6_EEEILm1EJS4_EEENS_16in_place_index_tIXT_EEEDpOT0_, symObjAddr: 0xAAC4, symBinAddr: 0x10000D9D0, symSize: 0x34 }
  - { offsetInCU: 0x25778, offset: 0x25AE5, size: 0x8, addend: 0x0, symName: __ZNSt3__116__variant_detail17__copy_assignmentINS0_8__traitsIJN6events11MarketEventENS3_11SignalEventENS3_10OrderEventENS3_9FillEventEEEELNS0_6_TraitE0EECI2NS0_6__baseILS9_0EJS4_S5_S6_S7_EEEILm1EJS5_EEENS_16in_place_index_tIXT_EEEDpOT0_, symObjAddr: 0xAAF8, symBinAddr: 0x10000DA04, symSize: 0x34 }
  - { offsetInCU: 0x257B6, offset: 0x25B23, size: 0x8, addend: 0x0, symName: __ZNSt3__116__variant_detail17__move_assignmentINS0_8__traitsIJN6events11MarketEventENS3_11SignalEventENS3_10OrderEventENS3_9FillEventEEEELNS0_6_TraitE0EECI2NS0_6__baseILS9_0EJS4_S5_S6_S7_EEEILm1EJS5_EEENS_16in_place_index_tIXT_EEEDpOT0_, symObjAddr: 0xAB2C, symBinAddr: 0x10000DA38, symSize: 0x34 }
  - { offsetInCU: 0x257F4, offset: 0x25B61, size: 0x8, addend: 0x0, symName: __ZNSt3__116__variant_detail12__assignmentINS0_8__traitsIJN6events11MarketEventENS3_11SignalEventENS3_10OrderEventENS3_9FillEventEEEEECI2NS0_6__baseILNS0_6_TraitE0EJS4_S5_S6_S7_EEEILm1EJS5_EEENS_16in_place_index_tIXT_EEEDpOT0_, symObjAddr: 0xAB60, symBinAddr: 0x10000DA6C, symSize: 0x34 }
  - { offsetInCU: 0x25832, offset: 0x25B9F, size: 0x8, addend: 0x0, symName: __ZNSt3__116__variant_detail18__copy_constructorINS0_8__traitsIJN6events11MarketEventENS3_11SignalEventENS3_10OrderEventENS3_9FillEventEEEELNS0_6_TraitE0EECI2NS0_6__baseILS9_0EJS4_S5_S6_S7_EEEILm1EJS5_EEENS_16in_place_index_tIXT_EEEDpOT0_, symObjAddr: 0xAB94, symBinAddr: 0x10000DAA0, symSize: 0x34 }
  - { offsetInCU: 0x25870, offset: 0x25BDD, size: 0x8, addend: 0x0, symName: __ZNSt3__116__variant_detail18__move_constructorINS0_8__traitsIJN6events11MarketEventENS3_11SignalEventENS3_10OrderEventENS3_9FillEventEEEELNS0_6_TraitE0EECI2NS0_6__baseILS9_0EJS4_S5_S6_S7_EEEILm1EJS5_EEENS_16in_place_index_tIXT_EEEDpOT0_, symObjAddr: 0xABC8, symBinAddr: 0x10000DAD4, symSize: 0x34 }
  - { offsetInCU: 0x258AE, offset: 0x25C1B, size: 0x8, addend: 0x0, symName: __ZNSt3__116__variant_detail6__ctorINS0_8__traitsIJN6events11MarketEventENS3_11SignalEventENS3_10OrderEventENS3_9FillEventEEEEECI2NS0_6__baseILNS0_6_TraitE0EJS4_S5_S6_S7_EEEILm1EJS5_EEENS_16in_place_index_tIXT_EEEDpOT0_, symObjAddr: 0xABFC, symBinAddr: 0x10000DB08, symSize: 0x34 }
  - { offsetInCU: 0x258EC, offset: 0x25C59, size: 0x8, addend: 0x0, symName: __ZNSt3__116__variant_detail6__dtorINS0_8__traitsIJN6events11MarketEventENS3_11SignalEventENS3_10OrderEventENS3_9FillEventEEEELNS0_6_TraitE0EECI2NS0_6__baseILS9_0EJS4_S5_S6_S7_EEEILm1EJS5_EEENS_16in_place_index_tIXT_EEEDpOT0_, symObjAddr: 0xAC30, symBinAddr: 0x10000DB3C, symSize: 0x34 }
  - { offsetInCU: 0x2592A, offset: 0x25C97, size: 0x8, addend: 0x0, symName: __ZNSt3__116__variant_detail6__baseILNS0_6_TraitE0EJN6events11MarketEventENS3_11SignalEventENS3_10OrderEventENS3_9FillEventEEEC2B8ue170006ILm1EJS5_EEENS_16in_place_index_tIXT_EEEDpOT0_, symObjAddr: 0xAC64, symBinAddr: 0x10000DB70, symSize: 0x3C }
  - { offsetInCU: 0x25983, offset: 0x25CF0, size: 0x8, addend: 0x0, symName: __ZNSt3__116__variant_detail7__unionILNS0_6_TraitE0ELm0EJN6events11MarketEventENS3_11SignalEventENS3_10OrderEventENS3_9FillEventEEEC1B8ue170006ILm1EJS5_EEENS_16in_place_index_tIXT_EEEDpOT0_, symObjAddr: 0xACA0, symBinAddr: 0x10000DBAC, symSize: 0x34 }
  - { offsetInCU: 0x259DC, offset: 0x25D49, size: 0x8, addend: 0x0, symName: __ZNSt3__116__variant_detail7__unionILNS0_6_TraitE0ELm0EJN6events11MarketEventENS3_11SignalEventENS3_10OrderEventENS3_9FillEventEEEC2B8ue170006ILm1EJS5_EEENS_16in_place_index_tIXT_EEEDpOT0_, symObjAddr: 0xACD4, symBinAddr: 0x10000DBE0, symSize: 0x34 }
  - { offsetInCU: 0x25A35, offset: 0x25DA2, size: 0x8, addend: 0x0, symName: __ZNSt3__116__variant_detail7__unionILNS0_6_TraitE0ELm1EJN6events11SignalEventENS3_10OrderEventENS3_9FillEventEEEC1B8ue170006IJS4_EEENS_16in_place_index_tILm0EEEDpOT_, symObjAddr: 0xAD08, symBinAddr: 0x10000DC14, symSize: 0x34 }
  - { offsetInCU: 0x25A84, offset: 0x25DF1, size: 0x8, addend: 0x0, symName: __ZNSt3__116__variant_detail7__unionILNS0_6_TraitE0ELm1EJN6events11SignalEventENS3_10OrderEventENS3_9FillEventEEEC2B8ue170006IJS4_EEENS_16in_place_index_tILm0EEEDpOT_, symObjAddr: 0xAD3C, symBinAddr: 0x10000DC48, symSize: 0x34 }
  - { offsetInCU: 0x25AD8, offset: 0x25E45, size: 0x8, addend: 0x0, symName: __ZNSt3__116__variant_detail5__altILm1EN6events11SignalEventEEC1B8ue170006IJS3_EEENS_10in_place_tEDpOT_, symObjAddr: 0xAD70, symBinAddr: 0x10000DC7C, symSize: 0x34 }
  - { offsetInCU: 0x25B27, offset: 0x25E94, size: 0x8, addend: 0x0, symName: __ZNSt3__116__variant_detail5__altILm1EN6events11SignalEventEEC2B8ue170006IJS3_EEENS_10in_place_tEDpOT_, symObjAddr: 0xADA4, symBinAddr: 0x10000DCB0, symSize: 0x24 }
  - { offsetInCU: 0x25B76, offset: 0x25EE3, size: 0x8, addend: 0x0, symName: '__ZNSt3__122__compressed_pair_elemIZN3trd8Backtest3runERKNS_6vectorINS1_3BarENS_9allocatorIS4_EEEER8StrategyE3$_0Li0ELb0EE5__getB8ue170006Ev', symObjAddr: 0xADC8, symBinAddr: 0x10000DCD4, symSize: 0x14 }
  - { offsetInCU: 0x25BD1, offset: 0x25F3E, size: 0x8, addend: 0x0, symName: __ZNKSt9type_infoeqB8ue170006ERKS_, symObjAddr: 0xADDC, symBinAddr: 0x10000DCE8, symSize: 0xDC }
  - { offsetInCU: 0x25C6E, offset: 0x25FDB, size: 0x8, addend: 0x0, symName: __ZNSt27__type_info_implementations30__non_unique_arm_rtti_bit_impl21__is_type_name_uniqueB8ue170006Em, symObjAddr: 0xAEB8, symBinAddr: 0x10000DDC4, symSize: 0x20 }
  - { offsetInCU: 0x25C92, offset: 0x25FFF, size: 0x8, addend: 0x0, symName: __ZNSt3__18functionIFvRKNS_7variantIJN6events11MarketEventENS2_11SignalEventENS2_10OrderEventENS2_9FillEventEEEEEED2Ev, symObjAddr: 0xAED8, symBinAddr: 0x10000DDE4, symSize: 0x2C }
  - { offsetInCU: 0x25CBD, offset: 0x2602A, size: 0x8, addend: 0x0, symName: __ZNSt3__110__function12__value_funcIFvRKNS_7variantIJN6events11MarketEventENS3_11SignalEventENS3_10OrderEventENS3_9FillEventEEEEEED1B8ue170006Ev, symObjAddr: 0xAF04, symBinAddr: 0x10000DE10, symSize: 0x2C }
  - { offsetInCU: 0x25CE6, offset: 0x26053, size: 0x8, addend: 0x0, symName: __ZNSt3__110__function12__value_funcIFvRKNS_7variantIJN6events11MarketEventENS3_11SignalEventENS3_10OrderEventENS3_9FillEventEEEEEED2B8ue170006Ev, symObjAddr: 0xAF30, symBinAddr: 0x10000DE3C, symSize: 0x90 }
  - { offsetInCU: 0x25D0F, offset: 0x2607C, size: 0x8, addend: 0x0, symName: '__ZNSt3__18functionIFvRKNS_7variantIJN6events11MarketEventENS2_11SignalEventENS2_10OrderEventENS2_9FillEventEEEEEEC2IZN3trd8Backtest3runERKNS_6vectorINSD_3BarENS_9allocatorISG_EEEER8StrategyE3$_1vEET_', symObjAddr: 0xAFC0, symBinAddr: 0x10000DECC, symSize: 0x38 }
  - { offsetInCU: 0x25D53, offset: 0x260C0, size: 0x8, addend: 0x0, symName: '__ZNSt3__110__function12__value_funcIFvRKNS_7variantIJN6events11MarketEventENS3_11SignalEventENS3_10OrderEventENS3_9FillEventEEEEEEC1B8ue170006IZN3trd8Backtest3runERKNS_6vectorINSE_3BarENS_9allocatorISH_EEEER8StrategyE3$_1vEEOT_', symObjAddr: 0xAFF8, symBinAddr: 0x10000DF04, symSize: 0x50 }
  - { offsetInCU: 0x25D95, offset: 0x26102, size: 0x8, addend: 0x0, symName: '__ZNSt3__19allocatorIZN3trd8Backtest3runERKNS_6vectorINS1_3BarENS0_IS4_EEEER8StrategyE3$_1EC1B8ue170006Ev', symObjAddr: 0xB048, symBinAddr: 0x10000DF54, symSize: 0x2C }
  - { offsetInCU: 0x25DBE, offset: 0x2612B, size: 0x8, addend: 0x0, symName: '__ZNSt3__110__function12__value_funcIFvRKNS_7variantIJN6events11MarketEventENS3_11SignalEventENS3_10OrderEventENS3_9FillEventEEEEEEC1B8ue170006IZN3trd8Backtest3runERKNS_6vectorINSE_3BarENS_9allocatorISH_EEEER8StrategyE3$_1NSI_ISP_EEEEOT_RKT0_', symObjAddr: 0xB074, symBinAddr: 0x10000DF80, symSize: 0x3C }
  - { offsetInCU: 0x25E17, offset: 0x26184, size: 0x8, addend: 0x0, symName: '__ZNSt3__19allocatorIZN3trd8Backtest3runERKNS_6vectorINS1_3BarENS0_IS4_EEEER8StrategyE3$_1EC2B8ue170006Ev', symObjAddr: 0xB0B0, symBinAddr: 0x10000DFBC, symSize: 0x2C }
  - { offsetInCU: 0x25E40, offset: 0x261AD, size: 0x8, addend: 0x0, symName: '__ZNSt3__116__non_trivial_ifILb1ENS_9allocatorIZN3trd8Backtest3runERKNS_6vectorINS2_3BarENS1_IS5_EEEER8StrategyE3$_1EEEC2B8ue170006Ev', symObjAddr: 0xB0DC, symBinAddr: 0x10000DFE8, symSize: 0x14 }
  - { offsetInCU: 0x25E69, offset: 0x261D6, size: 0x8, addend: 0x0, symName: '__ZNSt3__110__function12__value_funcIFvRKNS_7variantIJN6events11MarketEventENS3_11SignalEventENS3_10OrderEventENS3_9FillEventEEEEEEC2B8ue170006IZN3trd8Backtest3runERKNS_6vectorINSE_3BarENS_9allocatorISH_EEEER8StrategyE3$_1NSI_ISP_EEEEOT_RKT0_', symObjAddr: 0xB0F0, symBinAddr: 0x10000DFFC, symSize: 0x94 }
  - { offsetInCU: 0x25F11, offset: 0x2627E, size: 0x8, addend: 0x0, symName: '__ZNSt3__19allocatorINS_10__function6__funcIZN3trd8Backtest3runERKNS_6vectorINS3_3BarENS0_IS6_EEEER8StrategyE3$_1NS0_ISD_EEFvRKNS_7variantIJN6events11MarketEventENSG_11SignalEventENSG_10OrderEventENSG_9FillEventEEEEEEEEC1B8ue170006ISD_EERKNS0_IT_EE', symObjAddr: 0xB19C, symBinAddr: 0x10000E0A8, symSize: 0x34 }
  - { offsetInCU: 0x25F53, offset: 0x262C0, size: 0x8, addend: 0x0, symName: '__ZNSt3__19allocatorIZN3trd8Backtest3runERKNS_6vectorINS1_3BarENS0_IS4_EEEER8StrategyE3$_1EC1B8ue170006INS_10__function6__funcISB_SC_FvRKNS_7variantIJN6events11MarketEventENSH_11SignalEventENSH_10OrderEventENSH_9FillEventEEEEEEEEERKNS0_IT_EE', symObjAddr: 0xB1D0, symBinAddr: 0x10000E0DC, symSize: 0x34 }
  - { offsetInCU: 0x25F8F, offset: 0x262FC, size: 0x8, addend: 0x0, symName: '__ZNSt3__110__function6__funcIZN3trd8Backtest3runERKNS_6vectorINS2_3BarENS_9allocatorIS5_EEEER8StrategyE3$_1NS6_ISD_EEFvRKNS_7variantIJN6events11MarketEventENSG_11SignalEventENSG_10OrderEventENSG_9FillEventEEEEEEC1B8ue170006EOSD_OSE_', symObjAddr: 0xB204, symBinAddr: 0x10000E110, symSize: 0x3C }
  - { offsetInCU: 0x25FD6, offset: 0x26343, size: 0x8, addend: 0x0, symName: '__ZNSt3__19allocatorINS_10__function6__funcIZN3trd8Backtest3runERKNS_6vectorINS3_3BarENS0_IS6_EEEER8StrategyE3$_1NS0_ISD_EEFvRKNS_7variantIJN6events11MarketEventENSG_11SignalEventENSG_10OrderEventENSG_9FillEventEEEEEEEEC2B8ue170006ISD_EERKNS0_IT_EE', symObjAddr: 0xB240, symBinAddr: 0x10000E14C, symSize: 0x30 }
  - { offsetInCU: 0x26012, offset: 0x2637F, size: 0x8, addend: 0x0, symName: '__ZNSt3__116__non_trivial_ifILb1ENS_9allocatorINS_10__function6__funcIZN3trd8Backtest3runERKNS_6vectorINS4_3BarENS1_IS7_EEEER8StrategyE3$_1NS1_ISE_EEFvRKNS_7variantIJN6events11MarketEventENSH_11SignalEventENSH_10OrderEventENSH_9FillEventEEEEEEEEEEC2B8ue170006Ev', symObjAddr: 0xB270, symBinAddr: 0x10000E17C, symSize: 0x14 }
  - { offsetInCU: 0x2603B, offset: 0x263A8, size: 0x8, addend: 0x0, symName: '__ZNSt3__19allocatorIZN3trd8Backtest3runERKNS_6vectorINS1_3BarENS0_IS4_EEEER8StrategyE3$_1EC2B8ue170006INS_10__function6__funcISB_SC_FvRKNS_7variantIJN6events11MarketEventENSH_11SignalEventENSH_10OrderEventENSH_9FillEventEEEEEEEEERKNS0_IT_EE', symObjAddr: 0xB284, symBinAddr: 0x10000E190, symSize: 0x30 }
  - { offsetInCU: 0x26077, offset: 0x263E4, size: 0x8, addend: 0x0, symName: '__ZNSt3__110__function6__funcIZN3trd8Backtest3runERKNS_6vectorINS2_3BarENS_9allocatorIS5_EEEER8StrategyE3$_1NS6_ISD_EEFvRKNS_7variantIJN6events11MarketEventENSG_11SignalEventENSG_10OrderEventENSG_9FillEventEEEEEEC2B8ue170006EOSD_OSE_', symObjAddr: 0xB2B4, symBinAddr: 0x10000E1C0, symSize: 0x88 }
  - { offsetInCU: 0x260BE, offset: 0x2642B, size: 0x8, addend: 0x0, symName: '__ZNSt3__110__function12__alloc_funcIZN3trd8Backtest3runERKNS_6vectorINS2_3BarENS_9allocatorIS5_EEEER8StrategyE3$_1NS6_ISD_EEFvRKNS_7variantIJN6events11MarketEventENSG_11SignalEventENSG_10OrderEventENSG_9FillEventEEEEEEC1B8ue170006EOSD_OSE_', symObjAddr: 0xB33C, symBinAddr: 0x10000E248, symSize: 0x3C }
  - { offsetInCU: 0x26103, offset: 0x26470, size: 0x8, addend: 0x0, symName: '__ZNSt3__110__function6__funcIZN3trd8Backtest3runERKNS_6vectorINS2_3BarENS_9allocatorIS5_EEEER8StrategyE3$_1NS6_ISD_EEFvRKNS_7variantIJN6events11MarketEventENSG_11SignalEventENSG_10OrderEventENSG_9FillEventEEEEEED1Ev', symObjAddr: 0xB378, symBinAddr: 0x10000E284, symSize: 0x2C }
  - { offsetInCU: 0x2612F, offset: 0x2649C, size: 0x8, addend: 0x0, symName: '__ZNSt3__110__function6__funcIZN3trd8Backtest3runERKNS_6vectorINS2_3BarENS_9allocatorIS5_EEEER8StrategyE3$_1NS6_ISD_EEFvRKNS_7variantIJN6events11MarketEventENSG_11SignalEventENSG_10OrderEventENSG_9FillEventEEEEEED0Ev', symObjAddr: 0xB3A4, symBinAddr: 0x10000E2B0, symSize: 0x30 }
  - { offsetInCU: 0x2615B, offset: 0x264C8, size: 0x8, addend: 0x0, symName: '__ZNKSt3__110__function6__funcIZN3trd8Backtest3runERKNS_6vectorINS2_3BarENS_9allocatorIS5_EEEER8StrategyE3$_1NS6_ISD_EEFvRKNS_7variantIJN6events11MarketEventENSG_11SignalEventENSG_10OrderEventENSG_9FillEventEEEEEE7__cloneEv', symObjAddr: 0xB3D4, symBinAddr: 0x10000E2E0, symSize: 0xFC }
  - { offsetInCU: 0x261AC, offset: 0x26519, size: 0x8, addend: 0x0, symName: '__ZNKSt3__110__function6__funcIZN3trd8Backtest3runERKNS_6vectorINS2_3BarENS_9allocatorIS5_EEEER8StrategyE3$_1NS6_ISD_EEFvRKNS_7variantIJN6events11MarketEventENSG_11SignalEventENSG_10OrderEventENSG_9FillEventEEEEEE7__cloneEPNS0_6__baseISO_EE', symObjAddr: 0xB4D0, symBinAddr: 0x10000E3DC, symSize: 0x58 }
  - { offsetInCU: 0x261E2, offset: 0x2654F, size: 0x8, addend: 0x0, symName: '__ZNSt3__110__function6__funcIZN3trd8Backtest3runERKNS_6vectorINS2_3BarENS_9allocatorIS5_EEEER8StrategyE3$_1NS6_ISD_EEFvRKNS_7variantIJN6events11MarketEventENSG_11SignalEventENSG_10OrderEventENSG_9FillEventEEEEEE7destroyEv', symObjAddr: 0xB528, symBinAddr: 0x10000E434, symSize: 0x28 }
  - { offsetInCU: 0x26209, offset: 0x26576, size: 0x8, addend: 0x0, symName: '__ZNSt3__110__function6__funcIZN3trd8Backtest3runERKNS_6vectorINS2_3BarENS_9allocatorIS5_EEEER8StrategyE3$_1NS6_ISD_EEFvRKNS_7variantIJN6events11MarketEventENSG_11SignalEventENSG_10OrderEventENSG_9FillEventEEEEEE18destroy_deallocateEv', symObjAddr: 0xB550, symBinAddr: 0x10000E45C, symSize: 0x58 }
  - { offsetInCU: 0x2624B, offset: 0x265B8, size: 0x8, addend: 0x0, symName: '__ZNSt3__110__function6__funcIZN3trd8Backtest3runERKNS_6vectorINS2_3BarENS_9allocatorIS5_EEEER8StrategyE3$_1NS6_ISD_EEFvRKNS_7variantIJN6events11MarketEventENSG_11SignalEventENSG_10OrderEventENSG_9FillEventEEEEEEclESN_', symObjAddr: 0xB5A8, symBinAddr: 0x10000E4B4, symSize: 0x30 }
  - { offsetInCU: 0x26281, offset: 0x265EE, size: 0x8, addend: 0x0, symName: '__ZNKSt3__110__function6__funcIZN3trd8Backtest3runERKNS_6vectorINS2_3BarENS_9allocatorIS5_EEEER8StrategyE3$_1NS6_ISD_EEFvRKNS_7variantIJN6events11MarketEventENSG_11SignalEventENSG_10OrderEventENSG_9FillEventEEEEEE6targetERKSt9type_info', symObjAddr: 0xB5D8, symBinAddr: 0x10000E4E4, symSize: 0x60 }
  - { offsetInCU: 0x262B7, offset: 0x26624, size: 0x8, addend: 0x0, symName: '__ZNKSt3__110__function6__funcIZN3trd8Backtest3runERKNS_6vectorINS2_3BarENS_9allocatorIS5_EEEER8StrategyE3$_1NS6_ISD_EEFvRKNS_7variantIJN6events11MarketEventENSG_11SignalEventENSG_10OrderEventENSG_9FillEventEEEEEE11target_typeEv', symObjAddr: 0xB638, symBinAddr: 0x10000E544, symSize: 0x18 }
  - { offsetInCU: 0x262DE, offset: 0x2664B, size: 0x8, addend: 0x0, symName: '__ZNSt3__110__function12__alloc_funcIZN3trd8Backtest3runERKNS_6vectorINS2_3BarENS_9allocatorIS5_EEEER8StrategyE3$_1NS6_ISD_EEFvRKNS_7variantIJN6events11MarketEventENSG_11SignalEventENSG_10OrderEventENSG_9FillEventEEEEEEC2B8ue170006EOSD_OSE_', symObjAddr: 0xB650, symBinAddr: 0x10000E55C, symSize: 0x5C }
  - { offsetInCU: 0x26323, offset: 0x26690, size: 0x8, addend: 0x0, symName: '__ZNSt3__117__compressed_pairIZN3trd8Backtest3runERKNS_6vectorINS1_3BarENS_9allocatorIS4_EEEER8StrategyE3$_1NS5_ISC_EEEC1B8ue170006IJOSC_EJOSD_EEENS_21piecewise_construct_tENS_5tupleIJDpT_EEENSJ_IJDpT0_EEE', symObjAddr: 0xB704, symBinAddr: 0x10000E610, symSize: 0x3C }
  - { offsetInCU: 0x2638C, offset: 0x266F9, size: 0x8, addend: 0x0, symName: '__ZNSt3__15tupleIJOZN3trd8Backtest3runERKNS_6vectorINS1_3BarENS_9allocatorIS4_EEEER8StrategyE3$_1EEC1B8ue170006IJSC_ELi0EEEDpOT_', symObjAddr: 0xB740, symBinAddr: 0x10000E64C, symSize: 0x34 }
  - { offsetInCU: 0x263D5, offset: 0x26742, size: 0x8, addend: 0x0, symName: '__ZNSt3__15tupleIJOZN3trd8Backtest3runERKNS_6vectorINS1_3BarENS_9allocatorIS4_EEEER8StrategyE3$_1EEC2B8ue170006IJSC_ELi0EEEDpOT_', symObjAddr: 0xB774, symBinAddr: 0x10000E680, symSize: 0x34 }
  - { offsetInCU: 0x2641E, offset: 0x2678B, size: 0x8, addend: 0x0, symName: '__ZNSt3__112__tuple_implINS_15__tuple_indicesIJLm0EEEEJOZN3trd8Backtest3runERKNS_6vectorINS3_3BarENS_9allocatorIS6_EEEER8StrategyE3$_1EEC1B8ue170006IJLm0EEJSF_EJEJEJSE_EEENS1_IJXspT_EEEENS_13__tuple_typesIJDpT0_EEENS1_IJXspT1_EEEENSJ_IJDpT2_EEEDpOT3_', symObjAddr: 0xB7A8, symBinAddr: 0x10000E6B4, symSize: 0x34 }
  - { offsetInCU: 0x264B2, offset: 0x2681F, size: 0x8, addend: 0x0, symName: '__ZNSt3__112__tuple_implINS_15__tuple_indicesIJLm0EEEEJOZN3trd8Backtest3runERKNS_6vectorINS3_3BarENS_9allocatorIS6_EEEER8StrategyE3$_1EEC2B8ue170006IJLm0EEJSF_EJEJEJSE_EEENS1_IJXspT_EEEENS_13__tuple_typesIJDpT0_EEENS1_IJXspT1_EEEENSJ_IJDpT2_EEEDpOT3_', symObjAddr: 0xB7DC, symBinAddr: 0x10000E6E8, symSize: 0x34 }
  - { offsetInCU: 0x26546, offset: 0x268B3, size: 0x8, addend: 0x0, symName: '__ZNSt3__112__tuple_leafILm0EOZN3trd8Backtest3runERKNS_6vectorINS1_3BarENS_9allocatorIS4_EEEER8StrategyE3$_1Lb0EEC2B8ue170006ISC_vEEOT_', symObjAddr: 0xB810, symBinAddr: 0x10000E71C, symSize: 0x20 }
  - { offsetInCU: 0x26588, offset: 0x268F5, size: 0x8, addend: 0x0, symName: '__ZNSt3__15tupleIJONS_9allocatorIZN3trd8Backtest3runERKNS_6vectorINS2_3BarENS1_IS5_EEEER8StrategyE3$_1EEEEC1B8ue170006IJSD_ELi0EEEDpOT_', symObjAddr: 0xB830, symBinAddr: 0x10000E73C, symSize: 0x34 }
  - { offsetInCU: 0x265D1, offset: 0x2693E, size: 0x8, addend: 0x0, symName: '__ZNSt3__15tupleIJONS_9allocatorIZN3trd8Backtest3runERKNS_6vectorINS2_3BarENS1_IS5_EEEER8StrategyE3$_1EEEEC2B8ue170006IJSD_ELi0EEEDpOT_', symObjAddr: 0xB864, symBinAddr: 0x10000E770, symSize: 0x34 }
  - { offsetInCU: 0x2661A, offset: 0x26987, size: 0x8, addend: 0x0, symName: '__ZNSt3__112__tuple_implINS_15__tuple_indicesIJLm0EEEEJONS_9allocatorIZN3trd8Backtest3runERKNS_6vectorINS4_3BarENS3_IS7_EEEER8StrategyE3$_1EEEEC1B8ue170006IJLm0EEJSG_EJEJEJSF_EEENS1_IJXspT_EEEENS_13__tuple_typesIJDpT0_EEENS1_IJXspT1_EEEENSK_IJDpT2_EEEDpOT3_', symObjAddr: 0xB898, symBinAddr: 0x10000E7A4, symSize: 0x34 }
  - { offsetInCU: 0x266AE, offset: 0x26A1B, size: 0x8, addend: 0x0, symName: '__ZNSt3__112__tuple_implINS_15__tuple_indicesIJLm0EEEEJONS_9allocatorIZN3trd8Backtest3runERKNS_6vectorINS4_3BarENS3_IS7_EEEER8StrategyE3$_1EEEEC2B8ue170006IJLm0EEJSG_EJEJEJSF_EEENS1_IJXspT_EEEENS_13__tuple_typesIJDpT0_EEENS1_IJXspT1_EEEENSK_IJDpT2_EEEDpOT3_', symObjAddr: 0xB8CC, symBinAddr: 0x10000E7D8, symSize: 0x34 }
  - { offsetInCU: 0x26742, offset: 0x26AAF, size: 0x8, addend: 0x0, symName: '__ZNSt3__112__tuple_leafILm0EONS_9allocatorIZN3trd8Backtest3runERKNS_6vectorINS2_3BarENS1_IS5_EEEER8StrategyE3$_1EELb0EEC2B8ue170006ISD_vEEOT_', symObjAddr: 0xB900, symBinAddr: 0x10000E80C, symSize: 0x20 }
  - { offsetInCU: 0x26784, offset: 0x26AF1, size: 0x8, addend: 0x0, symName: '__ZNSt3__117__compressed_pairIZN3trd8Backtest3runERKNS_6vectorINS1_3BarENS_9allocatorIS4_EEEER8StrategyE3$_1NS5_ISC_EEEC2B8ue170006IJOSC_EJOSD_EEENS_21piecewise_construct_tENS_5tupleIJDpT_EEENSJ_IJDpT0_EEE', symObjAddr: 0xB920, symBinAddr: 0x10000E82C, symSize: 0x54 }
  - { offsetInCU: 0x267ED, offset: 0x26B5A, size: 0x8, addend: 0x0, symName: '__ZNSt3__122__compressed_pair_elemIZN3trd8Backtest3runERKNS_6vectorINS1_3BarENS_9allocatorIS4_EEEER8StrategyE3$_1Li0ELb0EEC2B8ue170006IJOSC_EJLm0EEEENS_21piecewise_construct_tENS_5tupleIJDpT_EEENS_15__tuple_indicesIJXspT0_EEEE', symObjAddr: 0xB974, symBinAddr: 0x10000E880, symSize: 0x44 }
  - { offsetInCU: 0x2684F, offset: 0x26BBC, size: 0x8, addend: 0x0, symName: '__ZNSt3__122__compressed_pair_elemINS_9allocatorIZN3trd8Backtest3runERKNS_6vectorINS2_3BarENS1_IS5_EEEER8StrategyE3$_1EELi1ELb1EEC2B8ue170006IJOSD_EJLm0EEEENS_21piecewise_construct_tENS_5tupleIJDpT_EEENS_15__tuple_indicesIJXspT0_EEEE', symObjAddr: 0xB9B8, symBinAddr: 0x10000E8C4, symSize: 0x38 }
  - { offsetInCU: 0x268B1, offset: 0x26C1E, size: 0x8, addend: 0x0, symName: '__ZNSt3__112__tuple_leafILm0EOZN3trd8Backtest3runERKNS_6vectorINS1_3BarENS_9allocatorIS4_EEEER8StrategyE3$_1Lb0EE3getB8ue170006Ev', symObjAddr: 0xBA14, symBinAddr: 0x10000E920, symSize: 0x18 }
  - { offsetInCU: 0x268D6, offset: 0x26C43, size: 0x8, addend: 0x0, symName: '__ZNSt3__112__tuple_leafILm0EONS_9allocatorIZN3trd8Backtest3runERKNS_6vectorINS2_3BarENS1_IS5_EEEER8StrategyE3$_1EELb0EE3getB8ue170006Ev', symObjAddr: 0xBA50, symBinAddr: 0x10000E95C, symSize: 0x18 }
  - { offsetInCU: 0x268FB, offset: 0x26C68, size: 0x8, addend: 0x0, symName: '__ZNSt3__110__function6__funcIZN3trd8Backtest3runERKNS_6vectorINS2_3BarENS_9allocatorIS5_EEEER8StrategyE3$_1NS6_ISD_EEFvRKNS_7variantIJN6events11MarketEventENSG_11SignalEventENSG_10OrderEventENSG_9FillEventEEEEEED2Ev', symObjAddr: 0xBA68, symBinAddr: 0x10000E974, symSize: 0x2C }
  - { offsetInCU: 0x26927, offset: 0x26C94, size: 0x8, addend: 0x0, symName: '__ZNKSt3__110__function12__alloc_funcIZN3trd8Backtest3runERKNS_6vectorINS2_3BarENS_9allocatorIS5_EEEER8StrategyE3$_1NS6_ISD_EEFvRKNS_7variantIJN6events11MarketEventENSG_11SignalEventENSG_10OrderEventENSG_9FillEventEEEEEE15__get_allocatorB8ue170006Ev', symObjAddr: 0xBA94, symBinAddr: 0x10000E9A0, symSize: 0x24 }
  - { offsetInCU: 0x2694C, offset: 0x26CB9, size: 0x8, addend: 0x0, symName: '__ZNSt3__19allocatorINS_10__function6__funcIZN3trd8Backtest3runERKNS_6vectorINS3_3BarENS0_IS6_EEEER8StrategyE3$_1NS0_ISD_EEFvRKNS_7variantIJN6events11MarketEventENSG_11SignalEventENSG_10OrderEventENSG_9FillEventEEEEEEEE8allocateB8ue170006Em', symObjAddr: 0xBAB8, symBinAddr: 0x10000E9C4, symSize: 0x58 }
  - { offsetInCU: 0x26990, offset: 0x26CFD, size: 0x8, addend: 0x0, symName: '__ZNSt3__122__allocator_destructorINS_9allocatorINS_10__function6__funcIZN3trd8Backtest3runERKNS_6vectorINS4_3BarENS1_IS7_EEEER8StrategyE3$_1NS1_ISE_EEFvRKNS_7variantIJN6events11MarketEventENSH_11SignalEventENSH_10OrderEventENSH_9FillEventEEEEEEEEEEC1B8ue170006ERSR_m', symObjAddr: 0xBB10, symBinAddr: 0x10000EA1C, symSize: 0x3C }
  - { offsetInCU: 0x26A6B, offset: 0x26DD8, size: 0x8, addend: 0x0, symName: '__ZNSt3__110unique_ptrINS_10__function6__funcIZN3trd8Backtest3runERKNS_6vectorINS3_3BarENS_9allocatorIS6_EEEER8StrategyE3$_1NS7_ISE_EEFvRKNS_7variantIJN6events11MarketEventENSH_11SignalEventENSH_10OrderEventENSH_9FillEventEEEEEEENS_22__allocator_destructorINS7_ISQ_EEEEEC1B8ue170006ILb1EvEEPSQ_NS_16__dependent_typeINS_27__unique_ptr_deleter_sfinaeIST_EEXT_EE20__good_rval_ref_typeE', symObjAddr: 0xBB4C, symBinAddr: 0x10000EA58, symSize: 0x3C }
  - { offsetInCU: 0x26ABB, offset: 0x26E28, size: 0x8, addend: 0x0, symName: '__ZNKSt3__110unique_ptrINS_10__function6__funcIZN3trd8Backtest3runERKNS_6vectorINS3_3BarENS_9allocatorIS6_EEEER8StrategyE3$_1NS7_ISE_EEFvRKNS_7variantIJN6events11MarketEventENSH_11SignalEventENSH_10OrderEventENSH_9FillEventEEEEEEENS_22__allocator_destructorINS7_ISQ_EEEEE3getB8ue170006Ev', symObjAddr: 0xBB88, symBinAddr: 0x10000EA94, symSize: 0x28 }
  - { offsetInCU: 0x26AE0, offset: 0x26E4D, size: 0x8, addend: 0x0, symName: '__ZNKSt3__110__function12__alloc_funcIZN3trd8Backtest3runERKNS_6vectorINS2_3BarENS_9allocatorIS5_EEEER8StrategyE3$_1NS6_ISD_EEFvRKNS_7variantIJN6events11MarketEventENSG_11SignalEventENSG_10OrderEventENSG_9FillEventEEEEEE8__targetB8ue170006Ev', symObjAddr: 0xBBB0, symBinAddr: 0x10000EABC, symSize: 0x24 }
  - { offsetInCU: 0x26B05, offset: 0x26E72, size: 0x8, addend: 0x0, symName: '__ZNSt3__110__function6__funcIZN3trd8Backtest3runERKNS_6vectorINS2_3BarENS_9allocatorIS5_EEEER8StrategyE3$_1NS6_ISD_EEFvRKNS_7variantIJN6events11MarketEventENSG_11SignalEventENSG_10OrderEventENSG_9FillEventEEEEEEC1B8ue170006ERKSD_OSE_', symObjAddr: 0xBBD4, symBinAddr: 0x10000EAE0, symSize: 0x3C }
  - { offsetInCU: 0x26B4C, offset: 0x26EB9, size: 0x8, addend: 0x0, symName: '__ZNSt3__110unique_ptrINS_10__function6__funcIZN3trd8Backtest3runERKNS_6vectorINS3_3BarENS_9allocatorIS6_EEEER8StrategyE3$_1NS7_ISE_EEFvRKNS_7variantIJN6events11MarketEventENSH_11SignalEventENSH_10OrderEventENSH_9FillEventEEEEEEENS_22__allocator_destructorINS7_ISQ_EEEEE7releaseB8ue170006Ev', symObjAddr: 0xBC10, symBinAddr: 0x10000EB1C, symSize: 0x44 }
  - { offsetInCU: 0x26B80, offset: 0x26EED, size: 0x8, addend: 0x0, symName: '__ZNSt3__110unique_ptrINS_10__function6__funcIZN3trd8Backtest3runERKNS_6vectorINS3_3BarENS_9allocatorIS6_EEEER8StrategyE3$_1NS7_ISE_EEFvRKNS_7variantIJN6events11MarketEventENSH_11SignalEventENSH_10OrderEventENSH_9FillEventEEEEEEENS_22__allocator_destructorINS7_ISQ_EEEEED1B8ue170006Ev', symObjAddr: 0xBC54, symBinAddr: 0x10000EB60, symSize: 0x2C }
  - { offsetInCU: 0x26BA9, offset: 0x26F16, size: 0x8, addend: 0x0, symName: '__ZNKSt3__117__compressed_pairIZN3trd8Backtest3runERKNS_6vectorINS1_3BarENS_9allocatorIS4_EEEER8StrategyE3$_1NS5_ISC_EEE6secondB8ue170006Ev', symObjAddr: 0xBC80, symBinAddr: 0x10000EB8C, symSize: 0x24 }
  - { offsetInCU: 0x26BCE, offset: 0x26F3B, size: 0x8, addend: 0x0, symName: '__ZNKSt3__122__compressed_pair_elemINS_9allocatorIZN3trd8Backtest3runERKNS_6vectorINS2_3BarENS1_IS5_EEEER8StrategyE3$_1EELi1ELb1EE5__getB8ue170006Ev', symObjAddr: 0xBCA4, symBinAddr: 0x10000EBB0, symSize: 0x14 }
  - { offsetInCU: 0x26BFE, offset: 0x26F6B, size: 0x8, addend: 0x0, symName: '__ZNSt3__116allocator_traitsINS_9allocatorINS_10__function6__funcIZN3trd8Backtest3runERKNS_6vectorINS4_3BarENS1_IS7_EEEER8StrategyE3$_1NS1_ISE_EEFvRKNS_7variantIJN6events11MarketEventENSH_11SignalEventENSH_10OrderEventENSH_9FillEventEEEEEEEEEE8max_sizeB8ue170006ISR_vEEmRKSR_', symObjAddr: 0xBCB8, symBinAddr: 0x10000EBC4, symSize: 0x24 }
  - { offsetInCU: 0x26C2C, offset: 0x26F99, size: 0x8, addend: 0x0, symName: '__ZNKSt3__19allocatorINS_10__function6__funcIZN3trd8Backtest3runERKNS_6vectorINS3_3BarENS0_IS6_EEEER8StrategyE3$_1NS0_ISD_EEFvRKNS_7variantIJN6events11MarketEventENSG_11SignalEventENSG_10OrderEventENSG_9FillEventEEEEEEEE8max_sizeB8ue170006Ev', symObjAddr: 0xBCDC, symBinAddr: 0x10000EBE8, symSize: 0x14 }
  - { offsetInCU: 0x26C51, offset: 0x26FBE, size: 0x8, addend: 0x0, symName: '__ZNSt3__122__allocator_destructorINS_9allocatorINS_10__function6__funcIZN3trd8Backtest3runERKNS_6vectorINS4_3BarENS1_IS7_EEEER8StrategyE3$_1NS1_ISE_EEFvRKNS_7variantIJN6events11MarketEventENSH_11SignalEventENSH_10OrderEventENSH_9FillEventEEEEEEEEEEC2B8ue170006ERSR_m', symObjAddr: 0xBCF0, symBinAddr: 0x10000EBFC, symSize: 0x2C }
  - { offsetInCU: 0x26C96, offset: 0x27003, size: 0x8, addend: 0x0, symName: '__ZNSt3__110unique_ptrINS_10__function6__funcIZN3trd8Backtest3runERKNS_6vectorINS3_3BarENS_9allocatorIS6_EEEER8StrategyE3$_1NS7_ISE_EEFvRKNS_7variantIJN6events11MarketEventENSH_11SignalEventENSH_10OrderEventENSH_9FillEventEEEEEEENS_22__allocator_destructorINS7_ISQ_EEEEEC2B8ue170006ILb1EvEEPSQ_NS_16__dependent_typeINS_27__unique_ptr_deleter_sfinaeIST_EEXT_EE20__good_rval_ref_typeE', symObjAddr: 0xBD1C, symBinAddr: 0x10000EC28, symSize: 0x48 }
  - { offsetInCU: 0x26CE6, offset: 0x27053, size: 0x8, addend: 0x0, symName: '__ZNSt3__117__compressed_pairIPNS_10__function6__funcIZN3trd8Backtest3runERKNS_6vectorINS3_3BarENS_9allocatorIS6_EEEER8StrategyE3$_1NS7_ISE_EEFvRKNS_7variantIJN6events11MarketEventENSH_11SignalEventENSH_10OrderEventENSH_9FillEventEEEEEEENS_22__allocator_destructorINS7_ISQ_EEEEEC1B8ue170006IRSR_SU_EEOT_OT0_', symObjAddr: 0xBD64, symBinAddr: 0x10000EC70, symSize: 0x3C }
  - { offsetInCU: 0x26D3D, offset: 0x270AA, size: 0x8, addend: 0x0, symName: '__ZNSt3__117__compressed_pairIPNS_10__function6__funcIZN3trd8Backtest3runERKNS_6vectorINS3_3BarENS_9allocatorIS6_EEEER8StrategyE3$_1NS7_ISE_EEFvRKNS_7variantIJN6events11MarketEventENSH_11SignalEventENSH_10OrderEventENSH_9FillEventEEEEEEENS_22__allocator_destructorINS7_ISQ_EEEEEC2B8ue170006IRSR_SU_EEOT_OT0_', symObjAddr: 0xBDA0, symBinAddr: 0x10000ECAC, symSize: 0x48 }
  - { offsetInCU: 0x26D94, offset: 0x27101, size: 0x8, addend: 0x0, symName: '__ZNSt3__122__compressed_pair_elemIPNS_10__function6__funcIZN3trd8Backtest3runERKNS_6vectorINS3_3BarENS_9allocatorIS6_EEEER8StrategyE3$_1NS7_ISE_EEFvRKNS_7variantIJN6events11MarketEventENSH_11SignalEventENSH_10OrderEventENSH_9FillEventEEEEEEELi0ELb0EEC2B8ue170006IRSR_vEEOT_', symObjAddr: 0xBDE8, symBinAddr: 0x10000ECF4, symSize: 0x24 }
  - { offsetInCU: 0x26DD5, offset: 0x27142, size: 0x8, addend: 0x0, symName: '__ZNSt3__122__compressed_pair_elemINS_22__allocator_destructorINS_9allocatorINS_10__function6__funcIZN3trd8Backtest3runERKNS_6vectorINS5_3BarENS2_IS8_EEEER8StrategyE3$_1NS2_ISF_EEFvRKNS_7variantIJN6events11MarketEventENSI_11SignalEventENSI_10OrderEventENSI_9FillEventEEEEEEEEEEELi1ELb0EEC2B8ue170006IST_vEEOT_', symObjAddr: 0xBE0C, symBinAddr: 0x10000ED18, symSize: 0x24 }
  - { offsetInCU: 0x26E16, offset: 0x27183, size: 0x8, addend: 0x0, symName: '__ZNKSt3__117__compressed_pairIPNS_10__function6__funcIZN3trd8Backtest3runERKNS_6vectorINS3_3BarENS_9allocatorIS6_EEEER8StrategyE3$_1NS7_ISE_EEFvRKNS_7variantIJN6events11MarketEventENSH_11SignalEventENSH_10OrderEventENSH_9FillEventEEEEEEENS_22__allocator_destructorINS7_ISQ_EEEEE5firstB8ue170006Ev', symObjAddr: 0xBE30, symBinAddr: 0x10000ED3C, symSize: 0x24 }
  - { offsetInCU: 0x26E3B, offset: 0x271A8, size: 0x8, addend: 0x0, symName: '__ZNKSt3__122__compressed_pair_elemIPNS_10__function6__funcIZN3trd8Backtest3runERKNS_6vectorINS3_3BarENS_9allocatorIS6_EEEER8StrategyE3$_1NS7_ISE_EEFvRKNS_7variantIJN6events11MarketEventENSH_11SignalEventENSH_10OrderEventENSH_9FillEventEEEEEEELi0ELb0EE5__getB8ue170006Ev', symObjAddr: 0xBE54, symBinAddr: 0x10000ED60, symSize: 0x14 }
  - { offsetInCU: 0x26E60, offset: 0x271CD, size: 0x8, addend: 0x0, symName: '__ZNKSt3__117__compressed_pairIZN3trd8Backtest3runERKNS_6vectorINS1_3BarENS_9allocatorIS4_EEEER8StrategyE3$_1NS5_ISC_EEE5firstB8ue170006Ev', symObjAddr: 0xBE68, symBinAddr: 0x10000ED74, symSize: 0x24 }
  - { offsetInCU: 0x26E85, offset: 0x271F2, size: 0x8, addend: 0x0, symName: '__ZNKSt3__122__compressed_pair_elemIZN3trd8Backtest3runERKNS_6vectorINS1_3BarENS_9allocatorIS4_EEEER8StrategyE3$_1Li0ELb0EE5__getB8ue170006Ev', symObjAddr: 0xBE8C, symBinAddr: 0x10000ED98, symSize: 0x14 }
  - { offsetInCU: 0x26EAA, offset: 0x27217, size: 0x8, addend: 0x0, symName: '__ZNSt3__110__function6__funcIZN3trd8Backtest3runERKNS_6vectorINS2_3BarENS_9allocatorIS5_EEEER8StrategyE3$_1NS6_ISD_EEFvRKNS_7variantIJN6events11MarketEventENSG_11SignalEventENSG_10OrderEventENSG_9FillEventEEEEEEC2B8ue170006ERKSD_OSE_', symObjAddr: 0xBEA0, symBinAddr: 0x10000EDAC, symSize: 0x88 }
  - { offsetInCU: 0x26EF1, offset: 0x2725E, size: 0x8, addend: 0x0, symName: '__ZNSt3__110__function12__alloc_funcIZN3trd8Backtest3runERKNS_6vectorINS2_3BarENS_9allocatorIS5_EEEER8StrategyE3$_1NS6_ISD_EEFvRKNS_7variantIJN6events11MarketEventENSG_11SignalEventENSG_10OrderEventENSG_9FillEventEEEEEEC1B8ue170006ERKSD_OSE_', symObjAddr: 0xBF28, symBinAddr: 0x10000EE34, symSize: 0x3C }
  - { offsetInCU: 0x26F36, offset: 0x272A3, size: 0x8, addend: 0x0, symName: '__ZNSt3__110__function12__alloc_funcIZN3trd8Backtest3runERKNS_6vectorINS2_3BarENS_9allocatorIS5_EEEER8StrategyE3$_1NS6_ISD_EEFvRKNS_7variantIJN6events11MarketEventENSG_11SignalEventENSG_10OrderEventENSG_9FillEventEEEEEEC2B8ue170006ERKSD_OSE_', symObjAddr: 0xBF64, symBinAddr: 0x10000EE70, symSize: 0x5C }
  - { offsetInCU: 0x26F7B, offset: 0x272E8, size: 0x8, addend: 0x0, symName: '__ZNSt3__117__compressed_pairIZN3trd8Backtest3runERKNS_6vectorINS1_3BarENS_9allocatorIS4_EEEER8StrategyE3$_1NS5_ISC_EEEC1B8ue170006IJRKSC_EJOSD_EEENS_21piecewise_construct_tENS_5tupleIJDpT_EEENSK_IJDpT0_EEE', symObjAddr: 0xBFEC, symBinAddr: 0x10000EEF8, symSize: 0x3C }
  - { offsetInCU: 0x26FE4, offset: 0x27351, size: 0x8, addend: 0x0, symName: '__ZNSt3__15tupleIJRKZN3trd8Backtest3runERKNS_6vectorINS1_3BarENS_9allocatorIS4_EEEER8StrategyE3$_1EEC1B8ue170006INS_4_AndELi0EEESE_', symObjAddr: 0xC028, symBinAddr: 0x10000EF34, symSize: 0x34 }
  - { offsetInCU: 0x2702C, offset: 0x27399, size: 0x8, addend: 0x0, symName: '__ZNSt3__15tupleIJRKZN3trd8Backtest3runERKNS_6vectorINS1_3BarENS_9allocatorIS4_EEEER8StrategyE3$_1EEC2B8ue170006INS_4_AndELi0EEESE_', symObjAddr: 0xC05C, symBinAddr: 0x10000EF68, symSize: 0x34 }
  - { offsetInCU: 0x27074, offset: 0x273E1, size: 0x8, addend: 0x0, symName: '__ZNSt3__112__tuple_implINS_15__tuple_indicesIJLm0EEEEJRKZN3trd8Backtest3runERKNS_6vectorINS3_3BarENS_9allocatorIS6_EEEER8StrategyE3$_1EEC1B8ue170006IJLm0EEJSG_EJEJEJSG_EEENS1_IJXspT_EEEENS_13__tuple_typesIJDpT0_EEENS1_IJXspT1_EEEENSK_IJDpT2_EEEDpOT3_', symObjAddr: 0xC090, symBinAddr: 0x10000EF9C, symSize: 0x34 }
  - { offsetInCU: 0x27108, offset: 0x27475, size: 0x8, addend: 0x0, symName: '__ZNSt3__112__tuple_implINS_15__tuple_indicesIJLm0EEEEJRKZN3trd8Backtest3runERKNS_6vectorINS3_3BarENS_9allocatorIS6_EEEER8StrategyE3$_1EEC2B8ue170006IJLm0EEJSG_EJEJEJSG_EEENS1_IJXspT_EEEENS_13__tuple_typesIJDpT0_EEENS1_IJXspT1_EEEENSK_IJDpT2_EEEDpOT3_', symObjAddr: 0xC0C4, symBinAddr: 0x10000EFD0, symSize: 0x34 }
  - { offsetInCU: 0x2719C, offset: 0x27509, size: 0x8, addend: 0x0, symName: '__ZNSt3__112__tuple_leafILm0ERKZN3trd8Backtest3runERKNS_6vectorINS1_3BarENS_9allocatorIS4_EEEER8StrategyE3$_1Lb0EEC2B8ue170006ISE_vEEOT_', symObjAddr: 0xC0F8, symBinAddr: 0x10000F004, symSize: 0x20 }
  - { offsetInCU: 0x271DE, offset: 0x2754B, size: 0x8, addend: 0x0, symName: '__ZNSt3__117__compressed_pairIZN3trd8Backtest3runERKNS_6vectorINS1_3BarENS_9allocatorIS4_EEEER8StrategyE3$_1NS5_ISC_EEEC2B8ue170006IJRKSC_EJOSD_EEENS_21piecewise_construct_tENS_5tupleIJDpT_EEENSK_IJDpT0_EEE', symObjAddr: 0xC118, symBinAddr: 0x10000F024, symSize: 0x54 }
  - { offsetInCU: 0x27247, offset: 0x275B4, size: 0x8, addend: 0x0, symName: '__ZNSt3__122__compressed_pair_elemIZN3trd8Backtest3runERKNS_6vectorINS1_3BarENS_9allocatorIS4_EEEER8StrategyE3$_1Li0ELb0EEC2B8ue170006IJRKSC_EJLm0EEEENS_21piecewise_construct_tENS_5tupleIJDpT_EEENS_15__tuple_indicesIJXspT0_EEEE', symObjAddr: 0xC16C, symBinAddr: 0x10000F078, symSize: 0x44 }
  - { offsetInCU: 0x272A9, offset: 0x27616, size: 0x8, addend: 0x0, symName: '__ZNSt3__112__tuple_leafILm0ERKZN3trd8Backtest3runERKNS_6vectorINS1_3BarENS_9allocatorIS4_EEEER8StrategyE3$_1Lb0EE3getB8ue170006Ev', symObjAddr: 0xC1D4, symBinAddr: 0x10000F0E0, symSize: 0x18 }
  - { offsetInCU: 0x272CE, offset: 0x2763B, size: 0x8, addend: 0x0, symName: '__ZNSt3__117__compressed_pairIPNS_10__function6__funcIZN3trd8Backtest3runERKNS_6vectorINS3_3BarENS_9allocatorIS6_EEEER8StrategyE3$_1NS7_ISE_EEFvRKNS_7variantIJN6events11MarketEventENSH_11SignalEventENSH_10OrderEventENSH_9FillEventEEEEEEENS_22__allocator_destructorINS7_ISQ_EEEEE5firstB8ue170006Ev', symObjAddr: 0xC1EC, symBinAddr: 0x10000F0F8, symSize: 0x24 }
  - { offsetInCU: 0x272F3, offset: 0x27660, size: 0x8, addend: 0x0, symName: '__ZNSt3__122__compressed_pair_elemIPNS_10__function6__funcIZN3trd8Backtest3runERKNS_6vectorINS3_3BarENS_9allocatorIS6_EEEER8StrategyE3$_1NS7_ISE_EEFvRKNS_7variantIJN6events11MarketEventENSH_11SignalEventENSH_10OrderEventENSH_9FillEventEEEEEEELi0ELb0EE5__getB8ue170006Ev', symObjAddr: 0xC210, symBinAddr: 0x10000F11C, symSize: 0x14 }
  - { offsetInCU: 0x27318, offset: 0x27685, size: 0x8, addend: 0x0, symName: '__ZNSt3__110unique_ptrINS_10__function6__funcIZN3trd8Backtest3runERKNS_6vectorINS3_3BarENS_9allocatorIS6_EEEER8StrategyE3$_1NS7_ISE_EEFvRKNS_7variantIJN6events11MarketEventENSH_11SignalEventENSH_10OrderEventENSH_9FillEventEEEEEEENS_22__allocator_destructorINS7_ISQ_EEEEED2B8ue170006Ev', symObjAddr: 0xC224, symBinAddr: 0x10000F130, symSize: 0x30 }
  - { offsetInCU: 0x27341, offset: 0x276AE, size: 0x8, addend: 0x0, symName: '__ZNSt3__110unique_ptrINS_10__function6__funcIZN3trd8Backtest3runERKNS_6vectorINS3_3BarENS_9allocatorIS6_EEEER8StrategyE3$_1NS7_ISE_EEFvRKNS_7variantIJN6events11MarketEventENSH_11SignalEventENSH_10OrderEventENSH_9FillEventEEEEEEENS_22__allocator_destructorINS7_ISQ_EEEEE5resetB8ue170006EPSQ_', symObjAddr: 0xC254, symBinAddr: 0x10000F160, symSize: 0x78 }
  - { offsetInCU: 0x27384, offset: 0x276F1, size: 0x8, addend: 0x0, symName: '__ZNSt3__117__compressed_pairIPNS_10__function6__funcIZN3trd8Backtest3runERKNS_6vectorINS3_3BarENS_9allocatorIS6_EEEER8StrategyE3$_1NS7_ISE_EEFvRKNS_7variantIJN6events11MarketEventENSH_11SignalEventENSH_10OrderEventENSH_9FillEventEEEEEEENS_22__allocator_destructorINS7_ISQ_EEEEE6secondB8ue170006Ev', symObjAddr: 0xC2CC, symBinAddr: 0x10000F1D8, symSize: 0x28 }
  - { offsetInCU: 0x273A9, offset: 0x27716, size: 0x8, addend: 0x0, symName: '__ZNSt3__122__allocator_destructorINS_9allocatorINS_10__function6__funcIZN3trd8Backtest3runERKNS_6vectorINS4_3BarENS1_IS7_EEEER8StrategyE3$_1NS1_ISE_EEFvRKNS_7variantIJN6events11MarketEventENSH_11SignalEventENSH_10OrderEventENSH_9FillEventEEEEEEEEEEclB8ue170006EPSQ_', symObjAddr: 0xC2F4, symBinAddr: 0x10000F200, symSize: 0x34 }
  - { offsetInCU: 0x273DC, offset: 0x27749, size: 0x8, addend: 0x0, symName: '__ZNSt3__122__compressed_pair_elemINS_22__allocator_destructorINS_9allocatorINS_10__function6__funcIZN3trd8Backtest3runERKNS_6vectorINS5_3BarENS2_IS8_EEEER8StrategyE3$_1NS2_ISF_EEFvRKNS_7variantIJN6events11MarketEventENSI_11SignalEventENSI_10OrderEventENSI_9FillEventEEEEEEEEEEELi1ELb0EE5__getB8ue170006Ev', symObjAddr: 0xC328, symBinAddr: 0x10000F234, symSize: 0x14 }
  - { offsetInCU: 0x27401, offset: 0x2776E, size: 0x8, addend: 0x0, symName: '__ZNSt3__116allocator_traitsINS_9allocatorINS_10__function6__funcIZN3trd8Backtest3runERKNS_6vectorINS4_3BarENS1_IS7_EEEER8StrategyE3$_1NS1_ISE_EEFvRKNS_7variantIJN6events11MarketEventENSH_11SignalEventENSH_10OrderEventENSH_9FillEventEEEEEEEEEE10deallocateB8ue170006ERSR_PSQ_m', symObjAddr: 0xC33C, symBinAddr: 0x10000F248, symSize: 0x34 }
  - { offsetInCU: 0x27443, offset: 0x277B0, size: 0x8, addend: 0x0, symName: '__ZNSt3__19allocatorINS_10__function6__funcIZN3trd8Backtest3runERKNS_6vectorINS3_3BarENS0_IS6_EEEER8StrategyE3$_1NS0_ISD_EEFvRKNS_7variantIJN6events11MarketEventENSG_11SignalEventENSG_10OrderEventENSG_9FillEventEEEEEEEE10deallocateB8ue170006EPSP_m', symObjAddr: 0xC370, symBinAddr: 0x10000F27C, symSize: 0x40 }
  - { offsetInCU: 0x27484, offset: 0x277F1, size: 0x8, addend: 0x0, symName: '__ZNSt3__110__function6__funcIZN3trd8Backtest3runERKNS_6vectorINS2_3BarENS_9allocatorIS5_EEEER8StrategyE3$_1NS6_ISD_EEFvRKNS_7variantIJN6events11MarketEventENSG_11SignalEventENSG_10OrderEventENSG_9FillEventEEEEEEC1B8ue170006ERKSD_RKSE_', symObjAddr: 0xC3B0, symBinAddr: 0x10000F2BC, symSize: 0x3C }
  - { offsetInCU: 0x274CB, offset: 0x27838, size: 0x8, addend: 0x0, symName: '__ZNSt3__110__function6__funcIZN3trd8Backtest3runERKNS_6vectorINS2_3BarENS_9allocatorIS5_EEEER8StrategyE3$_1NS6_ISD_EEFvRKNS_7variantIJN6events11MarketEventENSG_11SignalEventENSG_10OrderEventENSG_9FillEventEEEEEEC2B8ue170006ERKSD_RKSE_', symObjAddr: 0xC3EC, symBinAddr: 0x10000F2F8, symSize: 0x88 }
  - { offsetInCU: 0x27512, offset: 0x2787F, size: 0x8, addend: 0x0, symName: '__ZNSt3__110__function12__alloc_funcIZN3trd8Backtest3runERKNS_6vectorINS2_3BarENS_9allocatorIS5_EEEER8StrategyE3$_1NS6_ISD_EEFvRKNS_7variantIJN6events11MarketEventENSG_11SignalEventENSG_10OrderEventENSG_9FillEventEEEEEEC1B8ue170006ERKSD_RKSE_', symObjAddr: 0xC474, symBinAddr: 0x10000F380, symSize: 0x3C }
  - { offsetInCU: 0x27557, offset: 0x278C4, size: 0x8, addend: 0x0, symName: '__ZNSt3__110__function12__alloc_funcIZN3trd8Backtest3runERKNS_6vectorINS2_3BarENS_9allocatorIS5_EEEER8StrategyE3$_1NS6_ISD_EEFvRKNS_7variantIJN6events11MarketEventENSG_11SignalEventENSG_10OrderEventENSG_9FillEventEEEEEEC2B8ue170006ERKSD_RKSE_', symObjAddr: 0xC4B0, symBinAddr: 0x10000F3BC, symSize: 0x5C }
  - { offsetInCU: 0x2759C, offset: 0x27909, size: 0x8, addend: 0x0, symName: '__ZNSt3__117__compressed_pairIZN3trd8Backtest3runERKNS_6vectorINS1_3BarENS_9allocatorIS4_EEEER8StrategyE3$_1NS5_ISC_EEEC1B8ue170006IJRKSC_EJRKSD_EEENS_21piecewise_construct_tENS_5tupleIJDpT_EEENSL_IJDpT0_EEE', symObjAddr: 0xC538, symBinAddr: 0x10000F444, symSize: 0x3C }
  - { offsetInCU: 0x27605, offset: 0x27972, size: 0x8, addend: 0x0, symName: '__ZNSt3__15tupleIJRKNS_9allocatorIZN3trd8Backtest3runERKNS_6vectorINS2_3BarENS1_IS5_EEEER8StrategyE3$_1EEEEC1B8ue170006INS_4_AndELi0EEESF_', symObjAddr: 0xC574, symBinAddr: 0x10000F480, symSize: 0x34 }
  - { offsetInCU: 0x2764D, offset: 0x279BA, size: 0x8, addend: 0x0, symName: '__ZNSt3__15tupleIJRKNS_9allocatorIZN3trd8Backtest3runERKNS_6vectorINS2_3BarENS1_IS5_EEEER8StrategyE3$_1EEEEC2B8ue170006INS_4_AndELi0EEESF_', symObjAddr: 0xC5A8, symBinAddr: 0x10000F4B4, symSize: 0x34 }
  - { offsetInCU: 0x27695, offset: 0x27A02, size: 0x8, addend: 0x0, symName: '__ZNSt3__112__tuple_implINS_15__tuple_indicesIJLm0EEEEJRKNS_9allocatorIZN3trd8Backtest3runERKNS_6vectorINS4_3BarENS3_IS7_EEEER8StrategyE3$_1EEEEC1B8ue170006IJLm0EEJSH_EJEJEJSH_EEENS1_IJXspT_EEEENS_13__tuple_typesIJDpT0_EEENS1_IJXspT1_EEEENSL_IJDpT2_EEEDpOT3_', symObjAddr: 0xC5DC, symBinAddr: 0x10000F4E8, symSize: 0x34 }
  - { offsetInCU: 0x27729, offset: 0x27A96, size: 0x8, addend: 0x0, symName: '__ZNSt3__112__tuple_implINS_15__tuple_indicesIJLm0EEEEJRKNS_9allocatorIZN3trd8Backtest3runERKNS_6vectorINS4_3BarENS3_IS7_EEEER8StrategyE3$_1EEEEC2B8ue170006IJLm0EEJSH_EJEJEJSH_EEENS1_IJXspT_EEEENS_13__tuple_typesIJDpT0_EEENS1_IJXspT1_EEEENSL_IJDpT2_EEEDpOT3_', symObjAddr: 0xC610, symBinAddr: 0x10000F51C, symSize: 0x34 }
  - { offsetInCU: 0x277BD, offset: 0x27B2A, size: 0x8, addend: 0x0, symName: '__ZNSt3__112__tuple_leafILm0ERKNS_9allocatorIZN3trd8Backtest3runERKNS_6vectorINS2_3BarENS1_IS5_EEEER8StrategyE3$_1EELb0EEC2B8ue170006ISF_vEEOT_', symObjAddr: 0xC644, symBinAddr: 0x10000F550, symSize: 0x20 }
  - { offsetInCU: 0x277FF, offset: 0x27B6C, size: 0x8, addend: 0x0, symName: '__ZNSt3__117__compressed_pairIZN3trd8Backtest3runERKNS_6vectorINS1_3BarENS_9allocatorIS4_EEEER8StrategyE3$_1NS5_ISC_EEEC2B8ue170006IJRKSC_EJRKSD_EEENS_21piecewise_construct_tENS_5tupleIJDpT_EEENSL_IJDpT0_EEE', symObjAddr: 0xC664, symBinAddr: 0x10000F570, symSize: 0x54 }
  - { offsetInCU: 0x27868, offset: 0x27BD5, size: 0x8, addend: 0x0, symName: '__ZNSt3__122__compressed_pair_elemINS_9allocatorIZN3trd8Backtest3runERKNS_6vectorINS2_3BarENS1_IS5_EEEER8StrategyE3$_1EELi1ELb1EEC2B8ue170006IJRKSD_EJLm0EEEENS_21piecewise_construct_tENS_5tupleIJDpT_EEENS_15__tuple_indicesIJXspT0_EEEE', symObjAddr: 0xC6B8, symBinAddr: 0x10000F5C4, symSize: 0x38 }
  - { offsetInCU: 0x278CA, offset: 0x27C37, size: 0x8, addend: 0x0, symName: '__ZNSt3__112__tuple_leafILm0ERKNS_9allocatorIZN3trd8Backtest3runERKNS_6vectorINS2_3BarENS1_IS5_EEEER8StrategyE3$_1EELb0EE3getB8ue170006Ev', symObjAddr: 0xC714, symBinAddr: 0x10000F620, symSize: 0x18 }
  - { offsetInCU: 0x278EF, offset: 0x27C5C, size: 0x8, addend: 0x0, symName: '__ZNSt3__110__function12__alloc_funcIZN3trd8Backtest3runERKNS_6vectorINS2_3BarENS_9allocatorIS5_EEEER8StrategyE3$_1NS6_ISD_EEFvRKNS_7variantIJN6events11MarketEventENSG_11SignalEventENSG_10OrderEventENSG_9FillEventEEEEEE7destroyB8ue170006Ev', symObjAddr: 0xC72C, symBinAddr: 0x10000F638, symSize: 0x10 }
  - { offsetInCU: 0x27914, offset: 0x27C81, size: 0x8, addend: 0x0, symName: '__ZNSt3__110__function12__alloc_funcIZN3trd8Backtest3runERKNS_6vectorINS2_3BarENS_9allocatorIS5_EEEER8StrategyE3$_1NS6_ISD_EEFvRKNS_7variantIJN6events11MarketEventENSG_11SignalEventENSG_10OrderEventENSG_9FillEventEEEEEEclB8ue170006ESN_', symObjAddr: 0xC73C, symBinAddr: 0x10000F648, symSize: 0x30 }
  - { offsetInCU: 0x27947, offset: 0x27CB4, size: 0x8, addend: 0x0, symName: '__ZNSt3__128__invoke_void_return_wrapperIvLb1EE6__callB8ue170006IJRZN3trd8Backtest3runERKNS_6vectorINS3_3BarENS_9allocatorIS6_EEEER8StrategyE3$_1RKNS_7variantIJN6events11MarketEventENSH_11SignalEventENSH_10OrderEventENSH_9FillEventEEEEEEEvDpOT_', symObjAddr: 0xC76C, symBinAddr: 0x10000F678, symSize: 0x2C }
  - { offsetInCU: 0x2798A, offset: 0x27CF7, size: 0x8, addend: 0x0, symName: '__ZNSt3__117__compressed_pairIZN3trd8Backtest3runERKNS_6vectorINS1_3BarENS_9allocatorIS4_EEEER8StrategyE3$_1NS5_ISC_EEE5firstB8ue170006Ev', symObjAddr: 0xC798, symBinAddr: 0x10000F6A4, symSize: 0x24 }
  - { offsetInCU: 0x279B4, offset: 0x27D21, size: 0x8, addend: 0x0, symName: '__ZZN3trd8Backtest3runERKNSt3__16vectorINS_3BarENS1_9allocatorIS3_EEEER8StrategyENK3$_1clERKNS1_7variantIJN6events11MarketEventENSD_11SignalEventENSD_10OrderEventENSD_9FillEventEEEE', symObjAddr: 0xC7E8, symBinAddr: 0x10000F6F4, symSize: 0x30 }
  - { offsetInCU: 0x279EB, offset: 0x27D58, size: 0x8, addend: 0x0, symName: __ZN3trd11RiskHandler2onERKNSt3__17variantIJN6events11MarketEventENS3_11SignalEventENS3_10OrderEventENS3_9FillEventEEEE, symObjAddr: 0xC818, symBinAddr: 0x10000F724, symSize: 0x15C }
  - { offsetInCU: 0x27A39, offset: 0x27DA6, size: 0x8, addend: 0x0, symName: __ZNSt3__17variantIJN6events11MarketEventENS1_11SignalEventENS1_10OrderEventENS1_9FillEventEEEC1B8ue170006IS4_Li0ELi0ELi0ES4_Lm2ELi0EEEOT_, symObjAddr: 0xC998, symBinAddr: 0x10000F8A4, symSize: 0x34 }
  - { offsetInCU: 0x27AB0, offset: 0x27E1D, size: 0x8, addend: 0x0, symName: __ZNSt3__116__variant_detail8__access9__variant9__get_altB8ue170006ILm1ERKNS_7variantIJN6events11MarketEventENS5_11SignalEventENS5_10OrderEventENS5_9FillEventEEEEEEODaOT0_, symObjAddr: 0xCA90, symBinAddr: 0x10000F99C, symSize: 0x24 }
  - { offsetInCU: 0x27AE7, offset: 0x27E54, size: 0x8, addend: 0x0, symName: __ZNSt3__116__variant_detail8__access6__base9__get_altB8ue170006ILm1ERKNS0_6__implIJN6events11MarketEventENS5_11SignalEventENS5_10OrderEventENS5_9FillEventEEEEEEODaOT0_, symObjAddr: 0xCAB4, symBinAddr: 0x10000F9C0, symSize: 0x24 }
  - { offsetInCU: 0x27B1E, offset: 0x27E8B, size: 0x8, addend: 0x0, symName: __ZNSt3__116__variant_detail8__access7__union9__get_altB8ue170006IRKNS0_7__unionILNS0_6_TraitE0ELm0EJN6events11MarketEventENS6_11SignalEventENS6_10OrderEventENS6_9FillEventEEEELm1EEEODaOT_NS_16in_place_index_tIXT0_EEE, symObjAddr: 0xCAD8, symBinAddr: 0x10000F9E4, symSize: 0x24 }
  - { offsetInCU: 0x27B61, offset: 0x27ECE, size: 0x8, addend: 0x0, symName: __ZNSt3__116__variant_detail8__access7__union9__get_altB8ue170006IRKNS0_7__unionILNS0_6_TraitE0ELm1EJN6events11SignalEventENS6_10OrderEventENS6_9FillEventEEEEEEODaOT_NS_16in_place_index_tILm0EEE, symObjAddr: 0xCAFC, symBinAddr: 0x10000FA08, symSize: 0x14 }
  - { offsetInCU: 0x27B9A, offset: 0x27F07, size: 0x8, addend: 0x0, symName: __ZNSt3__17variantIJN6events11MarketEventENS1_11SignalEventENS1_10OrderEventENS1_9FillEventEEEC2B8ue170006IS4_Li0ELi0ELi0ES4_Lm2ELi0EEEOT_, symObjAddr: 0xCB10, symBinAddr: 0x10000FA1C, symSize: 0x3C }
  - { offsetInCU: 0x27C06, offset: 0x27F73, size: 0x8, addend: 0x0, symName: __ZNSt3__116__variant_detail6__implIJN6events11MarketEventENS2_11SignalEventENS2_10OrderEventENS2_9FillEventEEECI1NS0_6__baseILNS0_6_TraitE0EJS3_S4_S5_S6_EEEILm2EJS5_EEENS_16in_place_index_tIXT_EEEDpOT0_, symObjAddr: 0xCB4C, symBinAddr: 0x10000FA58, symSize: 0x34 }
  - { offsetInCU: 0x27C44, offset: 0x27FB1, size: 0x8, addend: 0x0, symName: __ZNSt3__116__variant_detail6__implIJN6events11MarketEventENS2_11SignalEventENS2_10OrderEventENS2_9FillEventEEECI2NS0_6__baseILNS0_6_TraitE0EJS3_S4_S5_S6_EEEILm2EJS5_EEENS_16in_place_index_tIXT_EEEDpOT0_, symObjAddr: 0xCB80, symBinAddr: 0x10000FA8C, symSize: 0x34 }
  - { offsetInCU: 0x27C82, offset: 0x27FEF, size: 0x8, addend: 0x0, symName: __ZNSt3__116__variant_detail17__copy_assignmentINS0_8__traitsIJN6events11MarketEventENS3_11SignalEventENS3_10OrderEventENS3_9FillEventEEEELNS0_6_TraitE0EECI2NS0_6__baseILS9_0EJS4_S5_S6_S7_EEEILm2EJS6_EEENS_16in_place_index_tIXT_EEEDpOT0_, symObjAddr: 0xCBB4, symBinAddr: 0x10000FAC0, symSize: 0x34 }
  - { offsetInCU: 0x27CC0, offset: 0x2802D, size: 0x8, addend: 0x0, symName: __ZNSt3__116__variant_detail17__move_assignmentINS0_8__traitsIJN6events11MarketEventENS3_11SignalEventENS3_10OrderEventENS3_9FillEventEEEELNS0_6_TraitE0EECI2NS0_6__baseILS9_0EJS4_S5_S6_S7_EEEILm2EJS6_EEENS_16in_place_index_tIXT_EEEDpOT0_, symObjAddr: 0xCBE8, symBinAddr: 0x10000FAF4, symSize: 0x34 }
  - { offsetInCU: 0x27CFE, offset: 0x2806B, size: 0x8, addend: 0x0, symName: __ZNSt3__116__variant_detail12__assignmentINS0_8__traitsIJN6events11MarketEventENS3_11SignalEventENS3_10OrderEventENS3_9FillEventEEEEECI2NS0_6__baseILNS0_6_TraitE0EJS4_S5_S6_S7_EEEILm2EJS6_EEENS_16in_place_index_tIXT_EEEDpOT0_, symObjAddr: 0xCC1C, symBinAddr: 0x10000FB28, symSize: 0x34 }
  - { offsetInCU: 0x27D3C, offset: 0x280A9, size: 0x8, addend: 0x0, symName: __ZNSt3__116__variant_detail18__copy_constructorINS0_8__traitsIJN6events11MarketEventENS3_11SignalEventENS3_10OrderEventENS3_9FillEventEEEELNS0_6_TraitE0EECI2NS0_6__baseILS9_0EJS4_S5_S6_S7_EEEILm2EJS6_EEENS_16in_place_index_tIXT_EEEDpOT0_, symObjAddr: 0xCC50, symBinAddr: 0x10000FB5C, symSize: 0x34 }
  - { offsetInCU: 0x27D7A, offset: 0x280E7, size: 0x8, addend: 0x0, symName: __ZNSt3__116__variant_detail18__move_constructorINS0_8__traitsIJN6events11MarketEventENS3_11SignalEventENS3_10OrderEventENS3_9FillEventEEEELNS0_6_TraitE0EECI2NS0_6__baseILS9_0EJS4_S5_S6_S7_EEEILm2EJS6_EEENS_16in_place_index_tIXT_EEEDpOT0_, symObjAddr: 0xCC84, symBinAddr: 0x10000FB90, symSize: 0x34 }
  - { offsetInCU: 0x27DB8, offset: 0x28125, size: 0x8, addend: 0x0, symName: __ZNSt3__116__variant_detail6__ctorINS0_8__traitsIJN6events11MarketEventENS3_11SignalEventENS3_10OrderEventENS3_9FillEventEEEEECI2NS0_6__baseILNS0_6_TraitE0EJS4_S5_S6_S7_EEEILm2EJS6_EEENS_16in_place_index_tIXT_EEEDpOT0_, symObjAddr: 0xCCB8, symBinAddr: 0x10000FBC4, symSize: 0x34 }
  - { offsetInCU: 0x27DF6, offset: 0x28163, size: 0x8, addend: 0x0, symName: __ZNSt3__116__variant_detail6__dtorINS0_8__traitsIJN6events11MarketEventENS3_11SignalEventENS3_10OrderEventENS3_9FillEventEEEELNS0_6_TraitE0EECI2NS0_6__baseILS9_0EJS4_S5_S6_S7_EEEILm2EJS6_EEENS_16in_place_index_tIXT_EEEDpOT0_, symObjAddr: 0xCCEC, symBinAddr: 0x10000FBF8, symSize: 0x34 }
  - { offsetInCU: 0x27E34, offset: 0x281A1, size: 0x8, addend: 0x0, symName: __ZNSt3__116__variant_detail6__baseILNS0_6_TraitE0EJN6events11MarketEventENS3_11SignalEventENS3_10OrderEventENS3_9FillEventEEEC2B8ue170006ILm2EJS6_EEENS_16in_place_index_tIXT_EEEDpOT0_, symObjAddr: 0xCD20, symBinAddr: 0x10000FC2C, symSize: 0x3C }
  - { offsetInCU: 0x27E8D, offset: 0x281FA, size: 0x8, addend: 0x0, symName: __ZNSt3__116__variant_detail7__unionILNS0_6_TraitE0ELm0EJN6events11MarketEventENS3_11SignalEventENS3_10OrderEventENS3_9FillEventEEEC1B8ue170006ILm2EJS6_EEENS_16in_place_index_tIXT_EEEDpOT0_, symObjAddr: 0xCD5C, symBinAddr: 0x10000FC68, symSize: 0x34 }
  - { offsetInCU: 0x27EE6, offset: 0x28253, size: 0x8, addend: 0x0, symName: __ZNSt3__116__variant_detail7__unionILNS0_6_TraitE0ELm0EJN6events11MarketEventENS3_11SignalEventENS3_10OrderEventENS3_9FillEventEEEC2B8ue170006ILm2EJS6_EEENS_16in_place_index_tIXT_EEEDpOT0_, symObjAddr: 0xCD90, symBinAddr: 0x10000FC9C, symSize: 0x34 }
  - { offsetInCU: 0x27F3F, offset: 0x282AC, size: 0x8, addend: 0x0, symName: __ZNSt3__116__variant_detail7__unionILNS0_6_TraitE0ELm1EJN6events11SignalEventENS3_10OrderEventENS3_9FillEventEEEC1B8ue170006ILm1EJS5_EEENS_16in_place_index_tIXT_EEEDpOT0_, symObjAddr: 0xCDC4, symBinAddr: 0x10000FCD0, symSize: 0x34 }
  - { offsetInCU: 0x27F98, offset: 0x28305, size: 0x8, addend: 0x0, symName: __ZNSt3__116__variant_detail7__unionILNS0_6_TraitE0ELm1EJN6events11SignalEventENS3_10OrderEventENS3_9FillEventEEEC2B8ue170006ILm1EJS5_EEENS_16in_place_index_tIXT_EEEDpOT0_, symObjAddr: 0xCDF8, symBinAddr: 0x10000FD04, symSize: 0x34 }
  - { offsetInCU: 0x27FF1, offset: 0x2835E, size: 0x8, addend: 0x0, symName: __ZNSt3__116__variant_detail7__unionILNS0_6_TraitE0ELm2EJN6events10OrderEventENS3_9FillEventEEEC1B8ue170006IJS4_EEENS_16in_place_index_tILm0EEEDpOT_, symObjAddr: 0xCE2C, symBinAddr: 0x10000FD38, symSize: 0x34 }
  - { offsetInCU: 0x28040, offset: 0x283AD, size: 0x8, addend: 0x0, symName: __ZNSt3__116__variant_detail7__unionILNS0_6_TraitE0ELm2EJN6events10OrderEventENS3_9FillEventEEEC2B8ue170006IJS4_EEENS_16in_place_index_tILm0EEEDpOT_, symObjAddr: 0xCE60, symBinAddr: 0x10000FD6C, symSize: 0x34 }
  - { offsetInCU: 0x28094, offset: 0x28401, size: 0x8, addend: 0x0, symName: __ZNSt3__116__variant_detail5__altILm2EN6events10OrderEventEEC1B8ue170006IJS3_EEENS_10in_place_tEDpOT_, symObjAddr: 0xCE94, symBinAddr: 0x10000FDA0, symSize: 0x34 }
  - { offsetInCU: 0x280E3, offset: 0x28450, size: 0x8, addend: 0x0, symName: __ZNSt3__116__variant_detail5__altILm2EN6events10OrderEventEEC2B8ue170006IJS3_EEENS_10in_place_tEDpOT_, symObjAddr: 0xCEC8, symBinAddr: 0x10000FDD4, symSize: 0x24 }
  - { offsetInCU: 0x28132, offset: 0x2849F, size: 0x8, addend: 0x0, symName: '__ZNSt3__122__compressed_pair_elemIZN3trd8Backtest3runERKNS_6vectorINS1_3BarENS_9allocatorIS4_EEEER8StrategyE3$_1Li0ELb0EE5__getB8ue170006Ev', symObjAddr: 0xCEEC, symBinAddr: 0x10000FDF8, symSize: 0x14 }
  - { offsetInCU: 0x28157, offset: 0x284C4, size: 0x8, addend: 0x0, symName: '__ZNSt3__18functionIFvRKNS_7variantIJN6events11MarketEventENS2_11SignalEventENS2_10OrderEventENS2_9FillEventEEEEEEC2IZN3trd8Backtest3runERKNS_6vectorINSD_3BarENS_9allocatorISG_EEEER8StrategyE3$_2vEET_', symObjAddr: 0xCF00, symBinAddr: 0x10000FE0C, symSize: 0x38 }
  - { offsetInCU: 0x2819B, offset: 0x28508, size: 0x8, addend: 0x0, symName: '__ZNSt3__110__function12__value_funcIFvRKNS_7variantIJN6events11MarketEventENS3_11SignalEventENS3_10OrderEventENS3_9FillEventEEEEEEC1B8ue170006IZN3trd8Backtest3runERKNS_6vectorINSE_3BarENS_9allocatorISH_EEEER8StrategyE3$_2vEEOT_', symObjAddr: 0xCF38, symBinAddr: 0x10000FE44, symSize: 0x50 }
  - { offsetInCU: 0x281DD, offset: 0x2854A, size: 0x8, addend: 0x0, symName: '__ZNSt3__19allocatorIZN3trd8Backtest3runERKNS_6vectorINS1_3BarENS0_IS4_EEEER8StrategyE3$_2EC1B8ue170006Ev', symObjAddr: 0xCF88, symBinAddr: 0x10000FE94, symSize: 0x2C }
  - { offsetInCU: 0x28206, offset: 0x28573, size: 0x8, addend: 0x0, symName: '__ZNSt3__110__function12__value_funcIFvRKNS_7variantIJN6events11MarketEventENS3_11SignalEventENS3_10OrderEventENS3_9FillEventEEEEEEC1B8ue170006IZN3trd8Backtest3runERKNS_6vectorINSE_3BarENS_9allocatorISH_EEEER8StrategyE3$_2NSI_ISP_EEEEOT_RKT0_', symObjAddr: 0xCFB4, symBinAddr: 0x10000FEC0, symSize: 0x3C }
  - { offsetInCU: 0x2825F, offset: 0x285CC, size: 0x8, addend: 0x0, symName: '__ZNSt3__19allocatorIZN3trd8Backtest3runERKNS_6vectorINS1_3BarENS0_IS4_EEEER8StrategyE3$_2EC2B8ue170006Ev', symObjAddr: 0xCFF0, symBinAddr: 0x10000FEFC, symSize: 0x2C }
  - { offsetInCU: 0x28288, offset: 0x285F5, size: 0x8, addend: 0x0, symName: '__ZNSt3__116__non_trivial_ifILb1ENS_9allocatorIZN3trd8Backtest3runERKNS_6vectorINS2_3BarENS1_IS5_EEEER8StrategyE3$_2EEEC2B8ue170006Ev', symObjAddr: 0xD01C, symBinAddr: 0x10000FF28, symSize: 0x14 }
  - { offsetInCU: 0x282B1, offset: 0x2861E, size: 0x8, addend: 0x0, symName: '__ZNSt3__110__function12__value_funcIFvRKNS_7variantIJN6events11MarketEventENS3_11SignalEventENS3_10OrderEventENS3_9FillEventEEEEEEC2B8ue170006IZN3trd8Backtest3runERKNS_6vectorINSE_3BarENS_9allocatorISH_EEEER8StrategyE3$_2NSI_ISP_EEEEOT_RKT0_', symObjAddr: 0xD030, symBinAddr: 0x10000FF3C, symSize: 0x94 }
  - { offsetInCU: 0x28359, offset: 0x286C6, size: 0x8, addend: 0x0, symName: '__ZNSt3__19allocatorINS_10__function6__funcIZN3trd8Backtest3runERKNS_6vectorINS3_3BarENS0_IS6_EEEER8StrategyE3$_2NS0_ISD_EEFvRKNS_7variantIJN6events11MarketEventENSG_11SignalEventENSG_10OrderEventENSG_9FillEventEEEEEEEEC1B8ue170006ISD_EERKNS0_IT_EE', symObjAddr: 0xD0DC, symBinAddr: 0x10000FFE8, symSize: 0x34 }
  - { offsetInCU: 0x2839B, offset: 0x28708, size: 0x8, addend: 0x0, symName: '__ZNSt3__19allocatorIZN3trd8Backtest3runERKNS_6vectorINS1_3BarENS0_IS4_EEEER8StrategyE3$_2EC1B8ue170006INS_10__function6__funcISB_SC_FvRKNS_7variantIJN6events11MarketEventENSH_11SignalEventENSH_10OrderEventENSH_9FillEventEEEEEEEEERKNS0_IT_EE', symObjAddr: 0xD110, symBinAddr: 0x10001001C, symSize: 0x34 }
  - { offsetInCU: 0x283D7, offset: 0x28744, size: 0x8, addend: 0x0, symName: '__ZNSt3__110__function6__funcIZN3trd8Backtest3runERKNS_6vectorINS2_3BarENS_9allocatorIS5_EEEER8StrategyE3$_2NS6_ISD_EEFvRKNS_7variantIJN6events11MarketEventENSG_11SignalEventENSG_10OrderEventENSG_9FillEventEEEEEEC1B8ue170006EOSD_OSE_', symObjAddr: 0xD144, symBinAddr: 0x100010050, symSize: 0x3C }
  - { offsetInCU: 0x2841E, offset: 0x2878B, size: 0x8, addend: 0x0, symName: '__ZNSt3__19allocatorINS_10__function6__funcIZN3trd8Backtest3runERKNS_6vectorINS3_3BarENS0_IS6_EEEER8StrategyE3$_2NS0_ISD_EEFvRKNS_7variantIJN6events11MarketEventENSG_11SignalEventENSG_10OrderEventENSG_9FillEventEEEEEEEEC2B8ue170006ISD_EERKNS0_IT_EE', symObjAddr: 0xD180, symBinAddr: 0x10001008C, symSize: 0x30 }
  - { offsetInCU: 0x2845A, offset: 0x287C7, size: 0x8, addend: 0x0, symName: '__ZNSt3__116__non_trivial_ifILb1ENS_9allocatorINS_10__function6__funcIZN3trd8Backtest3runERKNS_6vectorINS4_3BarENS1_IS7_EEEER8StrategyE3$_2NS1_ISE_EEFvRKNS_7variantIJN6events11MarketEventENSH_11SignalEventENSH_10OrderEventENSH_9FillEventEEEEEEEEEEC2B8ue170006Ev', symObjAddr: 0xD1B0, symBinAddr: 0x1000100BC, symSize: 0x14 }
  - { offsetInCU: 0x28483, offset: 0x287F0, size: 0x8, addend: 0x0, symName: '__ZNSt3__19allocatorIZN3trd8Backtest3runERKNS_6vectorINS1_3BarENS0_IS4_EEEER8StrategyE3$_2EC2B8ue170006INS_10__function6__funcISB_SC_FvRKNS_7variantIJN6events11MarketEventENSH_11SignalEventENSH_10OrderEventENSH_9FillEventEEEEEEEEERKNS0_IT_EE', symObjAddr: 0xD1C4, symBinAddr: 0x1000100D0, symSize: 0x30 }
  - { offsetInCU: 0x284BF, offset: 0x2882C, size: 0x8, addend: 0x0, symName: '__ZNSt3__110__function6__funcIZN3trd8Backtest3runERKNS_6vectorINS2_3BarENS_9allocatorIS5_EEEER8StrategyE3$_2NS6_ISD_EEFvRKNS_7variantIJN6events11MarketEventENSG_11SignalEventENSG_10OrderEventENSG_9FillEventEEEEEEC2B8ue170006EOSD_OSE_', symObjAddr: 0xD1F4, symBinAddr: 0x100010100, symSize: 0x88 }
  - { offsetInCU: 0x28506, offset: 0x28873, size: 0x8, addend: 0x0, symName: '__ZNSt3__110__function12__alloc_funcIZN3trd8Backtest3runERKNS_6vectorINS2_3BarENS_9allocatorIS5_EEEER8StrategyE3$_2NS6_ISD_EEFvRKNS_7variantIJN6events11MarketEventENSG_11SignalEventENSG_10OrderEventENSG_9FillEventEEEEEEC1B8ue170006EOSD_OSE_', symObjAddr: 0xD27C, symBinAddr: 0x100010188, symSize: 0x3C }
  - { offsetInCU: 0x2854B, offset: 0x288B8, size: 0x8, addend: 0x0, symName: '__ZNSt3__110__function6__funcIZN3trd8Backtest3runERKNS_6vectorINS2_3BarENS_9allocatorIS5_EEEER8StrategyE3$_2NS6_ISD_EEFvRKNS_7variantIJN6events11MarketEventENSG_11SignalEventENSG_10OrderEventENSG_9FillEventEEEEEED1Ev', symObjAddr: 0xD2B8, symBinAddr: 0x1000101C4, symSize: 0x2C }
  - { offsetInCU: 0x28577, offset: 0x288E4, size: 0x8, addend: 0x0, symName: '__ZNSt3__110__function6__funcIZN3trd8Backtest3runERKNS_6vectorINS2_3BarENS_9allocatorIS5_EEEER8StrategyE3$_2NS6_ISD_EEFvRKNS_7variantIJN6events11MarketEventENSG_11SignalEventENSG_10OrderEventENSG_9FillEventEEEEEED0Ev', symObjAddr: 0xD2E4, symBinAddr: 0x1000101F0, symSize: 0x30 }
  - { offsetInCU: 0x285A3, offset: 0x28910, size: 0x8, addend: 0x0, symName: '__ZNKSt3__110__function6__funcIZN3trd8Backtest3runERKNS_6vectorINS2_3BarENS_9allocatorIS5_EEEER8StrategyE3$_2NS6_ISD_EEFvRKNS_7variantIJN6events11MarketEventENSG_11SignalEventENSG_10OrderEventENSG_9FillEventEEEEEE7__cloneEv', symObjAddr: 0xD314, symBinAddr: 0x100010220, symSize: 0xFC }
  - { offsetInCU: 0x285F4, offset: 0x28961, size: 0x8, addend: 0x0, symName: '__ZNKSt3__110__function6__funcIZN3trd8Backtest3runERKNS_6vectorINS2_3BarENS_9allocatorIS5_EEEER8StrategyE3$_2NS6_ISD_EEFvRKNS_7variantIJN6events11MarketEventENSG_11SignalEventENSG_10OrderEventENSG_9FillEventEEEEEE7__cloneEPNS0_6__baseISO_EE', symObjAddr: 0xD410, symBinAddr: 0x10001031C, symSize: 0x58 }
  - { offsetInCU: 0x2862A, offset: 0x28997, size: 0x8, addend: 0x0, symName: '__ZNSt3__110__function6__funcIZN3trd8Backtest3runERKNS_6vectorINS2_3BarENS_9allocatorIS5_EEEER8StrategyE3$_2NS6_ISD_EEFvRKNS_7variantIJN6events11MarketEventENSG_11SignalEventENSG_10OrderEventENSG_9FillEventEEEEEE7destroyEv', symObjAddr: 0xD468, symBinAddr: 0x100010374, symSize: 0x28 }
  - { offsetInCU: 0x28651, offset: 0x289BE, size: 0x8, addend: 0x0, symName: '__ZNSt3__110__function6__funcIZN3trd8Backtest3runERKNS_6vectorINS2_3BarENS_9allocatorIS5_EEEER8StrategyE3$_2NS6_ISD_EEFvRKNS_7variantIJN6events11MarketEventENSG_11SignalEventENSG_10OrderEventENSG_9FillEventEEEEEE18destroy_deallocateEv', symObjAddr: 0xD490, symBinAddr: 0x10001039C, symSize: 0x58 }
  - { offsetInCU: 0x28693, offset: 0x28A00, size: 0x8, addend: 0x0, symName: '__ZNSt3__110__function6__funcIZN3trd8Backtest3runERKNS_6vectorINS2_3BarENS_9allocatorIS5_EEEER8StrategyE3$_2NS6_ISD_EEFvRKNS_7variantIJN6events11MarketEventENSG_11SignalEventENSG_10OrderEventENSG_9FillEventEEEEEEclESN_', symObjAddr: 0xD4E8, symBinAddr: 0x1000103F4, symSize: 0x30 }
  - { offsetInCU: 0x286C9, offset: 0x28A36, size: 0x8, addend: 0x0, symName: '__ZNKSt3__110__function6__funcIZN3trd8Backtest3runERKNS_6vectorINS2_3BarENS_9allocatorIS5_EEEER8StrategyE3$_2NS6_ISD_EEFvRKNS_7variantIJN6events11MarketEventENSG_11SignalEventENSG_10OrderEventENSG_9FillEventEEEEEE6targetERKSt9type_info', symObjAddr: 0xD518, symBinAddr: 0x100010424, symSize: 0x60 }
  - { offsetInCU: 0x286FF, offset: 0x28A6C, size: 0x8, addend: 0x0, symName: '__ZNKSt3__110__function6__funcIZN3trd8Backtest3runERKNS_6vectorINS2_3BarENS_9allocatorIS5_EEEER8StrategyE3$_2NS6_ISD_EEFvRKNS_7variantIJN6events11MarketEventENSG_11SignalEventENSG_10OrderEventENSG_9FillEventEEEEEE11target_typeEv', symObjAddr: 0xD578, symBinAddr: 0x100010484, symSize: 0x18 }
  - { offsetInCU: 0x28726, offset: 0x28A93, size: 0x8, addend: 0x0, symName: '__ZNSt3__110__function12__alloc_funcIZN3trd8Backtest3runERKNS_6vectorINS2_3BarENS_9allocatorIS5_EEEER8StrategyE3$_2NS6_ISD_EEFvRKNS_7variantIJN6events11MarketEventENSG_11SignalEventENSG_10OrderEventENSG_9FillEventEEEEEEC2B8ue170006EOSD_OSE_', symObjAddr: 0xD590, symBinAddr: 0x10001049C, symSize: 0x5C }
  - { offsetInCU: 0x2876B, offset: 0x28AD8, size: 0x8, addend: 0x0, symName: '__ZNSt3__117__compressed_pairIZN3trd8Backtest3runERKNS_6vectorINS1_3BarENS_9allocatorIS4_EEEER8StrategyE3$_2NS5_ISC_EEEC1B8ue170006IJOSC_EJOSD_EEENS_21piecewise_construct_tENS_5tupleIJDpT_EEENSJ_IJDpT0_EEE', symObjAddr: 0xD644, symBinAddr: 0x100010550, symSize: 0x3C }
  - { offsetInCU: 0x287D4, offset: 0x28B41, size: 0x8, addend: 0x0, symName: '__ZNSt3__15tupleIJOZN3trd8Backtest3runERKNS_6vectorINS1_3BarENS_9allocatorIS4_EEEER8StrategyE3$_2EEC1B8ue170006IJSC_ELi0EEEDpOT_', symObjAddr: 0xD680, symBinAddr: 0x10001058C, symSize: 0x34 }
  - { offsetInCU: 0x2881D, offset: 0x28B8A, size: 0x8, addend: 0x0, symName: '__ZNSt3__15tupleIJOZN3trd8Backtest3runERKNS_6vectorINS1_3BarENS_9allocatorIS4_EEEER8StrategyE3$_2EEC2B8ue170006IJSC_ELi0EEEDpOT_', symObjAddr: 0xD6B4, symBinAddr: 0x1000105C0, symSize: 0x34 }
  - { offsetInCU: 0x28866, offset: 0x28BD3, size: 0x8, addend: 0x0, symName: '__ZNSt3__112__tuple_implINS_15__tuple_indicesIJLm0EEEEJOZN3trd8Backtest3runERKNS_6vectorINS3_3BarENS_9allocatorIS6_EEEER8StrategyE3$_2EEC1B8ue170006IJLm0EEJSF_EJEJEJSE_EEENS1_IJXspT_EEEENS_13__tuple_typesIJDpT0_EEENS1_IJXspT1_EEEENSJ_IJDpT2_EEEDpOT3_', symObjAddr: 0xD6E8, symBinAddr: 0x1000105F4, symSize: 0x34 }
  - { offsetInCU: 0x288FA, offset: 0x28C67, size: 0x8, addend: 0x0, symName: '__ZNSt3__112__tuple_implINS_15__tuple_indicesIJLm0EEEEJOZN3trd8Backtest3runERKNS_6vectorINS3_3BarENS_9allocatorIS6_EEEER8StrategyE3$_2EEC2B8ue170006IJLm0EEJSF_EJEJEJSE_EEENS1_IJXspT_EEEENS_13__tuple_typesIJDpT0_EEENS1_IJXspT1_EEEENSJ_IJDpT2_EEEDpOT3_', symObjAddr: 0xD71C, symBinAddr: 0x100010628, symSize: 0x34 }
  - { offsetInCU: 0x2898E, offset: 0x28CFB, size: 0x8, addend: 0x0, symName: '__ZNSt3__112__tuple_leafILm0EOZN3trd8Backtest3runERKNS_6vectorINS1_3BarENS_9allocatorIS4_EEEER8StrategyE3$_2Lb0EEC2B8ue170006ISC_vEEOT_', symObjAddr: 0xD750, symBinAddr: 0x10001065C, symSize: 0x20 }
  - { offsetInCU: 0x289D0, offset: 0x28D3D, size: 0x8, addend: 0x0, symName: '__ZNSt3__15tupleIJONS_9allocatorIZN3trd8Backtest3runERKNS_6vectorINS2_3BarENS1_IS5_EEEER8StrategyE3$_2EEEEC1B8ue170006IJSD_ELi0EEEDpOT_', symObjAddr: 0xD770, symBinAddr: 0x10001067C, symSize: 0x34 }
  - { offsetInCU: 0x28A19, offset: 0x28D86, size: 0x8, addend: 0x0, symName: '__ZNSt3__15tupleIJONS_9allocatorIZN3trd8Backtest3runERKNS_6vectorINS2_3BarENS1_IS5_EEEER8StrategyE3$_2EEEEC2B8ue170006IJSD_ELi0EEEDpOT_', symObjAddr: 0xD7A4, symBinAddr: 0x1000106B0, symSize: 0x34 }
  - { offsetInCU: 0x28A62, offset: 0x28DCF, size: 0x8, addend: 0x0, symName: '__ZNSt3__112__tuple_implINS_15__tuple_indicesIJLm0EEEEJONS_9allocatorIZN3trd8Backtest3runERKNS_6vectorINS4_3BarENS3_IS7_EEEER8StrategyE3$_2EEEEC1B8ue170006IJLm0EEJSG_EJEJEJSF_EEENS1_IJXspT_EEEENS_13__tuple_typesIJDpT0_EEENS1_IJXspT1_EEEENSK_IJDpT2_EEEDpOT3_', symObjAddr: 0xD7D8, symBinAddr: 0x1000106E4, symSize: 0x34 }
  - { offsetInCU: 0x28AF6, offset: 0x28E63, size: 0x8, addend: 0x0, symName: '__ZNSt3__112__tuple_implINS_15__tuple_indicesIJLm0EEEEJONS_9allocatorIZN3trd8Backtest3runERKNS_6vectorINS4_3BarENS3_IS7_EEEER8StrategyE3$_2EEEEC2B8ue170006IJLm0EEJSG_EJEJEJSF_EEENS1_IJXspT_EEEENS_13__tuple_typesIJDpT0_EEENS1_IJXspT1_EEEENSK_IJDpT2_EEEDpOT3_', symObjAddr: 0xD80C, symBinAddr: 0x100010718, symSize: 0x34 }
  - { offsetInCU: 0x28B8A, offset: 0x28EF7, size: 0x8, addend: 0x0, symName: '__ZNSt3__112__tuple_leafILm0EONS_9allocatorIZN3trd8Backtest3runERKNS_6vectorINS2_3BarENS1_IS5_EEEER8StrategyE3$_2EELb0EEC2B8ue170006ISD_vEEOT_', symObjAddr: 0xD840, symBinAddr: 0x10001074C, symSize: 0x20 }
  - { offsetInCU: 0x28BCC, offset: 0x28F39, size: 0x8, addend: 0x0, symName: '__ZNSt3__117__compressed_pairIZN3trd8Backtest3runERKNS_6vectorINS1_3BarENS_9allocatorIS4_EEEER8StrategyE3$_2NS5_ISC_EEEC2B8ue170006IJOSC_EJOSD_EEENS_21piecewise_construct_tENS_5tupleIJDpT_EEENSJ_IJDpT0_EEE', symObjAddr: 0xD860, symBinAddr: 0x10001076C, symSize: 0x54 }
  - { offsetInCU: 0x28C35, offset: 0x28FA2, size: 0x8, addend: 0x0, symName: '__ZNSt3__122__compressed_pair_elemIZN3trd8Backtest3runERKNS_6vectorINS1_3BarENS_9allocatorIS4_EEEER8StrategyE3$_2Li0ELb0EEC2B8ue170006IJOSC_EJLm0EEEENS_21piecewise_construct_tENS_5tupleIJDpT_EEENS_15__tuple_indicesIJXspT0_EEEE', symObjAddr: 0xD8B4, symBinAddr: 0x1000107C0, symSize: 0x44 }
  - { offsetInCU: 0x28C97, offset: 0x29004, size: 0x8, addend: 0x0, symName: '__ZNSt3__122__compressed_pair_elemINS_9allocatorIZN3trd8Backtest3runERKNS_6vectorINS2_3BarENS1_IS5_EEEER8StrategyE3$_2EELi1ELb1EEC2B8ue170006IJOSD_EJLm0EEEENS_21piecewise_construct_tENS_5tupleIJDpT_EEENS_15__tuple_indicesIJXspT0_EEEE', symObjAddr: 0xD8F8, symBinAddr: 0x100010804, symSize: 0x38 }
  - { offsetInCU: 0x28CF9, offset: 0x29066, size: 0x8, addend: 0x0, symName: '__ZNSt3__112__tuple_leafILm0EOZN3trd8Backtest3runERKNS_6vectorINS1_3BarENS_9allocatorIS4_EEEER8StrategyE3$_2Lb0EE3getB8ue170006Ev', symObjAddr: 0xD954, symBinAddr: 0x100010860, symSize: 0x18 }
  - { offsetInCU: 0x28D1E, offset: 0x2908B, size: 0x8, addend: 0x0, symName: '__ZNSt3__112__tuple_leafILm0EONS_9allocatorIZN3trd8Backtest3runERKNS_6vectorINS2_3BarENS1_IS5_EEEER8StrategyE3$_2EELb0EE3getB8ue170006Ev', symObjAddr: 0xD990, symBinAddr: 0x10001089C, symSize: 0x18 }
  - { offsetInCU: 0x28D43, offset: 0x290B0, size: 0x8, addend: 0x0, symName: '__ZNSt3__110__function6__funcIZN3trd8Backtest3runERKNS_6vectorINS2_3BarENS_9allocatorIS5_EEEER8StrategyE3$_2NS6_ISD_EEFvRKNS_7variantIJN6events11MarketEventENSG_11SignalEventENSG_10OrderEventENSG_9FillEventEEEEEED2Ev', symObjAddr: 0xD9A8, symBinAddr: 0x1000108B4, symSize: 0x2C }
  - { offsetInCU: 0x28D6F, offset: 0x290DC, size: 0x8, addend: 0x0, symName: '__ZNKSt3__110__function12__alloc_funcIZN3trd8Backtest3runERKNS_6vectorINS2_3BarENS_9allocatorIS5_EEEER8StrategyE3$_2NS6_ISD_EEFvRKNS_7variantIJN6events11MarketEventENSG_11SignalEventENSG_10OrderEventENSG_9FillEventEEEEEE15__get_allocatorB8ue170006Ev', symObjAddr: 0xD9D4, symBinAddr: 0x1000108E0, symSize: 0x24 }
  - { offsetInCU: 0x28D94, offset: 0x29101, size: 0x8, addend: 0x0, symName: '__ZNSt3__19allocatorINS_10__function6__funcIZN3trd8Backtest3runERKNS_6vectorINS3_3BarENS0_IS6_EEEER8StrategyE3$_2NS0_ISD_EEFvRKNS_7variantIJN6events11MarketEventENSG_11SignalEventENSG_10OrderEventENSG_9FillEventEEEEEEEE8allocateB8ue170006Em', symObjAddr: 0xD9F8, symBinAddr: 0x100010904, symSize: 0x58 }
  - { offsetInCU: 0x28DD8, offset: 0x29145, size: 0x8, addend: 0x0, symName: '__ZNSt3__122__allocator_destructorINS_9allocatorINS_10__function6__funcIZN3trd8Backtest3runERKNS_6vectorINS4_3BarENS1_IS7_EEEER8StrategyE3$_2NS1_ISE_EEFvRKNS_7variantIJN6events11MarketEventENSH_11SignalEventENSH_10OrderEventENSH_9FillEventEEEEEEEEEEC1B8ue170006ERSR_m', symObjAddr: 0xDA50, symBinAddr: 0x10001095C, symSize: 0x3C }
  - { offsetInCU: 0x28EB3, offset: 0x29220, size: 0x8, addend: 0x0, symName: '__ZNSt3__110unique_ptrINS_10__function6__funcIZN3trd8Backtest3runERKNS_6vectorINS3_3BarENS_9allocatorIS6_EEEER8StrategyE3$_2NS7_ISE_EEFvRKNS_7variantIJN6events11MarketEventENSH_11SignalEventENSH_10OrderEventENSH_9FillEventEEEEEEENS_22__allocator_destructorINS7_ISQ_EEEEEC1B8ue170006ILb1EvEEPSQ_NS_16__dependent_typeINS_27__unique_ptr_deleter_sfinaeIST_EEXT_EE20__good_rval_ref_typeE', symObjAddr: 0xDA8C, symBinAddr: 0x100010998, symSize: 0x3C }
  - { offsetInCU: 0x28F03, offset: 0x29270, size: 0x8, addend: 0x0, symName: '__ZNKSt3__110unique_ptrINS_10__function6__funcIZN3trd8Backtest3runERKNS_6vectorINS3_3BarENS_9allocatorIS6_EEEER8StrategyE3$_2NS7_ISE_EEFvRKNS_7variantIJN6events11MarketEventENSH_11SignalEventENSH_10OrderEventENSH_9FillEventEEEEEEENS_22__allocator_destructorINS7_ISQ_EEEEE3getB8ue170006Ev', symObjAddr: 0xDAC8, symBinAddr: 0x1000109D4, symSize: 0x28 }
  - { offsetInCU: 0x28F28, offset: 0x29295, size: 0x8, addend: 0x0, symName: '__ZNKSt3__110__function12__alloc_funcIZN3trd8Backtest3runERKNS_6vectorINS2_3BarENS_9allocatorIS5_EEEER8StrategyE3$_2NS6_ISD_EEFvRKNS_7variantIJN6events11MarketEventENSG_11SignalEventENSG_10OrderEventENSG_9FillEventEEEEEE8__targetB8ue170006Ev', symObjAddr: 0xDAF0, symBinAddr: 0x1000109FC, symSize: 0x24 }
  - { offsetInCU: 0x28F4D, offset: 0x292BA, size: 0x8, addend: 0x0, symName: '__ZNSt3__110__function6__funcIZN3trd8Backtest3runERKNS_6vectorINS2_3BarENS_9allocatorIS5_EEEER8StrategyE3$_2NS6_ISD_EEFvRKNS_7variantIJN6events11MarketEventENSG_11SignalEventENSG_10OrderEventENSG_9FillEventEEEEEEC1B8ue170006ERKSD_OSE_', symObjAddr: 0xDB14, symBinAddr: 0x100010A20, symSize: 0x3C }
  - { offsetInCU: 0x28F94, offset: 0x29301, size: 0x8, addend: 0x0, symName: '__ZNSt3__110unique_ptrINS_10__function6__funcIZN3trd8Backtest3runERKNS_6vectorINS3_3BarENS_9allocatorIS6_EEEER8StrategyE3$_2NS7_ISE_EEFvRKNS_7variantIJN6events11MarketEventENSH_11SignalEventENSH_10OrderEventENSH_9FillEventEEEEEEENS_22__allocator_destructorINS7_ISQ_EEEEE7releaseB8ue170006Ev', symObjAddr: 0xDB50, symBinAddr: 0x100010A5C, symSize: 0x44 }
  - { offsetInCU: 0x28FC8, offset: 0x29335, size: 0x8, addend: 0x0, symName: '__ZNSt3__110unique_ptrINS_10__function6__funcIZN3trd8Backtest3runERKNS_6vectorINS3_3BarENS_9allocatorIS6_EEEER8StrategyE3$_2NS7_ISE_EEFvRKNS_7variantIJN6events11MarketEventENSH_11SignalEventENSH_10OrderEventENSH_9FillEventEEEEEEENS_22__allocator_destructorINS7_ISQ_EEEEED1B8ue170006Ev', symObjAddr: 0xDB94, symBinAddr: 0x100010AA0, symSize: 0x2C }
  - { offsetInCU: 0x28FF1, offset: 0x2935E, size: 0x8, addend: 0x0, symName: '__ZNKSt3__117__compressed_pairIZN3trd8Backtest3runERKNS_6vectorINS1_3BarENS_9allocatorIS4_EEEER8StrategyE3$_2NS5_ISC_EEE6secondB8ue170006Ev', symObjAddr: 0xDBC0, symBinAddr: 0x100010ACC, symSize: 0x24 }
  - { offsetInCU: 0x29016, offset: 0x29383, size: 0x8, addend: 0x0, symName: '__ZNKSt3__122__compressed_pair_elemINS_9allocatorIZN3trd8Backtest3runERKNS_6vectorINS2_3BarENS1_IS5_EEEER8StrategyE3$_2EELi1ELb1EE5__getB8ue170006Ev', symObjAddr: 0xDBE4, symBinAddr: 0x100010AF0, symSize: 0x14 }
  - { offsetInCU: 0x29046, offset: 0x293B3, size: 0x8, addend: 0x0, symName: '__ZNSt3__116allocator_traitsINS_9allocatorINS_10__function6__funcIZN3trd8Backtest3runERKNS_6vectorINS4_3BarENS1_IS7_EEEER8StrategyE3$_2NS1_ISE_EEFvRKNS_7variantIJN6events11MarketEventENSH_11SignalEventENSH_10OrderEventENSH_9FillEventEEEEEEEEEE8max_sizeB8ue170006ISR_vEEmRKSR_', symObjAddr: 0xDBF8, symBinAddr: 0x100010B04, symSize: 0x24 }
  - { offsetInCU: 0x29074, offset: 0x293E1, size: 0x8, addend: 0x0, symName: '__ZNKSt3__19allocatorINS_10__function6__funcIZN3trd8Backtest3runERKNS_6vectorINS3_3BarENS0_IS6_EEEER8StrategyE3$_2NS0_ISD_EEFvRKNS_7variantIJN6events11MarketEventENSG_11SignalEventENSG_10OrderEventENSG_9FillEventEEEEEEEE8max_sizeB8ue170006Ev', symObjAddr: 0xDC1C, symBinAddr: 0x100010B28, symSize: 0x14 }
  - { offsetInCU: 0x29099, offset: 0x29406, size: 0x8, addend: 0x0, symName: '__ZNSt3__122__allocator_destructorINS_9allocatorINS_10__function6__funcIZN3trd8Backtest3runERKNS_6vectorINS4_3BarENS1_IS7_EEEER8StrategyE3$_2NS1_ISE_EEFvRKNS_7variantIJN6events11MarketEventENSH_11SignalEventENSH_10OrderEventENSH_9FillEventEEEEEEEEEEC2B8ue170006ERSR_m', symObjAddr: 0xDC30, symBinAddr: 0x100010B3C, symSize: 0x2C }
  - { offsetInCU: 0x290DE, offset: 0x2944B, size: 0x8, addend: 0x0, symName: '__ZNSt3__110unique_ptrINS_10__function6__funcIZN3trd8Backtest3runERKNS_6vectorINS3_3BarENS_9allocatorIS6_EEEER8StrategyE3$_2NS7_ISE_EEFvRKNS_7variantIJN6events11MarketEventENSH_11SignalEventENSH_10OrderEventENSH_9FillEventEEEEEEENS_22__allocator_destructorINS7_ISQ_EEEEEC2B8ue170006ILb1EvEEPSQ_NS_16__dependent_typeINS_27__unique_ptr_deleter_sfinaeIST_EEXT_EE20__good_rval_ref_typeE', symObjAddr: 0xDC5C, symBinAddr: 0x100010B68, symSize: 0x48 }
  - { offsetInCU: 0x2912E, offset: 0x2949B, size: 0x8, addend: 0x0, symName: '__ZNSt3__117__compressed_pairIPNS_10__function6__funcIZN3trd8Backtest3runERKNS_6vectorINS3_3BarENS_9allocatorIS6_EEEER8StrategyE3$_2NS7_ISE_EEFvRKNS_7variantIJN6events11MarketEventENSH_11SignalEventENSH_10OrderEventENSH_9FillEventEEEEEEENS_22__allocator_destructorINS7_ISQ_EEEEEC1B8ue170006IRSR_SU_EEOT_OT0_', symObjAddr: 0xDCA4, symBinAddr: 0x100010BB0, symSize: 0x3C }
  - { offsetInCU: 0x29185, offset: 0x294F2, size: 0x8, addend: 0x0, symName: '__ZNSt3__117__compressed_pairIPNS_10__function6__funcIZN3trd8Backtest3runERKNS_6vectorINS3_3BarENS_9allocatorIS6_EEEER8StrategyE3$_2NS7_ISE_EEFvRKNS_7variantIJN6events11MarketEventENSH_11SignalEventENSH_10OrderEventENSH_9FillEventEEEEEEENS_22__allocator_destructorINS7_ISQ_EEEEEC2B8ue170006IRSR_SU_EEOT_OT0_', symObjAddr: 0xDCE0, symBinAddr: 0x100010BEC, symSize: 0x48 }
  - { offsetInCU: 0x291DC, offset: 0x29549, size: 0x8, addend: 0x0, symName: '__ZNSt3__122__compressed_pair_elemIPNS_10__function6__funcIZN3trd8Backtest3runERKNS_6vectorINS3_3BarENS_9allocatorIS6_EEEER8StrategyE3$_2NS7_ISE_EEFvRKNS_7variantIJN6events11MarketEventENSH_11SignalEventENSH_10OrderEventENSH_9FillEventEEEEEEELi0ELb0EEC2B8ue170006IRSR_vEEOT_', symObjAddr: 0xDD28, symBinAddr: 0x100010C34, symSize: 0x24 }
  - { offsetInCU: 0x2921D, offset: 0x2958A, size: 0x8, addend: 0x0, symName: '__ZNSt3__122__compressed_pair_elemINS_22__allocator_destructorINS_9allocatorINS_10__function6__funcIZN3trd8Backtest3runERKNS_6vectorINS5_3BarENS2_IS8_EEEER8StrategyE3$_2NS2_ISF_EEFvRKNS_7variantIJN6events11MarketEventENSI_11SignalEventENSI_10OrderEventENSI_9FillEventEEEEEEEEEEELi1ELb0EEC2B8ue170006IST_vEEOT_', symObjAddr: 0xDD4C, symBinAddr: 0x100010C58, symSize: 0x24 }
  - { offsetInCU: 0x2925E, offset: 0x295CB, size: 0x8, addend: 0x0, symName: '__ZNKSt3__117__compressed_pairIPNS_10__function6__funcIZN3trd8Backtest3runERKNS_6vectorINS3_3BarENS_9allocatorIS6_EEEER8StrategyE3$_2NS7_ISE_EEFvRKNS_7variantIJN6events11MarketEventENSH_11SignalEventENSH_10OrderEventENSH_9FillEventEEEEEEENS_22__allocator_destructorINS7_ISQ_EEEEE5firstB8ue170006Ev', symObjAddr: 0xDD70, symBinAddr: 0x100010C7C, symSize: 0x24 }
  - { offsetInCU: 0x29283, offset: 0x295F0, size: 0x8, addend: 0x0, symName: '__ZNKSt3__122__compressed_pair_elemIPNS_10__function6__funcIZN3trd8Backtest3runERKNS_6vectorINS3_3BarENS_9allocatorIS6_EEEER8StrategyE3$_2NS7_ISE_EEFvRKNS_7variantIJN6events11MarketEventENSH_11SignalEventENSH_10OrderEventENSH_9FillEventEEEEEEELi0ELb0EE5__getB8ue170006Ev', symObjAddr: 0xDD94, symBinAddr: 0x100010CA0, symSize: 0x14 }
  - { offsetInCU: 0x292A8, offset: 0x29615, size: 0x8, addend: 0x0, symName: '__ZNKSt3__117__compressed_pairIZN3trd8Backtest3runERKNS_6vectorINS1_3BarENS_9allocatorIS4_EEEER8StrategyE3$_2NS5_ISC_EEE5firstB8ue170006Ev', symObjAddr: 0xDDA8, symBinAddr: 0x100010CB4, symSize: 0x24 }
  - { offsetInCU: 0x292CD, offset: 0x2963A, size: 0x8, addend: 0x0, symName: '__ZNKSt3__122__compressed_pair_elemIZN3trd8Backtest3runERKNS_6vectorINS1_3BarENS_9allocatorIS4_EEEER8StrategyE3$_2Li0ELb0EE5__getB8ue170006Ev', symObjAddr: 0xDDCC, symBinAddr: 0x100010CD8, symSize: 0x14 }
  - { offsetInCU: 0x292F2, offset: 0x2965F, size: 0x8, addend: 0x0, symName: '__ZNSt3__110__function6__funcIZN3trd8Backtest3runERKNS_6vectorINS2_3BarENS_9allocatorIS5_EEEER8StrategyE3$_2NS6_ISD_EEFvRKNS_7variantIJN6events11MarketEventENSG_11SignalEventENSG_10OrderEventENSG_9FillEventEEEEEEC2B8ue170006ERKSD_OSE_', symObjAddr: 0xDDE0, symBinAddr: 0x100010CEC, symSize: 0x88 }
  - { offsetInCU: 0x29339, offset: 0x296A6, size: 0x8, addend: 0x0, symName: '__ZNSt3__110__function12__alloc_funcIZN3trd8Backtest3runERKNS_6vectorINS2_3BarENS_9allocatorIS5_EEEER8StrategyE3$_2NS6_ISD_EEFvRKNS_7variantIJN6events11MarketEventENSG_11SignalEventENSG_10OrderEventENSG_9FillEventEEEEEEC1B8ue170006ERKSD_OSE_', symObjAddr: 0xDE68, symBinAddr: 0x100010D74, symSize: 0x3C }
  - { offsetInCU: 0x2937E, offset: 0x296EB, size: 0x8, addend: 0x0, symName: '__ZNSt3__110__function12__alloc_funcIZN3trd8Backtest3runERKNS_6vectorINS2_3BarENS_9allocatorIS5_EEEER8StrategyE3$_2NS6_ISD_EEFvRKNS_7variantIJN6events11MarketEventENSG_11SignalEventENSG_10OrderEventENSG_9FillEventEEEEEEC2B8ue170006ERKSD_OSE_', symObjAddr: 0xDEA4, symBinAddr: 0x100010DB0, symSize: 0x5C }
  - { offsetInCU: 0x293C3, offset: 0x29730, size: 0x8, addend: 0x0, symName: '__ZNSt3__117__compressed_pairIZN3trd8Backtest3runERKNS_6vectorINS1_3BarENS_9allocatorIS4_EEEER8StrategyE3$_2NS5_ISC_EEEC1B8ue170006IJRKSC_EJOSD_EEENS_21piecewise_construct_tENS_5tupleIJDpT_EEENSK_IJDpT0_EEE', symObjAddr: 0xDF2C, symBinAddr: 0x100010E38, symSize: 0x3C }
  - { offsetInCU: 0x2942C, offset: 0x29799, size: 0x8, addend: 0x0, symName: '__ZNSt3__15tupleIJRKZN3trd8Backtest3runERKNS_6vectorINS1_3BarENS_9allocatorIS4_EEEER8StrategyE3$_2EEC1B8ue170006INS_4_AndELi0EEESE_', symObjAddr: 0xDF68, symBinAddr: 0x100010E74, symSize: 0x34 }
  - { offsetInCU: 0x29474, offset: 0x297E1, size: 0x8, addend: 0x0, symName: '__ZNSt3__15tupleIJRKZN3trd8Backtest3runERKNS_6vectorINS1_3BarENS_9allocatorIS4_EEEER8StrategyE3$_2EEC2B8ue170006INS_4_AndELi0EEESE_', symObjAddr: 0xDF9C, symBinAddr: 0x100010EA8, symSize: 0x34 }
  - { offsetInCU: 0x294BC, offset: 0x29829, size: 0x8, addend: 0x0, symName: '__ZNSt3__112__tuple_implINS_15__tuple_indicesIJLm0EEEEJRKZN3trd8Backtest3runERKNS_6vectorINS3_3BarENS_9allocatorIS6_EEEER8StrategyE3$_2EEC1B8ue170006IJLm0EEJSG_EJEJEJSG_EEENS1_IJXspT_EEEENS_13__tuple_typesIJDpT0_EEENS1_IJXspT1_EEEENSK_IJDpT2_EEEDpOT3_', symObjAddr: 0xDFD0, symBinAddr: 0x100010EDC, symSize: 0x34 }
  - { offsetInCU: 0x29550, offset: 0x298BD, size: 0x8, addend: 0x0, symName: '__ZNSt3__112__tuple_implINS_15__tuple_indicesIJLm0EEEEJRKZN3trd8Backtest3runERKNS_6vectorINS3_3BarENS_9allocatorIS6_EEEER8StrategyE3$_2EEC2B8ue170006IJLm0EEJSG_EJEJEJSG_EEENS1_IJXspT_EEEENS_13__tuple_typesIJDpT0_EEENS1_IJXspT1_EEEENSK_IJDpT2_EEEDpOT3_', symObjAddr: 0xE004, symBinAddr: 0x100010F10, symSize: 0x34 }
  - { offsetInCU: 0x295E4, offset: 0x29951, size: 0x8, addend: 0x0, symName: '__ZNSt3__112__tuple_leafILm0ERKZN3trd8Backtest3runERKNS_6vectorINS1_3BarENS_9allocatorIS4_EEEER8StrategyE3$_2Lb0EEC2B8ue170006ISE_vEEOT_', symObjAddr: 0xE038, symBinAddr: 0x100010F44, symSize: 0x20 }
  - { offsetInCU: 0x29626, offset: 0x29993, size: 0x8, addend: 0x0, symName: '__ZNSt3__117__compressed_pairIZN3trd8Backtest3runERKNS_6vectorINS1_3BarENS_9allocatorIS4_EEEER8StrategyE3$_2NS5_ISC_EEEC2B8ue170006IJRKSC_EJOSD_EEENS_21piecewise_construct_tENS_5tupleIJDpT_EEENSK_IJDpT0_EEE', symObjAddr: 0xE058, symBinAddr: 0x100010F64, symSize: 0x54 }
  - { offsetInCU: 0x2968F, offset: 0x299FC, size: 0x8, addend: 0x0, symName: '__ZNSt3__122__compressed_pair_elemIZN3trd8Backtest3runERKNS_6vectorINS1_3BarENS_9allocatorIS4_EEEER8StrategyE3$_2Li0ELb0EEC2B8ue170006IJRKSC_EJLm0EEEENS_21piecewise_construct_tENS_5tupleIJDpT_EEENS_15__tuple_indicesIJXspT0_EEEE', symObjAddr: 0xE0AC, symBinAddr: 0x100010FB8, symSize: 0x44 }
  - { offsetInCU: 0x296F1, offset: 0x29A5E, size: 0x8, addend: 0x0, symName: '__ZNSt3__112__tuple_leafILm0ERKZN3trd8Backtest3runERKNS_6vectorINS1_3BarENS_9allocatorIS4_EEEER8StrategyE3$_2Lb0EE3getB8ue170006Ev', symObjAddr: 0xE114, symBinAddr: 0x100011020, symSize: 0x18 }
  - { offsetInCU: 0x29716, offset: 0x29A83, size: 0x8, addend: 0x0, symName: '__ZNSt3__117__compressed_pairIPNS_10__function6__funcIZN3trd8Backtest3runERKNS_6vectorINS3_3BarENS_9allocatorIS6_EEEER8StrategyE3$_2NS7_ISE_EEFvRKNS_7variantIJN6events11MarketEventENSH_11SignalEventENSH_10OrderEventENSH_9FillEventEEEEEEENS_22__allocator_destructorINS7_ISQ_EEEEE5firstB8ue170006Ev', symObjAddr: 0xE12C, symBinAddr: 0x100011038, symSize: 0x24 }
  - { offsetInCU: 0x2973B, offset: 0x29AA8, size: 0x8, addend: 0x0, symName: '__ZNSt3__122__compressed_pair_elemIPNS_10__function6__funcIZN3trd8Backtest3runERKNS_6vectorINS3_3BarENS_9allocatorIS6_EEEER8StrategyE3$_2NS7_ISE_EEFvRKNS_7variantIJN6events11MarketEventENSH_11SignalEventENSH_10OrderEventENSH_9FillEventEEEEEEELi0ELb0EE5__getB8ue170006Ev', symObjAddr: 0xE150, symBinAddr: 0x10001105C, symSize: 0x14 }
  - { offsetInCU: 0x29760, offset: 0x29ACD, size: 0x8, addend: 0x0, symName: '__ZNSt3__110unique_ptrINS_10__function6__funcIZN3trd8Backtest3runERKNS_6vectorINS3_3BarENS_9allocatorIS6_EEEER8StrategyE3$_2NS7_ISE_EEFvRKNS_7variantIJN6events11MarketEventENSH_11SignalEventENSH_10OrderEventENSH_9FillEventEEEEEEENS_22__allocator_destructorINS7_ISQ_EEEEED2B8ue170006Ev', symObjAddr: 0xE164, symBinAddr: 0x100011070, symSize: 0x30 }
  - { offsetInCU: 0x29789, offset: 0x29AF6, size: 0x8, addend: 0x0, symName: '__ZNSt3__110unique_ptrINS_10__function6__funcIZN3trd8Backtest3runERKNS_6vectorINS3_3BarENS_9allocatorIS6_EEEER8StrategyE3$_2NS7_ISE_EEFvRKNS_7variantIJN6events11MarketEventENSH_11SignalEventENSH_10OrderEventENSH_9FillEventEEEEEEENS_22__allocator_destructorINS7_ISQ_EEEEE5resetB8ue170006EPSQ_', symObjAddr: 0xE194, symBinAddr: 0x1000110A0, symSize: 0x78 }
  - { offsetInCU: 0x297CC, offset: 0x29B39, size: 0x8, addend: 0x0, symName: '__ZNSt3__117__compressed_pairIPNS_10__function6__funcIZN3trd8Backtest3runERKNS_6vectorINS3_3BarENS_9allocatorIS6_EEEER8StrategyE3$_2NS7_ISE_EEFvRKNS_7variantIJN6events11MarketEventENSH_11SignalEventENSH_10OrderEventENSH_9FillEventEEEEEEENS_22__allocator_destructorINS7_ISQ_EEEEE6secondB8ue170006Ev', symObjAddr: 0xE20C, symBinAddr: 0x100011118, symSize: 0x28 }
  - { offsetInCU: 0x297F1, offset: 0x29B5E, size: 0x8, addend: 0x0, symName: '__ZNSt3__122__allocator_destructorINS_9allocatorINS_10__function6__funcIZN3trd8Backtest3runERKNS_6vectorINS4_3BarENS1_IS7_EEEER8StrategyE3$_2NS1_ISE_EEFvRKNS_7variantIJN6events11MarketEventENSH_11SignalEventENSH_10OrderEventENSH_9FillEventEEEEEEEEEEclB8ue170006EPSQ_', symObjAddr: 0xE234, symBinAddr: 0x100011140, symSize: 0x34 }
  - { offsetInCU: 0x29824, offset: 0x29B91, size: 0x8, addend: 0x0, symName: '__ZNSt3__122__compressed_pair_elemINS_22__allocator_destructorINS_9allocatorINS_10__function6__funcIZN3trd8Backtest3runERKNS_6vectorINS5_3BarENS2_IS8_EEEER8StrategyE3$_2NS2_ISF_EEFvRKNS_7variantIJN6events11MarketEventENSI_11SignalEventENSI_10OrderEventENSI_9FillEventEEEEEEEEEEELi1ELb0EE5__getB8ue170006Ev', symObjAddr: 0xE268, symBinAddr: 0x100011174, symSize: 0x14 }
  - { offsetInCU: 0x29849, offset: 0x29BB6, size: 0x8, addend: 0x0, symName: '__ZNSt3__116allocator_traitsINS_9allocatorINS_10__function6__funcIZN3trd8Backtest3runERKNS_6vectorINS4_3BarENS1_IS7_EEEER8StrategyE3$_2NS1_ISE_EEFvRKNS_7variantIJN6events11MarketEventENSH_11SignalEventENSH_10OrderEventENSH_9FillEventEEEEEEEEEE10deallocateB8ue170006ERSR_PSQ_m', symObjAddr: 0xE27C, symBinAddr: 0x100011188, symSize: 0x34 }
  - { offsetInCU: 0x2988B, offset: 0x29BF8, size: 0x8, addend: 0x0, symName: '__ZNSt3__19allocatorINS_10__function6__funcIZN3trd8Backtest3runERKNS_6vectorINS3_3BarENS0_IS6_EEEER8StrategyE3$_2NS0_ISD_EEFvRKNS_7variantIJN6events11MarketEventENSG_11SignalEventENSG_10OrderEventENSG_9FillEventEEEEEEEE10deallocateB8ue170006EPSP_m', symObjAddr: 0xE2B0, symBinAddr: 0x1000111BC, symSize: 0x40 }
  - { offsetInCU: 0x298CC, offset: 0x29C39, size: 0x8, addend: 0x0, symName: '__ZNSt3__110__function6__funcIZN3trd8Backtest3runERKNS_6vectorINS2_3BarENS_9allocatorIS5_EEEER8StrategyE3$_2NS6_ISD_EEFvRKNS_7variantIJN6events11MarketEventENSG_11SignalEventENSG_10OrderEventENSG_9FillEventEEEEEEC1B8ue170006ERKSD_RKSE_', symObjAddr: 0xE2F0, symBinAddr: 0x1000111FC, symSize: 0x3C }
  - { offsetInCU: 0x29913, offset: 0x29C80, size: 0x8, addend: 0x0, symName: '__ZNSt3__110__function6__funcIZN3trd8Backtest3runERKNS_6vectorINS2_3BarENS_9allocatorIS5_EEEER8StrategyE3$_2NS6_ISD_EEFvRKNS_7variantIJN6events11MarketEventENSG_11SignalEventENSG_10OrderEventENSG_9FillEventEEEEEEC2B8ue170006ERKSD_RKSE_', symObjAddr: 0xE32C, symBinAddr: 0x100011238, symSize: 0x88 }
  - { offsetInCU: 0x2995A, offset: 0x29CC7, size: 0x8, addend: 0x0, symName: '__ZNSt3__110__function12__alloc_funcIZN3trd8Backtest3runERKNS_6vectorINS2_3BarENS_9allocatorIS5_EEEER8StrategyE3$_2NS6_ISD_EEFvRKNS_7variantIJN6events11MarketEventENSG_11SignalEventENSG_10OrderEventENSG_9FillEventEEEEEEC1B8ue170006ERKSD_RKSE_', symObjAddr: 0xE3B4, symBinAddr: 0x1000112C0, symSize: 0x3C }
  - { offsetInCU: 0x2999F, offset: 0x29D0C, size: 0x8, addend: 0x0, symName: '__ZNSt3__110__function12__alloc_funcIZN3trd8Backtest3runERKNS_6vectorINS2_3BarENS_9allocatorIS5_EEEER8StrategyE3$_2NS6_ISD_EEFvRKNS_7variantIJN6events11MarketEventENSG_11SignalEventENSG_10OrderEventENSG_9FillEventEEEEEEC2B8ue170006ERKSD_RKSE_', symObjAddr: 0xE3F0, symBinAddr: 0x1000112FC, symSize: 0x5C }
  - { offsetInCU: 0x299E4, offset: 0x29D51, size: 0x8, addend: 0x0, symName: '__ZNSt3__117__compressed_pairIZN3trd8Backtest3runERKNS_6vectorINS1_3BarENS_9allocatorIS4_EEEER8StrategyE3$_2NS5_ISC_EEEC1B8ue170006IJRKSC_EJRKSD_EEENS_21piecewise_construct_tENS_5tupleIJDpT_EEENSL_IJDpT0_EEE', symObjAddr: 0xE478, symBinAddr: 0x100011384, symSize: 0x3C }
  - { offsetInCU: 0x29A4D, offset: 0x29DBA, size: 0x8, addend: 0x0, symName: '__ZNSt3__15tupleIJRKNS_9allocatorIZN3trd8Backtest3runERKNS_6vectorINS2_3BarENS1_IS5_EEEER8StrategyE3$_2EEEEC1B8ue170006INS_4_AndELi0EEESF_', symObjAddr: 0xE4B4, symBinAddr: 0x1000113C0, symSize: 0x34 }
  - { offsetInCU: 0x29A95, offset: 0x29E02, size: 0x8, addend: 0x0, symName: '__ZNSt3__15tupleIJRKNS_9allocatorIZN3trd8Backtest3runERKNS_6vectorINS2_3BarENS1_IS5_EEEER8StrategyE3$_2EEEEC2B8ue170006INS_4_AndELi0EEESF_', symObjAddr: 0xE4E8, symBinAddr: 0x1000113F4, symSize: 0x34 }
  - { offsetInCU: 0x29ADD, offset: 0x29E4A, size: 0x8, addend: 0x0, symName: '__ZNSt3__112__tuple_implINS_15__tuple_indicesIJLm0EEEEJRKNS_9allocatorIZN3trd8Backtest3runERKNS_6vectorINS4_3BarENS3_IS7_EEEER8StrategyE3$_2EEEEC1B8ue170006IJLm0EEJSH_EJEJEJSH_EEENS1_IJXspT_EEEENS_13__tuple_typesIJDpT0_EEENS1_IJXspT1_EEEENSL_IJDpT2_EEEDpOT3_', symObjAddr: 0xE51C, symBinAddr: 0x100011428, symSize: 0x34 }
  - { offsetInCU: 0x29B71, offset: 0x29EDE, size: 0x8, addend: 0x0, symName: '__ZNSt3__112__tuple_implINS_15__tuple_indicesIJLm0EEEEJRKNS_9allocatorIZN3trd8Backtest3runERKNS_6vectorINS4_3BarENS3_IS7_EEEER8StrategyE3$_2EEEEC2B8ue170006IJLm0EEJSH_EJEJEJSH_EEENS1_IJXspT_EEEENS_13__tuple_typesIJDpT0_EEENS1_IJXspT1_EEEENSL_IJDpT2_EEEDpOT3_', symObjAddr: 0xE550, symBinAddr: 0x10001145C, symSize: 0x34 }
  - { offsetInCU: 0x29C05, offset: 0x29F72, size: 0x8, addend: 0x0, symName: '__ZNSt3__112__tuple_leafILm0ERKNS_9allocatorIZN3trd8Backtest3runERKNS_6vectorINS2_3BarENS1_IS5_EEEER8StrategyE3$_2EELb0EEC2B8ue170006ISF_vEEOT_', symObjAddr: 0xE584, symBinAddr: 0x100011490, symSize: 0x20 }
  - { offsetInCU: 0x29C47, offset: 0x29FB4, size: 0x8, addend: 0x0, symName: '__ZNSt3__117__compressed_pairIZN3trd8Backtest3runERKNS_6vectorINS1_3BarENS_9allocatorIS4_EEEER8StrategyE3$_2NS5_ISC_EEEC2B8ue170006IJRKSC_EJRKSD_EEENS_21piecewise_construct_tENS_5tupleIJDpT_EEENSL_IJDpT0_EEE', symObjAddr: 0xE5A4, symBinAddr: 0x1000114B0, symSize: 0x54 }
  - { offsetInCU: 0x29CB0, offset: 0x2A01D, size: 0x8, addend: 0x0, symName: '__ZNSt3__122__compressed_pair_elemINS_9allocatorIZN3trd8Backtest3runERKNS_6vectorINS2_3BarENS1_IS5_EEEER8StrategyE3$_2EELi1ELb1EEC2B8ue170006IJRKSD_EJLm0EEEENS_21piecewise_construct_tENS_5tupleIJDpT_EEENS_15__tuple_indicesIJXspT0_EEEE', symObjAddr: 0xE5F8, symBinAddr: 0x100011504, symSize: 0x38 }
  - { offsetInCU: 0x29D12, offset: 0x2A07F, size: 0x8, addend: 0x0, symName: '__ZNSt3__112__tuple_leafILm0ERKNS_9allocatorIZN3trd8Backtest3runERKNS_6vectorINS2_3BarENS1_IS5_EEEER8StrategyE3$_2EELb0EE3getB8ue170006Ev', symObjAddr: 0xE654, symBinAddr: 0x100011560, symSize: 0x18 }
  - { offsetInCU: 0x29D37, offset: 0x2A0A4, size: 0x8, addend: 0x0, symName: '__ZNSt3__110__function12__alloc_funcIZN3trd8Backtest3runERKNS_6vectorINS2_3BarENS_9allocatorIS5_EEEER8StrategyE3$_2NS6_ISD_EEFvRKNS_7variantIJN6events11MarketEventENSG_11SignalEventENSG_10OrderEventENSG_9FillEventEEEEEE7destroyB8ue170006Ev', symObjAddr: 0xE66C, symBinAddr: 0x100011578, symSize: 0x10 }
  - { offsetInCU: 0x29D5C, offset: 0x2A0C9, size: 0x8, addend: 0x0, symName: '__ZNSt3__110__function12__alloc_funcIZN3trd8Backtest3runERKNS_6vectorINS2_3BarENS_9allocatorIS5_EEEER8StrategyE3$_2NS6_ISD_EEFvRKNS_7variantIJN6events11MarketEventENSG_11SignalEventENSG_10OrderEventENSG_9FillEventEEEEEEclB8ue170006ESN_', symObjAddr: 0xE67C, symBinAddr: 0x100011588, symSize: 0x30 }
  - { offsetInCU: 0x29D8F, offset: 0x2A0FC, size: 0x8, addend: 0x0, symName: '__ZNSt3__128__invoke_void_return_wrapperIvLb1EE6__callB8ue170006IJRZN3trd8Backtest3runERKNS_6vectorINS3_3BarENS_9allocatorIS6_EEEER8StrategyE3$_2RKNS_7variantIJN6events11MarketEventENSH_11SignalEventENSH_10OrderEventENSH_9FillEventEEEEEEEvDpOT_', symObjAddr: 0xE6AC, symBinAddr: 0x1000115B8, symSize: 0x2C }
  - { offsetInCU: 0x29DD2, offset: 0x2A13F, size: 0x8, addend: 0x0, symName: '__ZNSt3__117__compressed_pairIZN3trd8Backtest3runERKNS_6vectorINS1_3BarENS_9allocatorIS4_EEEER8StrategyE3$_2NS5_ISC_EEE5firstB8ue170006Ev', symObjAddr: 0xE6D8, symBinAddr: 0x1000115E4, symSize: 0x24 }
  - { offsetInCU: 0x29DFC, offset: 0x2A169, size: 0x8, addend: 0x0, symName: '__ZZN3trd8Backtest3runERKNSt3__16vectorINS_3BarENS1_9allocatorIS3_EEEER8StrategyENK3$_2clERKNS1_7variantIJN6events11MarketEventENSD_11SignalEventENSD_10OrderEventENSD_9FillEventEEEE', symObjAddr: 0xE728, symBinAddr: 0x100011634, symSize: 0x30 }
  - { offsetInCU: 0x29E33, offset: 0x2A1A0, size: 0x8, addend: 0x0, symName: __ZN17ExcecutionHandler2onERKNSt3__17variantIJN6events11MarketEventENS2_11SignalEventENS2_10OrderEventENS2_9FillEventEEEE, symObjAddr: 0xE758, symBinAddr: 0x100011664, symSize: 0xD4 }
  - { offsetInCU: 0x29EAE, offset: 0x2A21B, size: 0x8, addend: 0x0, symName: __ZNSt3__17variantIJN6events11MarketEventENS1_11SignalEventENS1_10OrderEventENS1_9FillEventEEEC1B8ue170006IS5_Li0ELi0ELi0ES5_Lm3ELi0EEEOT_, symObjAddr: 0xE850, symBinAddr: 0x10001175C, symSize: 0x34 }
  - { offsetInCU: 0x29F25, offset: 0x2A292, size: 0x8, addend: 0x0, symName: __ZNSt3__116__variant_detail8__access9__variant9__get_altB8ue170006ILm2ERKNS_7variantIJN6events11MarketEventENS5_11SignalEventENS5_10OrderEventENS5_9FillEventEEEEEEODaOT0_, symObjAddr: 0xE948, symBinAddr: 0x100011854, symSize: 0x24 }
  - { offsetInCU: 0x29F5C, offset: 0x2A2C9, size: 0x8, addend: 0x0, symName: __ZNSt3__116__variant_detail8__access6__base9__get_altB8ue170006ILm2ERKNS0_6__implIJN6events11MarketEventENS5_11SignalEventENS5_10OrderEventENS5_9FillEventEEEEEEODaOT0_, symObjAddr: 0xE96C, symBinAddr: 0x100011878, symSize: 0x24 }
  - { offsetInCU: 0x29F93, offset: 0x2A300, size: 0x8, addend: 0x0, symName: __ZNSt3__116__variant_detail8__access7__union9__get_altB8ue170006IRKNS0_7__unionILNS0_6_TraitE0ELm0EJN6events11MarketEventENS6_11SignalEventENS6_10OrderEventENS6_9FillEventEEEELm2EEEODaOT_NS_16in_place_index_tIXT0_EEE, symObjAddr: 0xE990, symBinAddr: 0x10001189C, symSize: 0x24 }
  - { offsetInCU: 0x29FD6, offset: 0x2A343, size: 0x8, addend: 0x0, symName: __ZNSt3__116__variant_detail8__access7__union9__get_altB8ue170006IRKNS0_7__unionILNS0_6_TraitE0ELm1EJN6events11SignalEventENS6_10OrderEventENS6_9FillEventEEEELm1EEEODaOT_NS_16in_place_index_tIXT0_EEE, symObjAddr: 0xE9B4, symBinAddr: 0x1000118C0, symSize: 0x24 }
  - { offsetInCU: 0x2A019, offset: 0x2A386, size: 0x8, addend: 0x0, symName: __ZNSt3__116__variant_detail8__access7__union9__get_altB8ue170006IRKNS0_7__unionILNS0_6_TraitE0ELm2EJN6events10OrderEventENS6_9FillEventEEEEEEODaOT_NS_16in_place_index_tILm0EEE, symObjAddr: 0xE9D8, symBinAddr: 0x1000118E4, symSize: 0x14 }
  - { offsetInCU: 0x2A052, offset: 0x2A3BF, size: 0x8, addend: 0x0, symName: __ZNSt3__17variantIJN6events11MarketEventENS1_11SignalEventENS1_10OrderEventENS1_9FillEventEEEC2B8ue170006IS5_Li0ELi0ELi0ES5_Lm3ELi0EEEOT_, symObjAddr: 0xE9EC, symBinAddr: 0x1000118F8, symSize: 0x3C }
  - { offsetInCU: 0x2A0BE, offset: 0x2A42B, size: 0x8, addend: 0x0, symName: __ZNSt3__116__variant_detail6__implIJN6events11MarketEventENS2_11SignalEventENS2_10OrderEventENS2_9FillEventEEECI1NS0_6__baseILNS0_6_TraitE0EJS3_S4_S5_S6_EEEILm3EJS6_EEENS_16in_place_index_tIXT_EEEDpOT0_, symObjAddr: 0xEA28, symBinAddr: 0x100011934, symSize: 0x34 }
  - { offsetInCU: 0x2A0FC, offset: 0x2A469, size: 0x8, addend: 0x0, symName: __ZNSt3__116__variant_detail6__implIJN6events11MarketEventENS2_11SignalEventENS2_10OrderEventENS2_9FillEventEEECI2NS0_6__baseILNS0_6_TraitE0EJS3_S4_S5_S6_EEEILm3EJS6_EEENS_16in_place_index_tIXT_EEEDpOT0_, symObjAddr: 0xEA5C, symBinAddr: 0x100011968, symSize: 0x34 }
  - { offsetInCU: 0x2A13A, offset: 0x2A4A7, size: 0x8, addend: 0x0, symName: __ZNSt3__116__variant_detail17__copy_assignmentINS0_8__traitsIJN6events11MarketEventENS3_11SignalEventENS3_10OrderEventENS3_9FillEventEEEELNS0_6_TraitE0EECI2NS0_6__baseILS9_0EJS4_S5_S6_S7_EEEILm3EJS7_EEENS_16in_place_index_tIXT_EEEDpOT0_, symObjAddr: 0xEA90, symBinAddr: 0x10001199C, symSize: 0x34 }
  - { offsetInCU: 0x2A178, offset: 0x2A4E5, size: 0x8, addend: 0x0, symName: __ZNSt3__116__variant_detail17__move_assignmentINS0_8__traitsIJN6events11MarketEventENS3_11SignalEventENS3_10OrderEventENS3_9FillEventEEEELNS0_6_TraitE0EECI2NS0_6__baseILS9_0EJS4_S5_S6_S7_EEEILm3EJS7_EEENS_16in_place_index_tIXT_EEEDpOT0_, symObjAddr: 0xEAC4, symBinAddr: 0x1000119D0, symSize: 0x34 }
  - { offsetInCU: 0x2A1B6, offset: 0x2A523, size: 0x8, addend: 0x0, symName: __ZNSt3__116__variant_detail12__assignmentINS0_8__traitsIJN6events11MarketEventENS3_11SignalEventENS3_10OrderEventENS3_9FillEventEEEEECI2NS0_6__baseILNS0_6_TraitE0EJS4_S5_S6_S7_EEEILm3EJS7_EEENS_16in_place_index_tIXT_EEEDpOT0_, symObjAddr: 0xEAF8, symBinAddr: 0x100011A04, symSize: 0x34 }
  - { offsetInCU: 0x2A1F4, offset: 0x2A561, size: 0x8, addend: 0x0, symName: __ZNSt3__116__variant_detail18__copy_constructorINS0_8__traitsIJN6events11MarketEventENS3_11SignalEventENS3_10OrderEventENS3_9FillEventEEEELNS0_6_TraitE0EECI2NS0_6__baseILS9_0EJS4_S5_S6_S7_EEEILm3EJS7_EEENS_16in_place_index_tIXT_EEEDpOT0_, symObjAddr: 0xEB2C, symBinAddr: 0x100011A38, symSize: 0x34 }
  - { offsetInCU: 0x2A232, offset: 0x2A59F, size: 0x8, addend: 0x0, symName: __ZNSt3__116__variant_detail18__move_constructorINS0_8__traitsIJN6events11MarketEventENS3_11SignalEventENS3_10OrderEventENS3_9FillEventEEEELNS0_6_TraitE0EECI2NS0_6__baseILS9_0EJS4_S5_S6_S7_EEEILm3EJS7_EEENS_16in_place_index_tIXT_EEEDpOT0_, symObjAddr: 0xEB60, symBinAddr: 0x100011A6C, symSize: 0x34 }
  - { offsetInCU: 0x2A270, offset: 0x2A5DD, size: 0x8, addend: 0x0, symName: __ZNSt3__116__variant_detail6__ctorINS0_8__traitsIJN6events11MarketEventENS3_11SignalEventENS3_10OrderEventENS3_9FillEventEEEEECI2NS0_6__baseILNS0_6_TraitE0EJS4_S5_S6_S7_EEEILm3EJS7_EEENS_16in_place_index_tIXT_EEEDpOT0_, symObjAddr: 0xEB94, symBinAddr: 0x100011AA0, symSize: 0x34 }
  - { offsetInCU: 0x2A2AE, offset: 0x2A61B, size: 0x8, addend: 0x0, symName: __ZNSt3__116__variant_detail6__dtorINS0_8__traitsIJN6events11MarketEventENS3_11SignalEventENS3_10OrderEventENS3_9FillEventEEEELNS0_6_TraitE0EECI2NS0_6__baseILS9_0EJS4_S5_S6_S7_EEEILm3EJS7_EEENS_16in_place_index_tIXT_EEEDpOT0_, symObjAddr: 0xEBC8, symBinAddr: 0x100011AD4, symSize: 0x34 }
  - { offsetInCU: 0x2A2EC, offset: 0x2A659, size: 0x8, addend: 0x0, symName: __ZNSt3__116__variant_detail6__baseILNS0_6_TraitE0EJN6events11MarketEventENS3_11SignalEventENS3_10OrderEventENS3_9FillEventEEEC2B8ue170006ILm3EJS7_EEENS_16in_place_index_tIXT_EEEDpOT0_, symObjAddr: 0xEBFC, symBinAddr: 0x100011B08, symSize: 0x3C }
  - { offsetInCU: 0x2A345, offset: 0x2A6B2, size: 0x8, addend: 0x0, symName: __ZNSt3__116__variant_detail7__unionILNS0_6_TraitE0ELm0EJN6events11MarketEventENS3_11SignalEventENS3_10OrderEventENS3_9FillEventEEEC1B8ue170006ILm3EJS7_EEENS_16in_place_index_tIXT_EEEDpOT0_, symObjAddr: 0xEC38, symBinAddr: 0x100011B44, symSize: 0x34 }
  - { offsetInCU: 0x2A39E, offset: 0x2A70B, size: 0x8, addend: 0x0, symName: __ZNSt3__116__variant_detail7__unionILNS0_6_TraitE0ELm0EJN6events11MarketEventENS3_11SignalEventENS3_10OrderEventENS3_9FillEventEEEC2B8ue170006ILm3EJS7_EEENS_16in_place_index_tIXT_EEEDpOT0_, symObjAddr: 0xEC6C, symBinAddr: 0x100011B78, symSize: 0x34 }
  - { offsetInCU: 0x2A3F7, offset: 0x2A764, size: 0x8, addend: 0x0, symName: __ZNSt3__116__variant_detail7__unionILNS0_6_TraitE0ELm1EJN6events11SignalEventENS3_10OrderEventENS3_9FillEventEEEC1B8ue170006ILm2EJS6_EEENS_16in_place_index_tIXT_EEEDpOT0_, symObjAddr: 0xECA0, symBinAddr: 0x100011BAC, symSize: 0x34 }
  - { offsetInCU: 0x2A450, offset: 0x2A7BD, size: 0x8, addend: 0x0, symName: __ZNSt3__116__variant_detail7__unionILNS0_6_TraitE0ELm1EJN6events11SignalEventENS3_10OrderEventENS3_9FillEventEEEC2B8ue170006ILm2EJS6_EEENS_16in_place_index_tIXT_EEEDpOT0_, symObjAddr: 0xECD4, symBinAddr: 0x100011BE0, symSize: 0x34 }
  - { offsetInCU: 0x2A4A9, offset: 0x2A816, size: 0x8, addend: 0x0, symName: __ZNSt3__116__variant_detail7__unionILNS0_6_TraitE0ELm2EJN6events10OrderEventENS3_9FillEventEEEC1B8ue170006ILm1EJS5_EEENS_16in_place_index_tIXT_EEEDpOT0_, symObjAddr: 0xED08, symBinAddr: 0x100011C14, symSize: 0x34 }
  - { offsetInCU: 0x2A502, offset: 0x2A86F, size: 0x8, addend: 0x0, symName: __ZNSt3__116__variant_detail7__unionILNS0_6_TraitE0ELm2EJN6events10OrderEventENS3_9FillEventEEEC2B8ue170006ILm1EJS5_EEENS_16in_place_index_tIXT_EEEDpOT0_, symObjAddr: 0xED3C, symBinAddr: 0x100011C48, symSize: 0x34 }
  - { offsetInCU: 0x2A55B, offset: 0x2A8C8, size: 0x8, addend: 0x0, symName: __ZNSt3__116__variant_detail7__unionILNS0_6_TraitE0ELm3EJN6events9FillEventEEEC1B8ue170006IJS4_EEENS_16in_place_index_tILm0EEEDpOT_, symObjAddr: 0xED70, symBinAddr: 0x100011C7C, symSize: 0x34 }
  - { offsetInCU: 0x2A5AA, offset: 0x2A917, size: 0x8, addend: 0x0, symName: __ZNSt3__116__variant_detail7__unionILNS0_6_TraitE0ELm3EJN6events9FillEventEEEC2B8ue170006IJS4_EEENS_16in_place_index_tILm0EEEDpOT_, symObjAddr: 0xEDA4, symBinAddr: 0x100011CB0, symSize: 0x34 }
  - { offsetInCU: 0x2A5FE, offset: 0x2A96B, size: 0x8, addend: 0x0, symName: __ZNSt3__116__variant_detail5__altILm3EN6events9FillEventEEC1B8ue170006IJS3_EEENS_10in_place_tEDpOT_, symObjAddr: 0xEDD8, symBinAddr: 0x100011CE4, symSize: 0x34 }
  - { offsetInCU: 0x2A64D, offset: 0x2A9BA, size: 0x8, addend: 0x0, symName: __ZNSt3__116__variant_detail5__altILm3EN6events9FillEventEEC2B8ue170006IJS3_EEENS_10in_place_tEDpOT_, symObjAddr: 0xEE0C, symBinAddr: 0x100011D18, symSize: 0x2C }
  - { offsetInCU: 0x2A69C, offset: 0x2AA09, size: 0x8, addend: 0x0, symName: '__ZNSt3__122__compressed_pair_elemIZN3trd8Backtest3runERKNS_6vectorINS1_3BarENS_9allocatorIS4_EEEER8StrategyE3$_2Li0ELb0EE5__getB8ue170006Ev', symObjAddr: 0xEE38, symBinAddr: 0x100011D44, symSize: 0x14 }
  - { offsetInCU: 0x2A6C1, offset: 0x2AA2E, size: 0x8, addend: 0x0, symName: '__ZNSt3__18functionIFvRKNS_7variantIJN6events11MarketEventENS2_11SignalEventENS2_10OrderEventENS2_9FillEventEEEEEEC2IZN3trd8Backtest3runERKNS_6vectorINSD_3BarENS_9allocatorISG_EEEER8StrategyE3$_3vEET_', symObjAddr: 0xEE4C, symBinAddr: 0x100011D58, symSize: 0x38 }
  - { offsetInCU: 0x2A705, offset: 0x2AA72, size: 0x8, addend: 0x0, symName: '__ZNSt3__110__function12__value_funcIFvRKNS_7variantIJN6events11MarketEventENS3_11SignalEventENS3_10OrderEventENS3_9FillEventEEEEEEC1B8ue170006IZN3trd8Backtest3runERKNS_6vectorINSE_3BarENS_9allocatorISH_EEEER8StrategyE3$_3vEEOT_', symObjAddr: 0xEE84, symBinAddr: 0x100011D90, symSize: 0x50 }
  - { offsetInCU: 0x2A747, offset: 0x2AAB4, size: 0x8, addend: 0x0, symName: '__ZNSt3__19allocatorIZN3trd8Backtest3runERKNS_6vectorINS1_3BarENS0_IS4_EEEER8StrategyE3$_3EC1B8ue170006Ev', symObjAddr: 0xEED4, symBinAddr: 0x100011DE0, symSize: 0x2C }
  - { offsetInCU: 0x2A770, offset: 0x2AADD, size: 0x8, addend: 0x0, symName: '__ZNSt3__110__function12__value_funcIFvRKNS_7variantIJN6events11MarketEventENS3_11SignalEventENS3_10OrderEventENS3_9FillEventEEEEEEC1B8ue170006IZN3trd8Backtest3runERKNS_6vectorINSE_3BarENS_9allocatorISH_EEEER8StrategyE3$_3NSI_ISP_EEEEOT_RKT0_', symObjAddr: 0xEF00, symBinAddr: 0x100011E0C, symSize: 0x3C }
  - { offsetInCU: 0x2A7C9, offset: 0x2AB36, size: 0x8, addend: 0x0, symName: '__ZNSt3__19allocatorIZN3trd8Backtest3runERKNS_6vectorINS1_3BarENS0_IS4_EEEER8StrategyE3$_3EC2B8ue170006Ev', symObjAddr: 0xEF3C, symBinAddr: 0x100011E48, symSize: 0x2C }
  - { offsetInCU: 0x2A7F2, offset: 0x2AB5F, size: 0x8, addend: 0x0, symName: '__ZNSt3__116__non_trivial_ifILb1ENS_9allocatorIZN3trd8Backtest3runERKNS_6vectorINS2_3BarENS1_IS5_EEEER8StrategyE3$_3EEEC2B8ue170006Ev', symObjAddr: 0xEF68, symBinAddr: 0x100011E74, symSize: 0x14 }
  - { offsetInCU: 0x2A81B, offset: 0x2AB88, size: 0x8, addend: 0x0, symName: '__ZNSt3__110__function12__value_funcIFvRKNS_7variantIJN6events11MarketEventENS3_11SignalEventENS3_10OrderEventENS3_9FillEventEEEEEEC2B8ue170006IZN3trd8Backtest3runERKNS_6vectorINSE_3BarENS_9allocatorISH_EEEER8StrategyE3$_3NSI_ISP_EEEEOT_RKT0_', symObjAddr: 0xEF7C, symBinAddr: 0x100011E88, symSize: 0x94 }
  - { offsetInCU: 0x2A8C3, offset: 0x2AC30, size: 0x8, addend: 0x0, symName: '__ZNSt3__19allocatorINS_10__function6__funcIZN3trd8Backtest3runERKNS_6vectorINS3_3BarENS0_IS6_EEEER8StrategyE3$_3NS0_ISD_EEFvRKNS_7variantIJN6events11MarketEventENSG_11SignalEventENSG_10OrderEventENSG_9FillEventEEEEEEEEC1B8ue170006ISD_EERKNS0_IT_EE', symObjAddr: 0xF028, symBinAddr: 0x100011F34, symSize: 0x34 }
  - { offsetInCU: 0x2A905, offset: 0x2AC72, size: 0x8, addend: 0x0, symName: '__ZNSt3__19allocatorIZN3trd8Backtest3runERKNS_6vectorINS1_3BarENS0_IS4_EEEER8StrategyE3$_3EC1B8ue170006INS_10__function6__funcISB_SC_FvRKNS_7variantIJN6events11MarketEventENSH_11SignalEventENSH_10OrderEventENSH_9FillEventEEEEEEEEERKNS0_IT_EE', symObjAddr: 0xF05C, symBinAddr: 0x100011F68, symSize: 0x34 }
  - { offsetInCU: 0x2A941, offset: 0x2ACAE, size: 0x8, addend: 0x0, symName: '__ZNSt3__110__function6__funcIZN3trd8Backtest3runERKNS_6vectorINS2_3BarENS_9allocatorIS5_EEEER8StrategyE3$_3NS6_ISD_EEFvRKNS_7variantIJN6events11MarketEventENSG_11SignalEventENSG_10OrderEventENSG_9FillEventEEEEEEC1B8ue170006EOSD_OSE_', symObjAddr: 0xF090, symBinAddr: 0x100011F9C, symSize: 0x3C }
  - { offsetInCU: 0x2A988, offset: 0x2ACF5, size: 0x8, addend: 0x0, symName: '__ZNSt3__19allocatorINS_10__function6__funcIZN3trd8Backtest3runERKNS_6vectorINS3_3BarENS0_IS6_EEEER8StrategyE3$_3NS0_ISD_EEFvRKNS_7variantIJN6events11MarketEventENSG_11SignalEventENSG_10OrderEventENSG_9FillEventEEEEEEEEC2B8ue170006ISD_EERKNS0_IT_EE', symObjAddr: 0xF0CC, symBinAddr: 0x100011FD8, symSize: 0x30 }
  - { offsetInCU: 0x2A9C4, offset: 0x2AD31, size: 0x8, addend: 0x0, symName: '__ZNSt3__116__non_trivial_ifILb1ENS_9allocatorINS_10__function6__funcIZN3trd8Backtest3runERKNS_6vectorINS4_3BarENS1_IS7_EEEER8StrategyE3$_3NS1_ISE_EEFvRKNS_7variantIJN6events11MarketEventENSH_11SignalEventENSH_10OrderEventENSH_9FillEventEEEEEEEEEEC2B8ue170006Ev', symObjAddr: 0xF0FC, symBinAddr: 0x100012008, symSize: 0x14 }
  - { offsetInCU: 0x2A9ED, offset: 0x2AD5A, size: 0x8, addend: 0x0, symName: '__ZNSt3__19allocatorIZN3trd8Backtest3runERKNS_6vectorINS1_3BarENS0_IS4_EEEER8StrategyE3$_3EC2B8ue170006INS_10__function6__funcISB_SC_FvRKNS_7variantIJN6events11MarketEventENSH_11SignalEventENSH_10OrderEventENSH_9FillEventEEEEEEEEERKNS0_IT_EE', symObjAddr: 0xF110, symBinAddr: 0x10001201C, symSize: 0x30 }
  - { offsetInCU: 0x2AA29, offset: 0x2AD96, size: 0x8, addend: 0x0, symName: '__ZNSt3__110__function6__funcIZN3trd8Backtest3runERKNS_6vectorINS2_3BarENS_9allocatorIS5_EEEER8StrategyE3$_3NS6_ISD_EEFvRKNS_7variantIJN6events11MarketEventENSG_11SignalEventENSG_10OrderEventENSG_9FillEventEEEEEEC2B8ue170006EOSD_OSE_', symObjAddr: 0xF140, symBinAddr: 0x10001204C, symSize: 0x88 }
  - { offsetInCU: 0x2AA70, offset: 0x2ADDD, size: 0x8, addend: 0x0, symName: '__ZNSt3__110__function12__alloc_funcIZN3trd8Backtest3runERKNS_6vectorINS2_3BarENS_9allocatorIS5_EEEER8StrategyE3$_3NS6_ISD_EEFvRKNS_7variantIJN6events11MarketEventENSG_11SignalEventENSG_10OrderEventENSG_9FillEventEEEEEEC1B8ue170006EOSD_OSE_', symObjAddr: 0xF1C8, symBinAddr: 0x1000120D4, symSize: 0x3C }
  - { offsetInCU: 0x2AAB5, offset: 0x2AE22, size: 0x8, addend: 0x0, symName: '__ZNSt3__110__function6__funcIZN3trd8Backtest3runERKNS_6vectorINS2_3BarENS_9allocatorIS5_EEEER8StrategyE3$_3NS6_ISD_EEFvRKNS_7variantIJN6events11MarketEventENSG_11SignalEventENSG_10OrderEventENSG_9FillEventEEEEEED1Ev', symObjAddr: 0xF204, symBinAddr: 0x100012110, symSize: 0x2C }
  - { offsetInCU: 0x2AAE1, offset: 0x2AE4E, size: 0x8, addend: 0x0, symName: '__ZNSt3__110__function6__funcIZN3trd8Backtest3runERKNS_6vectorINS2_3BarENS_9allocatorIS5_EEEER8StrategyE3$_3NS6_ISD_EEFvRKNS_7variantIJN6events11MarketEventENSG_11SignalEventENSG_10OrderEventENSG_9FillEventEEEEEED0Ev', symObjAddr: 0xF230, symBinAddr: 0x10001213C, symSize: 0x30 }
  - { offsetInCU: 0x2AB0D, offset: 0x2AE7A, size: 0x8, addend: 0x0, symName: '__ZNKSt3__110__function6__funcIZN3trd8Backtest3runERKNS_6vectorINS2_3BarENS_9allocatorIS5_EEEER8StrategyE3$_3NS6_ISD_EEFvRKNS_7variantIJN6events11MarketEventENSG_11SignalEventENSG_10OrderEventENSG_9FillEventEEEEEE7__cloneEv', symObjAddr: 0xF260, symBinAddr: 0x10001216C, symSize: 0xFC }
  - { offsetInCU: 0x2AB5E, offset: 0x2AECB, size: 0x8, addend: 0x0, symName: '__ZNKSt3__110__function6__funcIZN3trd8Backtest3runERKNS_6vectorINS2_3BarENS_9allocatorIS5_EEEER8StrategyE3$_3NS6_ISD_EEFvRKNS_7variantIJN6events11MarketEventENSG_11SignalEventENSG_10OrderEventENSG_9FillEventEEEEEE7__cloneEPNS0_6__baseISO_EE', symObjAddr: 0xF35C, symBinAddr: 0x100012268, symSize: 0x58 }
  - { offsetInCU: 0x2AB94, offset: 0x2AF01, size: 0x8, addend: 0x0, symName: '__ZNSt3__110__function6__funcIZN3trd8Backtest3runERKNS_6vectorINS2_3BarENS_9allocatorIS5_EEEER8StrategyE3$_3NS6_ISD_EEFvRKNS_7variantIJN6events11MarketEventENSG_11SignalEventENSG_10OrderEventENSG_9FillEventEEEEEE7destroyEv', symObjAddr: 0xF3B4, symBinAddr: 0x1000122C0, symSize: 0x28 }
  - { offsetInCU: 0x2ABBB, offset: 0x2AF28, size: 0x8, addend: 0x0, symName: '__ZNSt3__110__function6__funcIZN3trd8Backtest3runERKNS_6vectorINS2_3BarENS_9allocatorIS5_EEEER8StrategyE3$_3NS6_ISD_EEFvRKNS_7variantIJN6events11MarketEventENSG_11SignalEventENSG_10OrderEventENSG_9FillEventEEEEEE18destroy_deallocateEv', symObjAddr: 0xF3DC, symBinAddr: 0x1000122E8, symSize: 0x58 }
  - { offsetInCU: 0x2ABFD, offset: 0x2AF6A, size: 0x8, addend: 0x0, symName: '__ZNSt3__110__function6__funcIZN3trd8Backtest3runERKNS_6vectorINS2_3BarENS_9allocatorIS5_EEEER8StrategyE3$_3NS6_ISD_EEFvRKNS_7variantIJN6events11MarketEventENSG_11SignalEventENSG_10OrderEventENSG_9FillEventEEEEEEclESN_', symObjAddr: 0xF434, symBinAddr: 0x100012340, symSize: 0x30 }
  - { offsetInCU: 0x2AC33, offset: 0x2AFA0, size: 0x8, addend: 0x0, symName: '__ZNKSt3__110__function6__funcIZN3trd8Backtest3runERKNS_6vectorINS2_3BarENS_9allocatorIS5_EEEER8StrategyE3$_3NS6_ISD_EEFvRKNS_7variantIJN6events11MarketEventENSG_11SignalEventENSG_10OrderEventENSG_9FillEventEEEEEE6targetERKSt9type_info', symObjAddr: 0xF464, symBinAddr: 0x100012370, symSize: 0x60 }
  - { offsetInCU: 0x2AC69, offset: 0x2AFD6, size: 0x8, addend: 0x0, symName: '__ZNKSt3__110__function6__funcIZN3trd8Backtest3runERKNS_6vectorINS2_3BarENS_9allocatorIS5_EEEER8StrategyE3$_3NS6_ISD_EEFvRKNS_7variantIJN6events11MarketEventENSG_11SignalEventENSG_10OrderEventENSG_9FillEventEEEEEE11target_typeEv', symObjAddr: 0xF4C4, symBinAddr: 0x1000123D0, symSize: 0x18 }
  - { offsetInCU: 0x2AC90, offset: 0x2AFFD, size: 0x8, addend: 0x0, symName: '__ZNSt3__110__function12__alloc_funcIZN3trd8Backtest3runERKNS_6vectorINS2_3BarENS_9allocatorIS5_EEEER8StrategyE3$_3NS6_ISD_EEFvRKNS_7variantIJN6events11MarketEventENSG_11SignalEventENSG_10OrderEventENSG_9FillEventEEEEEEC2B8ue170006EOSD_OSE_', symObjAddr: 0xF4DC, symBinAddr: 0x1000123E8, symSize: 0x5C }
  - { offsetInCU: 0x2ACD5, offset: 0x2B042, size: 0x8, addend: 0x0, symName: '__ZNSt3__117__compressed_pairIZN3trd8Backtest3runERKNS_6vectorINS1_3BarENS_9allocatorIS4_EEEER8StrategyE3$_3NS5_ISC_EEEC1B8ue170006IJOSC_EJOSD_EEENS_21piecewise_construct_tENS_5tupleIJDpT_EEENSJ_IJDpT0_EEE', symObjAddr: 0xF590, symBinAddr: 0x10001249C, symSize: 0x3C }
  - { offsetInCU: 0x2AD3E, offset: 0x2B0AB, size: 0x8, addend: 0x0, symName: '__ZNSt3__15tupleIJOZN3trd8Backtest3runERKNS_6vectorINS1_3BarENS_9allocatorIS4_EEEER8StrategyE3$_3EEC1B8ue170006IJSC_ELi0EEEDpOT_', symObjAddr: 0xF5CC, symBinAddr: 0x1000124D8, symSize: 0x34 }
  - { offsetInCU: 0x2AD87, offset: 0x2B0F4, size: 0x8, addend: 0x0, symName: '__ZNSt3__15tupleIJOZN3trd8Backtest3runERKNS_6vectorINS1_3BarENS_9allocatorIS4_EEEER8StrategyE3$_3EEC2B8ue170006IJSC_ELi0EEEDpOT_', symObjAddr: 0xF600, symBinAddr: 0x10001250C, symSize: 0x34 }
  - { offsetInCU: 0x2ADD0, offset: 0x2B13D, size: 0x8, addend: 0x0, symName: '__ZNSt3__112__tuple_implINS_15__tuple_indicesIJLm0EEEEJOZN3trd8Backtest3runERKNS_6vectorINS3_3BarENS_9allocatorIS6_EEEER8StrategyE3$_3EEC1B8ue170006IJLm0EEJSF_EJEJEJSE_EEENS1_IJXspT_EEEENS_13__tuple_typesIJDpT0_EEENS1_IJXspT1_EEEENSJ_IJDpT2_EEEDpOT3_', symObjAddr: 0xF634, symBinAddr: 0x100012540, symSize: 0x34 }
  - { offsetInCU: 0x2AE64, offset: 0x2B1D1, size: 0x8, addend: 0x0, symName: '__ZNSt3__112__tuple_implINS_15__tuple_indicesIJLm0EEEEJOZN3trd8Backtest3runERKNS_6vectorINS3_3BarENS_9allocatorIS6_EEEER8StrategyE3$_3EEC2B8ue170006IJLm0EEJSF_EJEJEJSE_EEENS1_IJXspT_EEEENS_13__tuple_typesIJDpT0_EEENS1_IJXspT1_EEEENSJ_IJDpT2_EEEDpOT3_', symObjAddr: 0xF668, symBinAddr: 0x100012574, symSize: 0x34 }
  - { offsetInCU: 0x2AEF8, offset: 0x2B265, size: 0x8, addend: 0x0, symName: '__ZNSt3__112__tuple_leafILm0EOZN3trd8Backtest3runERKNS_6vectorINS1_3BarENS_9allocatorIS4_EEEER8StrategyE3$_3Lb0EEC2B8ue170006ISC_vEEOT_', symObjAddr: 0xF69C, symBinAddr: 0x1000125A8, symSize: 0x20 }
  - { offsetInCU: 0x2AF3A, offset: 0x2B2A7, size: 0x8, addend: 0x0, symName: '__ZNSt3__15tupleIJONS_9allocatorIZN3trd8Backtest3runERKNS_6vectorINS2_3BarENS1_IS5_EEEER8StrategyE3$_3EEEEC1B8ue170006IJSD_ELi0EEEDpOT_', symObjAddr: 0xF6BC, symBinAddr: 0x1000125C8, symSize: 0x34 }
  - { offsetInCU: 0x2AF83, offset: 0x2B2F0, size: 0x8, addend: 0x0, symName: '__ZNSt3__15tupleIJONS_9allocatorIZN3trd8Backtest3runERKNS_6vectorINS2_3BarENS1_IS5_EEEER8StrategyE3$_3EEEEC2B8ue170006IJSD_ELi0EEEDpOT_', symObjAddr: 0xF6F0, symBinAddr: 0x1000125FC, symSize: 0x34 }
  - { offsetInCU: 0x2AFCC, offset: 0x2B339, size: 0x8, addend: 0x0, symName: '__ZNSt3__112__tuple_implINS_15__tuple_indicesIJLm0EEEEJONS_9allocatorIZN3trd8Backtest3runERKNS_6vectorINS4_3BarENS3_IS7_EEEER8StrategyE3$_3EEEEC1B8ue170006IJLm0EEJSG_EJEJEJSF_EEENS1_IJXspT_EEEENS_13__tuple_typesIJDpT0_EEENS1_IJXspT1_EEEENSK_IJDpT2_EEEDpOT3_', symObjAddr: 0xF724, symBinAddr: 0x100012630, symSize: 0x34 }
  - { offsetInCU: 0x2B060, offset: 0x2B3CD, size: 0x8, addend: 0x0, symName: '__ZNSt3__112__tuple_implINS_15__tuple_indicesIJLm0EEEEJONS_9allocatorIZN3trd8Backtest3runERKNS_6vectorINS4_3BarENS3_IS7_EEEER8StrategyE3$_3EEEEC2B8ue170006IJLm0EEJSG_EJEJEJSF_EEENS1_IJXspT_EEEENS_13__tuple_typesIJDpT0_EEENS1_IJXspT1_EEEENSK_IJDpT2_EEEDpOT3_', symObjAddr: 0xF758, symBinAddr: 0x100012664, symSize: 0x34 }
  - { offsetInCU: 0x2B0F4, offset: 0x2B461, size: 0x8, addend: 0x0, symName: '__ZNSt3__112__tuple_leafILm0EONS_9allocatorIZN3trd8Backtest3runERKNS_6vectorINS2_3BarENS1_IS5_EEEER8StrategyE3$_3EELb0EEC2B8ue170006ISD_vEEOT_', symObjAddr: 0xF78C, symBinAddr: 0x100012698, symSize: 0x20 }
  - { offsetInCU: 0x2B136, offset: 0x2B4A3, size: 0x8, addend: 0x0, symName: '__ZNSt3__117__compressed_pairIZN3trd8Backtest3runERKNS_6vectorINS1_3BarENS_9allocatorIS4_EEEER8StrategyE3$_3NS5_ISC_EEEC2B8ue170006IJOSC_EJOSD_EEENS_21piecewise_construct_tENS_5tupleIJDpT_EEENSJ_IJDpT0_EEE', symObjAddr: 0xF7AC, symBinAddr: 0x1000126B8, symSize: 0x54 }
  - { offsetInCU: 0x2B19F, offset: 0x2B50C, size: 0x8, addend: 0x0, symName: '__ZNSt3__122__compressed_pair_elemIZN3trd8Backtest3runERKNS_6vectorINS1_3BarENS_9allocatorIS4_EEEER8StrategyE3$_3Li0ELb0EEC2B8ue170006IJOSC_EJLm0EEEENS_21piecewise_construct_tENS_5tupleIJDpT_EEENS_15__tuple_indicesIJXspT0_EEEE', symObjAddr: 0xF800, symBinAddr: 0x10001270C, symSize: 0x44 }
  - { offsetInCU: 0x2B201, offset: 0x2B56E, size: 0x8, addend: 0x0, symName: '__ZNSt3__122__compressed_pair_elemINS_9allocatorIZN3trd8Backtest3runERKNS_6vectorINS2_3BarENS1_IS5_EEEER8StrategyE3$_3EELi1ELb1EEC2B8ue170006IJOSD_EJLm0EEEENS_21piecewise_construct_tENS_5tupleIJDpT_EEENS_15__tuple_indicesIJXspT0_EEEE', symObjAddr: 0xF844, symBinAddr: 0x100012750, symSize: 0x38 }
  - { offsetInCU: 0x2B263, offset: 0x2B5D0, size: 0x8, addend: 0x0, symName: '__ZNSt3__112__tuple_leafILm0EOZN3trd8Backtest3runERKNS_6vectorINS1_3BarENS_9allocatorIS4_EEEER8StrategyE3$_3Lb0EE3getB8ue170006Ev', symObjAddr: 0xF8A0, symBinAddr: 0x1000127AC, symSize: 0x18 }
  - { offsetInCU: 0x2B288, offset: 0x2B5F5, size: 0x8, addend: 0x0, symName: '__ZNSt3__112__tuple_leafILm0EONS_9allocatorIZN3trd8Backtest3runERKNS_6vectorINS2_3BarENS1_IS5_EEEER8StrategyE3$_3EELb0EE3getB8ue170006Ev', symObjAddr: 0xF8DC, symBinAddr: 0x1000127E8, symSize: 0x18 }
  - { offsetInCU: 0x2B2AD, offset: 0x2B61A, size: 0x8, addend: 0x0, symName: '__ZNSt3__110__function6__funcIZN3trd8Backtest3runERKNS_6vectorINS2_3BarENS_9allocatorIS5_EEEER8StrategyE3$_3NS6_ISD_EEFvRKNS_7variantIJN6events11MarketEventENSG_11SignalEventENSG_10OrderEventENSG_9FillEventEEEEEED2Ev', symObjAddr: 0xF8F4, symBinAddr: 0x100012800, symSize: 0x2C }
  - { offsetInCU: 0x2B2D9, offset: 0x2B646, size: 0x8, addend: 0x0, symName: '__ZNKSt3__110__function12__alloc_funcIZN3trd8Backtest3runERKNS_6vectorINS2_3BarENS_9allocatorIS5_EEEER8StrategyE3$_3NS6_ISD_EEFvRKNS_7variantIJN6events11MarketEventENSG_11SignalEventENSG_10OrderEventENSG_9FillEventEEEEEE15__get_allocatorB8ue170006Ev', symObjAddr: 0xF920, symBinAddr: 0x10001282C, symSize: 0x24 }
  - { offsetInCU: 0x2B2FE, offset: 0x2B66B, size: 0x8, addend: 0x0, symName: '__ZNSt3__19allocatorINS_10__function6__funcIZN3trd8Backtest3runERKNS_6vectorINS3_3BarENS0_IS6_EEEER8StrategyE3$_3NS0_ISD_EEFvRKNS_7variantIJN6events11MarketEventENSG_11SignalEventENSG_10OrderEventENSG_9FillEventEEEEEEEE8allocateB8ue170006Em', symObjAddr: 0xF944, symBinAddr: 0x100012850, symSize: 0x58 }
  - { offsetInCU: 0x2B342, offset: 0x2B6AF, size: 0x8, addend: 0x0, symName: '__ZNSt3__122__allocator_destructorINS_9allocatorINS_10__function6__funcIZN3trd8Backtest3runERKNS_6vectorINS4_3BarENS1_IS7_EEEER8StrategyE3$_3NS1_ISE_EEFvRKNS_7variantIJN6events11MarketEventENSH_11SignalEventENSH_10OrderEventENSH_9FillEventEEEEEEEEEEC1B8ue170006ERSR_m', symObjAddr: 0xF99C, symBinAddr: 0x1000128A8, symSize: 0x3C }
  - { offsetInCU: 0x2B41D, offset: 0x2B78A, size: 0x8, addend: 0x0, symName: '__ZNSt3__110unique_ptrINS_10__function6__funcIZN3trd8Backtest3runERKNS_6vectorINS3_3BarENS_9allocatorIS6_EEEER8StrategyE3$_3NS7_ISE_EEFvRKNS_7variantIJN6events11MarketEventENSH_11SignalEventENSH_10OrderEventENSH_9FillEventEEEEEEENS_22__allocator_destructorINS7_ISQ_EEEEEC1B8ue170006ILb1EvEEPSQ_NS_16__dependent_typeINS_27__unique_ptr_deleter_sfinaeIST_EEXT_EE20__good_rval_ref_typeE', symObjAddr: 0xF9D8, symBinAddr: 0x1000128E4, symSize: 0x3C }
  - { offsetInCU: 0x2B46D, offset: 0x2B7DA, size: 0x8, addend: 0x0, symName: '__ZNKSt3__110unique_ptrINS_10__function6__funcIZN3trd8Backtest3runERKNS_6vectorINS3_3BarENS_9allocatorIS6_EEEER8StrategyE3$_3NS7_ISE_EEFvRKNS_7variantIJN6events11MarketEventENSH_11SignalEventENSH_10OrderEventENSH_9FillEventEEEEEEENS_22__allocator_destructorINS7_ISQ_EEEEE3getB8ue170006Ev', symObjAddr: 0xFA14, symBinAddr: 0x100012920, symSize: 0x28 }
  - { offsetInCU: 0x2B492, offset: 0x2B7FF, size: 0x8, addend: 0x0, symName: '__ZNKSt3__110__function12__alloc_funcIZN3trd8Backtest3runERKNS_6vectorINS2_3BarENS_9allocatorIS5_EEEER8StrategyE3$_3NS6_ISD_EEFvRKNS_7variantIJN6events11MarketEventENSG_11SignalEventENSG_10OrderEventENSG_9FillEventEEEEEE8__targetB8ue170006Ev', symObjAddr: 0xFA3C, symBinAddr: 0x100012948, symSize: 0x24 }
  - { offsetInCU: 0x2B4B7, offset: 0x2B824, size: 0x8, addend: 0x0, symName: '__ZNSt3__110__function6__funcIZN3trd8Backtest3runERKNS_6vectorINS2_3BarENS_9allocatorIS5_EEEER8StrategyE3$_3NS6_ISD_EEFvRKNS_7variantIJN6events11MarketEventENSG_11SignalEventENSG_10OrderEventENSG_9FillEventEEEEEEC1B8ue170006ERKSD_OSE_', symObjAddr: 0xFA60, symBinAddr: 0x10001296C, symSize: 0x3C }
  - { offsetInCU: 0x2B4FE, offset: 0x2B86B, size: 0x8, addend: 0x0, symName: '__ZNSt3__110unique_ptrINS_10__function6__funcIZN3trd8Backtest3runERKNS_6vectorINS3_3BarENS_9allocatorIS6_EEEER8StrategyE3$_3NS7_ISE_EEFvRKNS_7variantIJN6events11MarketEventENSH_11SignalEventENSH_10OrderEventENSH_9FillEventEEEEEEENS_22__allocator_destructorINS7_ISQ_EEEEE7releaseB8ue170006Ev', symObjAddr: 0xFA9C, symBinAddr: 0x1000129A8, symSize: 0x44 }
  - { offsetInCU: 0x2B532, offset: 0x2B89F, size: 0x8, addend: 0x0, symName: '__ZNSt3__110unique_ptrINS_10__function6__funcIZN3trd8Backtest3runERKNS_6vectorINS3_3BarENS_9allocatorIS6_EEEER8StrategyE3$_3NS7_ISE_EEFvRKNS_7variantIJN6events11MarketEventENSH_11SignalEventENSH_10OrderEventENSH_9FillEventEEEEEEENS_22__allocator_destructorINS7_ISQ_EEEEED1B8ue170006Ev', symObjAddr: 0xFAE0, symBinAddr: 0x1000129EC, symSize: 0x2C }
  - { offsetInCU: 0x2B55B, offset: 0x2B8C8, size: 0x8, addend: 0x0, symName: '__ZNKSt3__117__compressed_pairIZN3trd8Backtest3runERKNS_6vectorINS1_3BarENS_9allocatorIS4_EEEER8StrategyE3$_3NS5_ISC_EEE6secondB8ue170006Ev', symObjAddr: 0xFB0C, symBinAddr: 0x100012A18, symSize: 0x24 }
  - { offsetInCU: 0x2B580, offset: 0x2B8ED, size: 0x8, addend: 0x0, symName: '__ZNKSt3__122__compressed_pair_elemINS_9allocatorIZN3trd8Backtest3runERKNS_6vectorINS2_3BarENS1_IS5_EEEER8StrategyE3$_3EELi1ELb1EE5__getB8ue170006Ev', symObjAddr: 0xFB30, symBinAddr: 0x100012A3C, symSize: 0x14 }
  - { offsetInCU: 0x2B5B0, offset: 0x2B91D, size: 0x8, addend: 0x0, symName: '__ZNSt3__116allocator_traitsINS_9allocatorINS_10__function6__funcIZN3trd8Backtest3runERKNS_6vectorINS4_3BarENS1_IS7_EEEER8StrategyE3$_3NS1_ISE_EEFvRKNS_7variantIJN6events11MarketEventENSH_11SignalEventENSH_10OrderEventENSH_9FillEventEEEEEEEEEE8max_sizeB8ue170006ISR_vEEmRKSR_', symObjAddr: 0xFB44, symBinAddr: 0x100012A50, symSize: 0x24 }
  - { offsetInCU: 0x2B5DE, offset: 0x2B94B, size: 0x8, addend: 0x0, symName: '__ZNKSt3__19allocatorINS_10__function6__funcIZN3trd8Backtest3runERKNS_6vectorINS3_3BarENS0_IS6_EEEER8StrategyE3$_3NS0_ISD_EEFvRKNS_7variantIJN6events11MarketEventENSG_11SignalEventENSG_10OrderEventENSG_9FillEventEEEEEEEE8max_sizeB8ue170006Ev', symObjAddr: 0xFB68, symBinAddr: 0x100012A74, symSize: 0x14 }
  - { offsetInCU: 0x2B603, offset: 0x2B970, size: 0x8, addend: 0x0, symName: '__ZNSt3__122__allocator_destructorINS_9allocatorINS_10__function6__funcIZN3trd8Backtest3runERKNS_6vectorINS4_3BarENS1_IS7_EEEER8StrategyE3$_3NS1_ISE_EEFvRKNS_7variantIJN6events11MarketEventENSH_11SignalEventENSH_10OrderEventENSH_9FillEventEEEEEEEEEEC2B8ue170006ERSR_m', symObjAddr: 0xFB7C, symBinAddr: 0x100012A88, symSize: 0x2C }
  - { offsetInCU: 0x2B648, offset: 0x2B9B5, size: 0x8, addend: 0x0, symName: '__ZNSt3__110unique_ptrINS_10__function6__funcIZN3trd8Backtest3runERKNS_6vectorINS3_3BarENS_9allocatorIS6_EEEER8StrategyE3$_3NS7_ISE_EEFvRKNS_7variantIJN6events11MarketEventENSH_11SignalEventENSH_10OrderEventENSH_9FillEventEEEEEEENS_22__allocator_destructorINS7_ISQ_EEEEEC2B8ue170006ILb1EvEEPSQ_NS_16__dependent_typeINS_27__unique_ptr_deleter_sfinaeIST_EEXT_EE20__good_rval_ref_typeE', symObjAddr: 0xFBA8, symBinAddr: 0x100012AB4, symSize: 0x48 }
  - { offsetInCU: 0x2B698, offset: 0x2BA05, size: 0x8, addend: 0x0, symName: '__ZNSt3__117__compressed_pairIPNS_10__function6__funcIZN3trd8Backtest3runERKNS_6vectorINS3_3BarENS_9allocatorIS6_EEEER8StrategyE3$_3NS7_ISE_EEFvRKNS_7variantIJN6events11MarketEventENSH_11SignalEventENSH_10OrderEventENSH_9FillEventEEEEEEENS_22__allocator_destructorINS7_ISQ_EEEEEC1B8ue170006IRSR_SU_EEOT_OT0_', symObjAddr: 0xFBF0, symBinAddr: 0x100012AFC, symSize: 0x3C }
  - { offsetInCU: 0x2B6EF, offset: 0x2BA5C, size: 0x8, addend: 0x0, symName: '__ZNSt3__117__compressed_pairIPNS_10__function6__funcIZN3trd8Backtest3runERKNS_6vectorINS3_3BarENS_9allocatorIS6_EEEER8StrategyE3$_3NS7_ISE_EEFvRKNS_7variantIJN6events11MarketEventENSH_11SignalEventENSH_10OrderEventENSH_9FillEventEEEEEEENS_22__allocator_destructorINS7_ISQ_EEEEEC2B8ue170006IRSR_SU_EEOT_OT0_', symObjAddr: 0xFC2C, symBinAddr: 0x100012B38, symSize: 0x48 }
  - { offsetInCU: 0x2B746, offset: 0x2BAB3, size: 0x8, addend: 0x0, symName: '__ZNSt3__122__compressed_pair_elemIPNS_10__function6__funcIZN3trd8Backtest3runERKNS_6vectorINS3_3BarENS_9allocatorIS6_EEEER8StrategyE3$_3NS7_ISE_EEFvRKNS_7variantIJN6events11MarketEventENSH_11SignalEventENSH_10OrderEventENSH_9FillEventEEEEEEELi0ELb0EEC2B8ue170006IRSR_vEEOT_', symObjAddr: 0xFC74, symBinAddr: 0x100012B80, symSize: 0x24 }
  - { offsetInCU: 0x2B787, offset: 0x2BAF4, size: 0x8, addend: 0x0, symName: '__ZNSt3__122__compressed_pair_elemINS_22__allocator_destructorINS_9allocatorINS_10__function6__funcIZN3trd8Backtest3runERKNS_6vectorINS5_3BarENS2_IS8_EEEER8StrategyE3$_3NS2_ISF_EEFvRKNS_7variantIJN6events11MarketEventENSI_11SignalEventENSI_10OrderEventENSI_9FillEventEEEEEEEEEEELi1ELb0EEC2B8ue170006IST_vEEOT_', symObjAddr: 0xFC98, symBinAddr: 0x100012BA4, symSize: 0x24 }
  - { offsetInCU: 0x2B7C8, offset: 0x2BB35, size: 0x8, addend: 0x0, symName: '__ZNKSt3__117__compressed_pairIPNS_10__function6__funcIZN3trd8Backtest3runERKNS_6vectorINS3_3BarENS_9allocatorIS6_EEEER8StrategyE3$_3NS7_ISE_EEFvRKNS_7variantIJN6events11MarketEventENSH_11SignalEventENSH_10OrderEventENSH_9FillEventEEEEEEENS_22__allocator_destructorINS7_ISQ_EEEEE5firstB8ue170006Ev', symObjAddr: 0xFCBC, symBinAddr: 0x100012BC8, symSize: 0x24 }
  - { offsetInCU: 0x2B7ED, offset: 0x2BB5A, size: 0x8, addend: 0x0, symName: '__ZNKSt3__122__compressed_pair_elemIPNS_10__function6__funcIZN3trd8Backtest3runERKNS_6vectorINS3_3BarENS_9allocatorIS6_EEEER8StrategyE3$_3NS7_ISE_EEFvRKNS_7variantIJN6events11MarketEventENSH_11SignalEventENSH_10OrderEventENSH_9FillEventEEEEEEELi0ELb0EE5__getB8ue170006Ev', symObjAddr: 0xFCE0, symBinAddr: 0x100012BEC, symSize: 0x14 }
  - { offsetInCU: 0x2B812, offset: 0x2BB7F, size: 0x8, addend: 0x0, symName: '__ZNKSt3__117__compressed_pairIZN3trd8Backtest3runERKNS_6vectorINS1_3BarENS_9allocatorIS4_EEEER8StrategyE3$_3NS5_ISC_EEE5firstB8ue170006Ev', symObjAddr: 0xFCF4, symBinAddr: 0x100012C00, symSize: 0x24 }
  - { offsetInCU: 0x2B837, offset: 0x2BBA4, size: 0x8, addend: 0x0, symName: '__ZNKSt3__122__compressed_pair_elemIZN3trd8Backtest3runERKNS_6vectorINS1_3BarENS_9allocatorIS4_EEEER8StrategyE3$_3Li0ELb0EE5__getB8ue170006Ev', symObjAddr: 0xFD18, symBinAddr: 0x100012C24, symSize: 0x14 }
  - { offsetInCU: 0x2B85C, offset: 0x2BBC9, size: 0x8, addend: 0x0, symName: '__ZNSt3__110__function6__funcIZN3trd8Backtest3runERKNS_6vectorINS2_3BarENS_9allocatorIS5_EEEER8StrategyE3$_3NS6_ISD_EEFvRKNS_7variantIJN6events11MarketEventENSG_11SignalEventENSG_10OrderEventENSG_9FillEventEEEEEEC2B8ue170006ERKSD_OSE_', symObjAddr: 0xFD2C, symBinAddr: 0x100012C38, symSize: 0x88 }
  - { offsetInCU: 0x2B8A3, offset: 0x2BC10, size: 0x8, addend: 0x0, symName: '__ZNSt3__110__function12__alloc_funcIZN3trd8Backtest3runERKNS_6vectorINS2_3BarENS_9allocatorIS5_EEEER8StrategyE3$_3NS6_ISD_EEFvRKNS_7variantIJN6events11MarketEventENSG_11SignalEventENSG_10OrderEventENSG_9FillEventEEEEEEC1B8ue170006ERKSD_OSE_', symObjAddr: 0xFDB4, symBinAddr: 0x100012CC0, symSize: 0x3C }
  - { offsetInCU: 0x2B8E8, offset: 0x2BC55, size: 0x8, addend: 0x0, symName: '__ZNSt3__110__function12__alloc_funcIZN3trd8Backtest3runERKNS_6vectorINS2_3BarENS_9allocatorIS5_EEEER8StrategyE3$_3NS6_ISD_EEFvRKNS_7variantIJN6events11MarketEventENSG_11SignalEventENSG_10OrderEventENSG_9FillEventEEEEEEC2B8ue170006ERKSD_OSE_', symObjAddr: 0xFDF0, symBinAddr: 0x100012CFC, symSize: 0x5C }
  - { offsetInCU: 0x2B92D, offset: 0x2BC9A, size: 0x8, addend: 0x0, symName: '__ZNSt3__117__compressed_pairIZN3trd8Backtest3runERKNS_6vectorINS1_3BarENS_9allocatorIS4_EEEER8StrategyE3$_3NS5_ISC_EEEC1B8ue170006IJRKSC_EJOSD_EEENS_21piecewise_construct_tENS_5tupleIJDpT_EEENSK_IJDpT0_EEE', symObjAddr: 0xFE78, symBinAddr: 0x100012D84, symSize: 0x3C }
  - { offsetInCU: 0x2B996, offset: 0x2BD03, size: 0x8, addend: 0x0, symName: '__ZNSt3__15tupleIJRKZN3trd8Backtest3runERKNS_6vectorINS1_3BarENS_9allocatorIS4_EEEER8StrategyE3$_3EEC1B8ue170006INS_4_AndELi0EEESE_', symObjAddr: 0xFEB4, symBinAddr: 0x100012DC0, symSize: 0x34 }
  - { offsetInCU: 0x2B9DE, offset: 0x2BD4B, size: 0x8, addend: 0x0, symName: '__ZNSt3__15tupleIJRKZN3trd8Backtest3runERKNS_6vectorINS1_3BarENS_9allocatorIS4_EEEER8StrategyE3$_3EEC2B8ue170006INS_4_AndELi0EEESE_', symObjAddr: 0xFEE8, symBinAddr: 0x100012DF4, symSize: 0x34 }
  - { offsetInCU: 0x2BA26, offset: 0x2BD93, size: 0x8, addend: 0x0, symName: '__ZNSt3__112__tuple_implINS_15__tuple_indicesIJLm0EEEEJRKZN3trd8Backtest3runERKNS_6vectorINS3_3BarENS_9allocatorIS6_EEEER8StrategyE3$_3EEC1B8ue170006IJLm0EEJSG_EJEJEJSG_EEENS1_IJXspT_EEEENS_13__tuple_typesIJDpT0_EEENS1_IJXspT1_EEEENSK_IJDpT2_EEEDpOT3_', symObjAddr: 0xFF1C, symBinAddr: 0x100012E28, symSize: 0x34 }
  - { offsetInCU: 0x2BABA, offset: 0x2BE27, size: 0x8, addend: 0x0, symName: '__ZNSt3__112__tuple_implINS_15__tuple_indicesIJLm0EEEEJRKZN3trd8Backtest3runERKNS_6vectorINS3_3BarENS_9allocatorIS6_EEEER8StrategyE3$_3EEC2B8ue170006IJLm0EEJSG_EJEJEJSG_EEENS1_IJXspT_EEEENS_13__tuple_typesIJDpT0_EEENS1_IJXspT1_EEEENSK_IJDpT2_EEEDpOT3_', symObjAddr: 0xFF50, symBinAddr: 0x100012E5C, symSize: 0x34 }
  - { offsetInCU: 0x2BB4E, offset: 0x2BEBB, size: 0x8, addend: 0x0, symName: '__ZNSt3__112__tuple_leafILm0ERKZN3trd8Backtest3runERKNS_6vectorINS1_3BarENS_9allocatorIS4_EEEER8StrategyE3$_3Lb0EEC2B8ue170006ISE_vEEOT_', symObjAddr: 0xFF84, symBinAddr: 0x100012E90, symSize: 0x20 }
  - { offsetInCU: 0x2BB90, offset: 0x2BEFD, size: 0x8, addend: 0x0, symName: '__ZNSt3__117__compressed_pairIZN3trd8Backtest3runERKNS_6vectorINS1_3BarENS_9allocatorIS4_EEEER8StrategyE3$_3NS5_ISC_EEEC2B8ue170006IJRKSC_EJOSD_EEENS_21piecewise_construct_tENS_5tupleIJDpT_EEENSK_IJDpT0_EEE', symObjAddr: 0xFFA4, symBinAddr: 0x100012EB0, symSize: 0x54 }
  - { offsetInCU: 0x2BBF9, offset: 0x2BF66, size: 0x8, addend: 0x0, symName: '__ZNSt3__122__compressed_pair_elemIZN3trd8Backtest3runERKNS_6vectorINS1_3BarENS_9allocatorIS4_EEEER8StrategyE3$_3Li0ELb0EEC2B8ue170006IJRKSC_EJLm0EEEENS_21piecewise_construct_tENS_5tupleIJDpT_EEENS_15__tuple_indicesIJXspT0_EEEE', symObjAddr: 0xFFF8, symBinAddr: 0x100012F04, symSize: 0x44 }
  - { offsetInCU: 0x2BC5B, offset: 0x2BFC8, size: 0x8, addend: 0x0, symName: '__ZNSt3__112__tuple_leafILm0ERKZN3trd8Backtest3runERKNS_6vectorINS1_3BarENS_9allocatorIS4_EEEER8StrategyE3$_3Lb0EE3getB8ue170006Ev', symObjAddr: 0x10060, symBinAddr: 0x100012F6C, symSize: 0x18 }
  - { offsetInCU: 0x2BC80, offset: 0x2BFED, size: 0x8, addend: 0x0, symName: '__ZNSt3__117__compressed_pairIPNS_10__function6__funcIZN3trd8Backtest3runERKNS_6vectorINS3_3BarENS_9allocatorIS6_EEEER8StrategyE3$_3NS7_ISE_EEFvRKNS_7variantIJN6events11MarketEventENSH_11SignalEventENSH_10OrderEventENSH_9FillEventEEEEEEENS_22__allocator_destructorINS7_ISQ_EEEEE5firstB8ue170006Ev', symObjAddr: 0x10078, symBinAddr: 0x100012F84, symSize: 0x24 }
  - { offsetInCU: 0x2BCA5, offset: 0x2C012, size: 0x8, addend: 0x0, symName: '__ZNSt3__122__compressed_pair_elemIPNS_10__function6__funcIZN3trd8Backtest3runERKNS_6vectorINS3_3BarENS_9allocatorIS6_EEEER8StrategyE3$_3NS7_ISE_EEFvRKNS_7variantIJN6events11MarketEventENSH_11SignalEventENSH_10OrderEventENSH_9FillEventEEEEEEELi0ELb0EE5__getB8ue170006Ev', symObjAddr: 0x1009C, symBinAddr: 0x100012FA8, symSize: 0x14 }
  - { offsetInCU: 0x2BCCA, offset: 0x2C037, size: 0x8, addend: 0x0, symName: '__ZNSt3__110unique_ptrINS_10__function6__funcIZN3trd8Backtest3runERKNS_6vectorINS3_3BarENS_9allocatorIS6_EEEER8StrategyE3$_3NS7_ISE_EEFvRKNS_7variantIJN6events11MarketEventENSH_11SignalEventENSH_10OrderEventENSH_9FillEventEEEEEEENS_22__allocator_destructorINS7_ISQ_EEEEED2B8ue170006Ev', symObjAddr: 0x100B0, symBinAddr: 0x100012FBC, symSize: 0x30 }
  - { offsetInCU: 0x2BCF3, offset: 0x2C060, size: 0x8, addend: 0x0, symName: '__ZNSt3__110unique_ptrINS_10__function6__funcIZN3trd8Backtest3runERKNS_6vectorINS3_3BarENS_9allocatorIS6_EEEER8StrategyE3$_3NS7_ISE_EEFvRKNS_7variantIJN6events11MarketEventENSH_11SignalEventENSH_10OrderEventENSH_9FillEventEEEEEEENS_22__allocator_destructorINS7_ISQ_EEEEE5resetB8ue170006EPSQ_', symObjAddr: 0x100E0, symBinAddr: 0x100012FEC, symSize: 0x78 }
  - { offsetInCU: 0x2BD36, offset: 0x2C0A3, size: 0x8, addend: 0x0, symName: '__ZNSt3__117__compressed_pairIPNS_10__function6__funcIZN3trd8Backtest3runERKNS_6vectorINS3_3BarENS_9allocatorIS6_EEEER8StrategyE3$_3NS7_ISE_EEFvRKNS_7variantIJN6events11MarketEventENSH_11SignalEventENSH_10OrderEventENSH_9FillEventEEEEEEENS_22__allocator_destructorINS7_ISQ_EEEEE6secondB8ue170006Ev', symObjAddr: 0x10158, symBinAddr: 0x100013064, symSize: 0x28 }
  - { offsetInCU: 0x2BD5B, offset: 0x2C0C8, size: 0x8, addend: 0x0, symName: '__ZNSt3__122__allocator_destructorINS_9allocatorINS_10__function6__funcIZN3trd8Backtest3runERKNS_6vectorINS4_3BarENS1_IS7_EEEER8StrategyE3$_3NS1_ISE_EEFvRKNS_7variantIJN6events11MarketEventENSH_11SignalEventENSH_10OrderEventENSH_9FillEventEEEEEEEEEEclB8ue170006EPSQ_', symObjAddr: 0x10180, symBinAddr: 0x10001308C, symSize: 0x34 }
  - { offsetInCU: 0x2BD8E, offset: 0x2C0FB, size: 0x8, addend: 0x0, symName: '__ZNSt3__122__compressed_pair_elemINS_22__allocator_destructorINS_9allocatorINS_10__function6__funcIZN3trd8Backtest3runERKNS_6vectorINS5_3BarENS2_IS8_EEEER8StrategyE3$_3NS2_ISF_EEFvRKNS_7variantIJN6events11MarketEventENSI_11SignalEventENSI_10OrderEventENSI_9FillEventEEEEEEEEEEELi1ELb0EE5__getB8ue170006Ev', symObjAddr: 0x101B4, symBinAddr: 0x1000130C0, symSize: 0x14 }
  - { offsetInCU: 0x2BDB3, offset: 0x2C120, size: 0x8, addend: 0x0, symName: '__ZNSt3__116allocator_traitsINS_9allocatorINS_10__function6__funcIZN3trd8Backtest3runERKNS_6vectorINS4_3BarENS1_IS7_EEEER8StrategyE3$_3NS1_ISE_EEFvRKNS_7variantIJN6events11MarketEventENSH_11SignalEventENSH_10OrderEventENSH_9FillEventEEEEEEEEEE10deallocateB8ue170006ERSR_PSQ_m', symObjAddr: 0x101C8, symBinAddr: 0x1000130D4, symSize: 0x34 }
  - { offsetInCU: 0x2BDF5, offset: 0x2C162, size: 0x8, addend: 0x0, symName: '__ZNSt3__19allocatorINS_10__function6__funcIZN3trd8Backtest3runERKNS_6vectorINS3_3BarENS0_IS6_EEEER8StrategyE3$_3NS0_ISD_EEFvRKNS_7variantIJN6events11MarketEventENSG_11SignalEventENSG_10OrderEventENSG_9FillEventEEEEEEEE10deallocateB8ue170006EPSP_m', symObjAddr: 0x101FC, symBinAddr: 0x100013108, symSize: 0x40 }
  - { offsetInCU: 0x2BE36, offset: 0x2C1A3, size: 0x8, addend: 0x0, symName: '__ZNSt3__110__function6__funcIZN3trd8Backtest3runERKNS_6vectorINS2_3BarENS_9allocatorIS5_EEEER8StrategyE3$_3NS6_ISD_EEFvRKNS_7variantIJN6events11MarketEventENSG_11SignalEventENSG_10OrderEventENSG_9FillEventEEEEEEC1B8ue170006ERKSD_RKSE_', symObjAddr: 0x1023C, symBinAddr: 0x100013148, symSize: 0x3C }
  - { offsetInCU: 0x2BE7D, offset: 0x2C1EA, size: 0x8, addend: 0x0, symName: '__ZNSt3__110__function6__funcIZN3trd8Backtest3runERKNS_6vectorINS2_3BarENS_9allocatorIS5_EEEER8StrategyE3$_3NS6_ISD_EEFvRKNS_7variantIJN6events11MarketEventENSG_11SignalEventENSG_10OrderEventENSG_9FillEventEEEEEEC2B8ue170006ERKSD_RKSE_', symObjAddr: 0x10278, symBinAddr: 0x100013184, symSize: 0x88 }
  - { offsetInCU: 0x2BEC4, offset: 0x2C231, size: 0x8, addend: 0x0, symName: '__ZNSt3__110__function12__alloc_funcIZN3trd8Backtest3runERKNS_6vectorINS2_3BarENS_9allocatorIS5_EEEER8StrategyE3$_3NS6_ISD_EEFvRKNS_7variantIJN6events11MarketEventENSG_11SignalEventENSG_10OrderEventENSG_9FillEventEEEEEEC1B8ue170006ERKSD_RKSE_', symObjAddr: 0x10300, symBinAddr: 0x10001320C, symSize: 0x3C }
  - { offsetInCU: 0x2BF09, offset: 0x2C276, size: 0x8, addend: 0x0, symName: '__ZNSt3__110__function12__alloc_funcIZN3trd8Backtest3runERKNS_6vectorINS2_3BarENS_9allocatorIS5_EEEER8StrategyE3$_3NS6_ISD_EEFvRKNS_7variantIJN6events11MarketEventENSG_11SignalEventENSG_10OrderEventENSG_9FillEventEEEEEEC2B8ue170006ERKSD_RKSE_', symObjAddr: 0x1033C, symBinAddr: 0x100013248, symSize: 0x5C }
  - { offsetInCU: 0x2BF4E, offset: 0x2C2BB, size: 0x8, addend: 0x0, symName: '__ZNSt3__117__compressed_pairIZN3trd8Backtest3runERKNS_6vectorINS1_3BarENS_9allocatorIS4_EEEER8StrategyE3$_3NS5_ISC_EEEC1B8ue170006IJRKSC_EJRKSD_EEENS_21piecewise_construct_tENS_5tupleIJDpT_EEENSL_IJDpT0_EEE', symObjAddr: 0x103C4, symBinAddr: 0x1000132D0, symSize: 0x3C }
  - { offsetInCU: 0x2BFB7, offset: 0x2C324, size: 0x8, addend: 0x0, symName: '__ZNSt3__15tupleIJRKNS_9allocatorIZN3trd8Backtest3runERKNS_6vectorINS2_3BarENS1_IS5_EEEER8StrategyE3$_3EEEEC1B8ue170006INS_4_AndELi0EEESF_', symObjAddr: 0x10400, symBinAddr: 0x10001330C, symSize: 0x34 }
  - { offsetInCU: 0x2BFFF, offset: 0x2C36C, size: 0x8, addend: 0x0, symName: '__ZNSt3__15tupleIJRKNS_9allocatorIZN3trd8Backtest3runERKNS_6vectorINS2_3BarENS1_IS5_EEEER8StrategyE3$_3EEEEC2B8ue170006INS_4_AndELi0EEESF_', symObjAddr: 0x10434, symBinAddr: 0x100013340, symSize: 0x34 }
  - { offsetInCU: 0x2C047, offset: 0x2C3B4, size: 0x8, addend: 0x0, symName: '__ZNSt3__112__tuple_implINS_15__tuple_indicesIJLm0EEEEJRKNS_9allocatorIZN3trd8Backtest3runERKNS_6vectorINS4_3BarENS3_IS7_EEEER8StrategyE3$_3EEEEC1B8ue170006IJLm0EEJSH_EJEJEJSH_EEENS1_IJXspT_EEEENS_13__tuple_typesIJDpT0_EEENS1_IJXspT1_EEEENSL_IJDpT2_EEEDpOT3_', symObjAddr: 0x10468, symBinAddr: 0x100013374, symSize: 0x34 }
  - { offsetInCU: 0x2C0DB, offset: 0x2C448, size: 0x8, addend: 0x0, symName: '__ZNSt3__112__tuple_implINS_15__tuple_indicesIJLm0EEEEJRKNS_9allocatorIZN3trd8Backtest3runERKNS_6vectorINS4_3BarENS3_IS7_EEEER8StrategyE3$_3EEEEC2B8ue170006IJLm0EEJSH_EJEJEJSH_EEENS1_IJXspT_EEEENS_13__tuple_typesIJDpT0_EEENS1_IJXspT1_EEEENSL_IJDpT2_EEEDpOT3_', symObjAddr: 0x1049C, symBinAddr: 0x1000133A8, symSize: 0x34 }
  - { offsetInCU: 0x2C16F, offset: 0x2C4DC, size: 0x8, addend: 0x0, symName: '__ZNSt3__112__tuple_leafILm0ERKNS_9allocatorIZN3trd8Backtest3runERKNS_6vectorINS2_3BarENS1_IS5_EEEER8StrategyE3$_3EELb0EEC2B8ue170006ISF_vEEOT_', symObjAddr: 0x104D0, symBinAddr: 0x1000133DC, symSize: 0x20 }
  - { offsetInCU: 0x2C1B1, offset: 0x2C51E, size: 0x8, addend: 0x0, symName: '__ZNSt3__117__compressed_pairIZN3trd8Backtest3runERKNS_6vectorINS1_3BarENS_9allocatorIS4_EEEER8StrategyE3$_3NS5_ISC_EEEC2B8ue170006IJRKSC_EJRKSD_EEENS_21piecewise_construct_tENS_5tupleIJDpT_EEENSL_IJDpT0_EEE', symObjAddr: 0x104F0, symBinAddr: 0x1000133FC, symSize: 0x54 }
  - { offsetInCU: 0x2C21A, offset: 0x2C587, size: 0x8, addend: 0x0, symName: '__ZNSt3__122__compressed_pair_elemINS_9allocatorIZN3trd8Backtest3runERKNS_6vectorINS2_3BarENS1_IS5_EEEER8StrategyE3$_3EELi1ELb1EEC2B8ue170006IJRKSD_EJLm0EEEENS_21piecewise_construct_tENS_5tupleIJDpT_EEENS_15__tuple_indicesIJXspT0_EEEE', symObjAddr: 0x10544, symBinAddr: 0x100013450, symSize: 0x38 }
  - { offsetInCU: 0x2C27C, offset: 0x2C5E9, size: 0x8, addend: 0x0, symName: '__ZNSt3__112__tuple_leafILm0ERKNS_9allocatorIZN3trd8Backtest3runERKNS_6vectorINS2_3BarENS1_IS5_EEEER8StrategyE3$_3EELb0EE3getB8ue170006Ev', symObjAddr: 0x105A0, symBinAddr: 0x1000134AC, symSize: 0x18 }
  - { offsetInCU: 0x2C2A1, offset: 0x2C60E, size: 0x8, addend: 0x0, symName: '__ZNSt3__110__function12__alloc_funcIZN3trd8Backtest3runERKNS_6vectorINS2_3BarENS_9allocatorIS5_EEEER8StrategyE3$_3NS6_ISD_EEFvRKNS_7variantIJN6events11MarketEventENSG_11SignalEventENSG_10OrderEventENSG_9FillEventEEEEEE7destroyB8ue170006Ev', symObjAddr: 0x105B8, symBinAddr: 0x1000134C4, symSize: 0x10 }
  - { offsetInCU: 0x2C2C6, offset: 0x2C633, size: 0x8, addend: 0x0, symName: '__ZNSt3__110__function12__alloc_funcIZN3trd8Backtest3runERKNS_6vectorINS2_3BarENS_9allocatorIS5_EEEER8StrategyE3$_3NS6_ISD_EEFvRKNS_7variantIJN6events11MarketEventENSG_11SignalEventENSG_10OrderEventENSG_9FillEventEEEEEEclB8ue170006ESN_', symObjAddr: 0x105C8, symBinAddr: 0x1000134D4, symSize: 0x30 }
  - { offsetInCU: 0x2C2F9, offset: 0x2C666, size: 0x8, addend: 0x0, symName: '__ZNSt3__128__invoke_void_return_wrapperIvLb1EE6__callB8ue170006IJRZN3trd8Backtest3runERKNS_6vectorINS3_3BarENS_9allocatorIS6_EEEER8StrategyE3$_3RKNS_7variantIJN6events11MarketEventENSH_11SignalEventENSH_10OrderEventENSH_9FillEventEEEEEEEvDpOT_', symObjAddr: 0x105F8, symBinAddr: 0x100013504, symSize: 0x2C }
  - { offsetInCU: 0x2C33C, offset: 0x2C6A9, size: 0x8, addend: 0x0, symName: '__ZNSt3__117__compressed_pairIZN3trd8Backtest3runERKNS_6vectorINS1_3BarENS_9allocatorIS4_EEEER8StrategyE3$_3NS5_ISC_EEE5firstB8ue170006Ev', symObjAddr: 0x10624, symBinAddr: 0x100013530, symSize: 0x24 }
  - { offsetInCU: 0x2C366, offset: 0x2C6D3, size: 0x8, addend: 0x0, symName: '__ZZN3trd8Backtest3runERKNSt3__16vectorINS_3BarENS1_9allocatorIS3_EEEER8StrategyENK3$_3clERKNS1_7variantIJN6events11MarketEventENSD_11SignalEventENSD_10OrderEventENSD_9FillEventEEEE', symObjAddr: 0x10674, symBinAddr: 0x100013580, symSize: 0x30 }
  - { offsetInCU: 0x2C39D, offset: 0x2C70A, size: 0x8, addend: 0x0, symName: __ZN16PortfolioHandler2onERKNSt3__17variantIJN6events11MarketEventENS2_11SignalEventENS2_10OrderEventENS2_9FillEventEEEE, symObjAddr: 0x106A4, symBinAddr: 0x1000135B0, symSize: 0x1A0 }
  - { offsetInCU: 0x2C3E5, offset: 0x2C752, size: 0x8, addend: 0x0, symName: __ZN9Portfolio3buyEidd, symObjAddr: 0x10868, symBinAddr: 0x100013774, symSize: 0x58 }
  - { offsetInCU: 0x2C434, offset: 0x2C7A1, size: 0x8, addend: 0x0, symName: __ZN9Portfolio4sellEidd, symObjAddr: 0x108C0, symBinAddr: 0x1000137CC, symSize: 0x58 }
  - { offsetInCU: 0x2C48E, offset: 0x2C7FB, size: 0x8, addend: 0x0, symName: __ZNSt3__116__variant_detail8__access9__variant9__get_altB8ue170006ILm3ERKNS_7variantIJN6events11MarketEventENS5_11SignalEventENS5_10OrderEventENS5_9FillEventEEEEEEODaOT0_, symObjAddr: 0x109DC, symBinAddr: 0x1000138E8, symSize: 0x24 }
  - { offsetInCU: 0x2C4C5, offset: 0x2C832, size: 0x8, addend: 0x0, symName: __ZNSt3__116__variant_detail8__access6__base9__get_altB8ue170006ILm3ERKNS0_6__implIJN6events11MarketEventENS5_11SignalEventENS5_10OrderEventENS5_9FillEventEEEEEEODaOT0_, symObjAddr: 0x10A00, symBinAddr: 0x10001390C, symSize: 0x24 }
  - { offsetInCU: 0x2C4FC, offset: 0x2C869, size: 0x8, addend: 0x0, symName: __ZNSt3__116__variant_detail8__access7__union9__get_altB8ue170006IRKNS0_7__unionILNS0_6_TraitE0ELm0EJN6events11MarketEventENS6_11SignalEventENS6_10OrderEventENS6_9FillEventEEEELm3EEEODaOT_NS_16in_place_index_tIXT0_EEE, symObjAddr: 0x10A24, symBinAddr: 0x100013930, symSize: 0x24 }
  - { offsetInCU: 0x2C53F, offset: 0x2C8AC, size: 0x8, addend: 0x0, symName: __ZNSt3__116__variant_detail8__access7__union9__get_altB8ue170006IRKNS0_7__unionILNS0_6_TraitE0ELm1EJN6events11SignalEventENS6_10OrderEventENS6_9FillEventEEEELm2EEEODaOT_NS_16in_place_index_tIXT0_EEE, symObjAddr: 0x10A48, symBinAddr: 0x100013954, symSize: 0x24 }
  - { offsetInCU: 0x2C582, offset: 0x2C8EF, size: 0x8, addend: 0x0, symName: __ZNSt3__116__variant_detail8__access7__union9__get_altB8ue170006IRKNS0_7__unionILNS0_6_TraitE0ELm2EJN6events10OrderEventENS6_9FillEventEEEELm1EEEODaOT_NS_16in_place_index_tIXT0_EEE, symObjAddr: 0x10A6C, symBinAddr: 0x100013978, symSize: 0x24 }
  - { offsetInCU: 0x2C5C5, offset: 0x2C932, size: 0x8, addend: 0x0, symName: __ZNSt3__116__variant_detail8__access7__union9__get_altB8ue170006IRKNS0_7__unionILNS0_6_TraitE0ELm3EJN6events9FillEventEEEEEEODaOT_NS_16in_place_index_tILm0EEE, symObjAddr: 0x10A90, symBinAddr: 0x10001399C, symSize: 0x14 }
  - { offsetInCU: 0x2C5FE, offset: 0x2C96B, size: 0x8, addend: 0x0, symName: '__ZNSt3__122__compressed_pair_elemIZN3trd8Backtest3runERKNS_6vectorINS1_3BarENS_9allocatorIS4_EEEER8StrategyE3$_3Li0ELb0EE5__getB8ue170006Ev', symObjAddr: 0x10AA4, symBinAddr: 0x1000139B0, symSize: 0x14 }
  - { offsetInCU: 0x2C623, offset: 0x2C990, size: 0x8, addend: 0x0, symName: '__ZNSt3__18functionIFvRKNS_7variantIJN6events11MarketEventENS2_11SignalEventENS2_10OrderEventENS2_9FillEventEEEEEEC2IZN3trd8Backtest3runERKNS_6vectorINSD_3BarENS_9allocatorISG_EEEER8StrategyE3$_4vEET_', symObjAddr: 0x10AB8, symBinAddr: 0x1000139C4, symSize: 0x38 }
  - { offsetInCU: 0x2C667, offset: 0x2C9D4, size: 0x8, addend: 0x0, symName: '__ZNSt3__110__function12__value_funcIFvRKNS_7variantIJN6events11MarketEventENS3_11SignalEventENS3_10OrderEventENS3_9FillEventEEEEEEC1B8ue170006IZN3trd8Backtest3runERKNS_6vectorINSE_3BarENS_9allocatorISH_EEEER8StrategyE3$_4vEEOT_', symObjAddr: 0x10AF0, symBinAddr: 0x1000139FC, symSize: 0x50 }
  - { offsetInCU: 0x2C6A9, offset: 0x2CA16, size: 0x8, addend: 0x0, symName: '__ZNSt3__19allocatorIZN3trd8Backtest3runERKNS_6vectorINS1_3BarENS0_IS4_EEEER8StrategyE3$_4EC1B8ue170006Ev', symObjAddr: 0x10B40, symBinAddr: 0x100013A4C, symSize: 0x2C }
  - { offsetInCU: 0x2C6D2, offset: 0x2CA3F, size: 0x8, addend: 0x0, symName: '__ZNSt3__110__function12__value_funcIFvRKNS_7variantIJN6events11MarketEventENS3_11SignalEventENS3_10OrderEventENS3_9FillEventEEEEEEC1B8ue170006IZN3trd8Backtest3runERKNS_6vectorINSE_3BarENS_9allocatorISH_EEEER8StrategyE3$_4NSI_ISP_EEEEOT_RKT0_', symObjAddr: 0x10B6C, symBinAddr: 0x100013A78, symSize: 0x3C }
  - { offsetInCU: 0x2C72B, offset: 0x2CA98, size: 0x8, addend: 0x0, symName: '__ZNSt3__19allocatorIZN3trd8Backtest3runERKNS_6vectorINS1_3BarENS0_IS4_EEEER8StrategyE3$_4EC2B8ue170006Ev', symObjAddr: 0x10BA8, symBinAddr: 0x100013AB4, symSize: 0x2C }
  - { offsetInCU: 0x2C754, offset: 0x2CAC1, size: 0x8, addend: 0x0, symName: '__ZNSt3__116__non_trivial_ifILb1ENS_9allocatorIZN3trd8Backtest3runERKNS_6vectorINS2_3BarENS1_IS5_EEEER8StrategyE3$_4EEEC2B8ue170006Ev', symObjAddr: 0x10BD4, symBinAddr: 0x100013AE0, symSize: 0x14 }
  - { offsetInCU: 0x2C77D, offset: 0x2CAEA, size: 0x8, addend: 0x0, symName: '__ZNSt3__110__function12__value_funcIFvRKNS_7variantIJN6events11MarketEventENS3_11SignalEventENS3_10OrderEventENS3_9FillEventEEEEEEC2B8ue170006IZN3trd8Backtest3runERKNS_6vectorINSE_3BarENS_9allocatorISH_EEEER8StrategyE3$_4NSI_ISP_EEEEOT_RKT0_', symObjAddr: 0x10BE8, symBinAddr: 0x100013AF4, symSize: 0x94 }
  - { offsetInCU: 0x2C825, offset: 0x2CB92, size: 0x8, addend: 0x0, symName: '__ZNSt3__19allocatorINS_10__function6__funcIZN3trd8Backtest3runERKNS_6vectorINS3_3BarENS0_IS6_EEEER8StrategyE3$_4NS0_ISD_EEFvRKNS_7variantIJN6events11MarketEventENSG_11SignalEventENSG_10OrderEventENSG_9FillEventEEEEEEEEC1B8ue170006ISD_EERKNS0_IT_EE', symObjAddr: 0x10C94, symBinAddr: 0x100013BA0, symSize: 0x34 }
  - { offsetInCU: 0x2C867, offset: 0x2CBD4, size: 0x8, addend: 0x0, symName: '__ZNSt3__19allocatorIZN3trd8Backtest3runERKNS_6vectorINS1_3BarENS0_IS4_EEEER8StrategyE3$_4EC1B8ue170006INS_10__function6__funcISB_SC_FvRKNS_7variantIJN6events11MarketEventENSH_11SignalEventENSH_10OrderEventENSH_9FillEventEEEEEEEEERKNS0_IT_EE', symObjAddr: 0x10CC8, symBinAddr: 0x100013BD4, symSize: 0x34 }
  - { offsetInCU: 0x2C8A3, offset: 0x2CC10, size: 0x8, addend: 0x0, symName: '__ZNSt3__110__function6__funcIZN3trd8Backtest3runERKNS_6vectorINS2_3BarENS_9allocatorIS5_EEEER8StrategyE3$_4NS6_ISD_EEFvRKNS_7variantIJN6events11MarketEventENSG_11SignalEventENSG_10OrderEventENSG_9FillEventEEEEEEC1B8ue170006EOSD_OSE_', symObjAddr: 0x10CFC, symBinAddr: 0x100013C08, symSize: 0x3C }
  - { offsetInCU: 0x2C8EA, offset: 0x2CC57, size: 0x8, addend: 0x0, symName: '__ZNSt3__19allocatorINS_10__function6__funcIZN3trd8Backtest3runERKNS_6vectorINS3_3BarENS0_IS6_EEEER8StrategyE3$_4NS0_ISD_EEFvRKNS_7variantIJN6events11MarketEventENSG_11SignalEventENSG_10OrderEventENSG_9FillEventEEEEEEEEC2B8ue170006ISD_EERKNS0_IT_EE', symObjAddr: 0x10D38, symBinAddr: 0x100013C44, symSize: 0x30 }
  - { offsetInCU: 0x2C926, offset: 0x2CC93, size: 0x8, addend: 0x0, symName: '__ZNSt3__116__non_trivial_ifILb1ENS_9allocatorINS_10__function6__funcIZN3trd8Backtest3runERKNS_6vectorINS4_3BarENS1_IS7_EEEER8StrategyE3$_4NS1_ISE_EEFvRKNS_7variantIJN6events11MarketEventENSH_11SignalEventENSH_10OrderEventENSH_9FillEventEEEEEEEEEEC2B8ue170006Ev', symObjAddr: 0x10D68, symBinAddr: 0x100013C74, symSize: 0x14 }
  - { offsetInCU: 0x2C94F, offset: 0x2CCBC, size: 0x8, addend: 0x0, symName: '__ZNSt3__19allocatorIZN3trd8Backtest3runERKNS_6vectorINS1_3BarENS0_IS4_EEEER8StrategyE3$_4EC2B8ue170006INS_10__function6__funcISB_SC_FvRKNS_7variantIJN6events11MarketEventENSH_11SignalEventENSH_10OrderEventENSH_9FillEventEEEEEEEEERKNS0_IT_EE', symObjAddr: 0x10D7C, symBinAddr: 0x100013C88, symSize: 0x30 }
  - { offsetInCU: 0x2C98B, offset: 0x2CCF8, size: 0x8, addend: 0x0, symName: '__ZNSt3__110__function6__funcIZN3trd8Backtest3runERKNS_6vectorINS2_3BarENS_9allocatorIS5_EEEER8StrategyE3$_4NS6_ISD_EEFvRKNS_7variantIJN6events11MarketEventENSG_11SignalEventENSG_10OrderEventENSG_9FillEventEEEEEEC2B8ue170006EOSD_OSE_', symObjAddr: 0x10DAC, symBinAddr: 0x100013CB8, symSize: 0x88 }
  - { offsetInCU: 0x2C9D2, offset: 0x2CD3F, size: 0x8, addend: 0x0, symName: '__ZNSt3__110__function12__alloc_funcIZN3trd8Backtest3runERKNS_6vectorINS2_3BarENS_9allocatorIS5_EEEER8StrategyE3$_4NS6_ISD_EEFvRKNS_7variantIJN6events11MarketEventENSG_11SignalEventENSG_10OrderEventENSG_9FillEventEEEEEEC1B8ue170006EOSD_OSE_', symObjAddr: 0x10E34, symBinAddr: 0x100013D40, symSize: 0x3C }
  - { offsetInCU: 0x2CA17, offset: 0x2CD84, size: 0x8, addend: 0x0, symName: '__ZNSt3__110__function6__funcIZN3trd8Backtest3runERKNS_6vectorINS2_3BarENS_9allocatorIS5_EEEER8StrategyE3$_4NS6_ISD_EEFvRKNS_7variantIJN6events11MarketEventENSG_11SignalEventENSG_10OrderEventENSG_9FillEventEEEEEED1Ev', symObjAddr: 0x10E70, symBinAddr: 0x100013D7C, symSize: 0x2C }
  - { offsetInCU: 0x2CA43, offset: 0x2CDB0, size: 0x8, addend: 0x0, symName: '__ZNSt3__110__function6__funcIZN3trd8Backtest3runERKNS_6vectorINS2_3BarENS_9allocatorIS5_EEEER8StrategyE3$_4NS6_ISD_EEFvRKNS_7variantIJN6events11MarketEventENSG_11SignalEventENSG_10OrderEventENSG_9FillEventEEEEEED0Ev', symObjAddr: 0x10E9C, symBinAddr: 0x100013DA8, symSize: 0x30 }
  - { offsetInCU: 0x2CA6F, offset: 0x2CDDC, size: 0x8, addend: 0x0, symName: '__ZNKSt3__110__function6__funcIZN3trd8Backtest3runERKNS_6vectorINS2_3BarENS_9allocatorIS5_EEEER8StrategyE3$_4NS6_ISD_EEFvRKNS_7variantIJN6events11MarketEventENSG_11SignalEventENSG_10OrderEventENSG_9FillEventEEEEEE7__cloneEv', symObjAddr: 0x10ECC, symBinAddr: 0x100013DD8, symSize: 0xFC }
  - { offsetInCU: 0x2CAC0, offset: 0x2CE2D, size: 0x8, addend: 0x0, symName: '__ZNKSt3__110__function6__funcIZN3trd8Backtest3runERKNS_6vectorINS2_3BarENS_9allocatorIS5_EEEER8StrategyE3$_4NS6_ISD_EEFvRKNS_7variantIJN6events11MarketEventENSG_11SignalEventENSG_10OrderEventENSG_9FillEventEEEEEE7__cloneEPNS0_6__baseISO_EE', symObjAddr: 0x10FC8, symBinAddr: 0x100013ED4, symSize: 0x58 }
  - { offsetInCU: 0x2CAF6, offset: 0x2CE63, size: 0x8, addend: 0x0, symName: '__ZNSt3__110__function6__funcIZN3trd8Backtest3runERKNS_6vectorINS2_3BarENS_9allocatorIS5_EEEER8StrategyE3$_4NS6_ISD_EEFvRKNS_7variantIJN6events11MarketEventENSG_11SignalEventENSG_10OrderEventENSG_9FillEventEEEEEE7destroyEv', symObjAddr: 0x11020, symBinAddr: 0x100013F2C, symSize: 0x28 }
  - { offsetInCU: 0x2CB1D, offset: 0x2CE8A, size: 0x8, addend: 0x0, symName: '__ZNSt3__110__function6__funcIZN3trd8Backtest3runERKNS_6vectorINS2_3BarENS_9allocatorIS5_EEEER8StrategyE3$_4NS6_ISD_EEFvRKNS_7variantIJN6events11MarketEventENSG_11SignalEventENSG_10OrderEventENSG_9FillEventEEEEEE18destroy_deallocateEv', symObjAddr: 0x11048, symBinAddr: 0x100013F54, symSize: 0x58 }
  - { offsetInCU: 0x2CB5F, offset: 0x2CECC, size: 0x8, addend: 0x0, symName: '__ZNSt3__110__function6__funcIZN3trd8Backtest3runERKNS_6vectorINS2_3BarENS_9allocatorIS5_EEEER8StrategyE3$_4NS6_ISD_EEFvRKNS_7variantIJN6events11MarketEventENSG_11SignalEventENSG_10OrderEventENSG_9FillEventEEEEEEclESN_', symObjAddr: 0x110A0, symBinAddr: 0x100013FAC, symSize: 0x30 }
  - { offsetInCU: 0x2CB95, offset: 0x2CF02, size: 0x8, addend: 0x0, symName: '__ZNKSt3__110__function6__funcIZN3trd8Backtest3runERKNS_6vectorINS2_3BarENS_9allocatorIS5_EEEER8StrategyE3$_4NS6_ISD_EEFvRKNS_7variantIJN6events11MarketEventENSG_11SignalEventENSG_10OrderEventENSG_9FillEventEEEEEE6targetERKSt9type_info', symObjAddr: 0x110D0, symBinAddr: 0x100013FDC, symSize: 0x60 }
  - { offsetInCU: 0x2CBCB, offset: 0x2CF38, size: 0x8, addend: 0x0, symName: '__ZNKSt3__110__function6__funcIZN3trd8Backtest3runERKNS_6vectorINS2_3BarENS_9allocatorIS5_EEEER8StrategyE3$_4NS6_ISD_EEFvRKNS_7variantIJN6events11MarketEventENSG_11SignalEventENSG_10OrderEventENSG_9FillEventEEEEEE11target_typeEv', symObjAddr: 0x11130, symBinAddr: 0x10001403C, symSize: 0x18 }
  - { offsetInCU: 0x2CBF2, offset: 0x2CF5F, size: 0x8, addend: 0x0, symName: '__ZNSt3__110__function12__alloc_funcIZN3trd8Backtest3runERKNS_6vectorINS2_3BarENS_9allocatorIS5_EEEER8StrategyE3$_4NS6_ISD_EEFvRKNS_7variantIJN6events11MarketEventENSG_11SignalEventENSG_10OrderEventENSG_9FillEventEEEEEEC2B8ue170006EOSD_OSE_', symObjAddr: 0x11148, symBinAddr: 0x100014054, symSize: 0x5C }
  - { offsetInCU: 0x2CC37, offset: 0x2CFA4, size: 0x8, addend: 0x0, symName: '__ZNSt3__117__compressed_pairIZN3trd8Backtest3runERKNS_6vectorINS1_3BarENS_9allocatorIS4_EEEER8StrategyE3$_4NS5_ISC_EEEC1B8ue170006IJOSC_EJOSD_EEENS_21piecewise_construct_tENS_5tupleIJDpT_EEENSJ_IJDpT0_EEE', symObjAddr: 0x111FC, symBinAddr: 0x100014108, symSize: 0x3C }
  - { offsetInCU: 0x2CCA0, offset: 0x2D00D, size: 0x8, addend: 0x0, symName: '__ZNSt3__15tupleIJOZN3trd8Backtest3runERKNS_6vectorINS1_3BarENS_9allocatorIS4_EEEER8StrategyE3$_4EEC1B8ue170006IJSC_ELi0EEEDpOT_', symObjAddr: 0x11238, symBinAddr: 0x100014144, symSize: 0x34 }
  - { offsetInCU: 0x2CCE9, offset: 0x2D056, size: 0x8, addend: 0x0, symName: '__ZNSt3__15tupleIJOZN3trd8Backtest3runERKNS_6vectorINS1_3BarENS_9allocatorIS4_EEEER8StrategyE3$_4EEC2B8ue170006IJSC_ELi0EEEDpOT_', symObjAddr: 0x1126C, symBinAddr: 0x100014178, symSize: 0x34 }
  - { offsetInCU: 0x2CD32, offset: 0x2D09F, size: 0x8, addend: 0x0, symName: '__ZNSt3__112__tuple_implINS_15__tuple_indicesIJLm0EEEEJOZN3trd8Backtest3runERKNS_6vectorINS3_3BarENS_9allocatorIS6_EEEER8StrategyE3$_4EEC1B8ue170006IJLm0EEJSF_EJEJEJSE_EEENS1_IJXspT_EEEENS_13__tuple_typesIJDpT0_EEENS1_IJXspT1_EEEENSJ_IJDpT2_EEEDpOT3_', symObjAddr: 0x112A0, symBinAddr: 0x1000141AC, symSize: 0x34 }
  - { offsetInCU: 0x2CDC6, offset: 0x2D133, size: 0x8, addend: 0x0, symName: '__ZNSt3__112__tuple_implINS_15__tuple_indicesIJLm0EEEEJOZN3trd8Backtest3runERKNS_6vectorINS3_3BarENS_9allocatorIS6_EEEER8StrategyE3$_4EEC2B8ue170006IJLm0EEJSF_EJEJEJSE_EEENS1_IJXspT_EEEENS_13__tuple_typesIJDpT0_EEENS1_IJXspT1_EEEENSJ_IJDpT2_EEEDpOT3_', symObjAddr: 0x112D4, symBinAddr: 0x1000141E0, symSize: 0x34 }
  - { offsetInCU: 0x2CE5A, offset: 0x2D1C7, size: 0x8, addend: 0x0, symName: '__ZNSt3__112__tuple_leafILm0EOZN3trd8Backtest3runERKNS_6vectorINS1_3BarENS_9allocatorIS4_EEEER8StrategyE3$_4Lb0EEC2B8ue170006ISC_vEEOT_', symObjAddr: 0x11308, symBinAddr: 0x100014214, symSize: 0x20 }
  - { offsetInCU: 0x2CE9C, offset: 0x2D209, size: 0x8, addend: 0x0, symName: '__ZNSt3__15tupleIJONS_9allocatorIZN3trd8Backtest3runERKNS_6vectorINS2_3BarENS1_IS5_EEEER8StrategyE3$_4EEEEC1B8ue170006IJSD_ELi0EEEDpOT_', symObjAddr: 0x11328, symBinAddr: 0x100014234, symSize: 0x34 }
  - { offsetInCU: 0x2CEE5, offset: 0x2D252, size: 0x8, addend: 0x0, symName: '__ZNSt3__15tupleIJONS_9allocatorIZN3trd8Backtest3runERKNS_6vectorINS2_3BarENS1_IS5_EEEER8StrategyE3$_4EEEEC2B8ue170006IJSD_ELi0EEEDpOT_', symObjAddr: 0x1135C, symBinAddr: 0x100014268, symSize: 0x34 }
  - { offsetInCU: 0x2CF2E, offset: 0x2D29B, size: 0x8, addend: 0x0, symName: '__ZNSt3__112__tuple_implINS_15__tuple_indicesIJLm0EEEEJONS_9allocatorIZN3trd8Backtest3runERKNS_6vectorINS4_3BarENS3_IS7_EEEER8StrategyE3$_4EEEEC1B8ue170006IJLm0EEJSG_EJEJEJSF_EEENS1_IJXspT_EEEENS_13__tuple_typesIJDpT0_EEENS1_IJXspT1_EEEENSK_IJDpT2_EEEDpOT3_', symObjAddr: 0x11390, symBinAddr: 0x10001429C, symSize: 0x34 }
  - { offsetInCU: 0x2CFC2, offset: 0x2D32F, size: 0x8, addend: 0x0, symName: '__ZNSt3__112__tuple_implINS_15__tuple_indicesIJLm0EEEEJONS_9allocatorIZN3trd8Backtest3runERKNS_6vectorINS4_3BarENS3_IS7_EEEER8StrategyE3$_4EEEEC2B8ue170006IJLm0EEJSG_EJEJEJSF_EEENS1_IJXspT_EEEENS_13__tuple_typesIJDpT0_EEENS1_IJXspT1_EEEENSK_IJDpT2_EEEDpOT3_', symObjAddr: 0x113C4, symBinAddr: 0x1000142D0, symSize: 0x34 }
  - { offsetInCU: 0x2D056, offset: 0x2D3C3, size: 0x8, addend: 0x0, symName: '__ZNSt3__112__tuple_leafILm0EONS_9allocatorIZN3trd8Backtest3runERKNS_6vectorINS2_3BarENS1_IS5_EEEER8StrategyE3$_4EELb0EEC2B8ue170006ISD_vEEOT_', symObjAddr: 0x113F8, symBinAddr: 0x100014304, symSize: 0x20 }
  - { offsetInCU: 0x2D098, offset: 0x2D405, size: 0x8, addend: 0x0, symName: '__ZNSt3__117__compressed_pairIZN3trd8Backtest3runERKNS_6vectorINS1_3BarENS_9allocatorIS4_EEEER8StrategyE3$_4NS5_ISC_EEEC2B8ue170006IJOSC_EJOSD_EEENS_21piecewise_construct_tENS_5tupleIJDpT_EEENSJ_IJDpT0_EEE', symObjAddr: 0x11418, symBinAddr: 0x100014324, symSize: 0x54 }
  - { offsetInCU: 0x2D101, offset: 0x2D46E, size: 0x8, addend: 0x0, symName: '__ZNSt3__122__compressed_pair_elemIZN3trd8Backtest3runERKNS_6vectorINS1_3BarENS_9allocatorIS4_EEEER8StrategyE3$_4Li0ELb0EEC2B8ue170006IJOSC_EJLm0EEEENS_21piecewise_construct_tENS_5tupleIJDpT_EEENS_15__tuple_indicesIJXspT0_EEEE', symObjAddr: 0x1146C, symBinAddr: 0x100014378, symSize: 0x44 }
  - { offsetInCU: 0x2D163, offset: 0x2D4D0, size: 0x8, addend: 0x0, symName: '__ZNSt3__122__compressed_pair_elemINS_9allocatorIZN3trd8Backtest3runERKNS_6vectorINS2_3BarENS1_IS5_EEEER8StrategyE3$_4EELi1ELb1EEC2B8ue170006IJOSD_EJLm0EEEENS_21piecewise_construct_tENS_5tupleIJDpT_EEENS_15__tuple_indicesIJXspT0_EEEE', symObjAddr: 0x114B0, symBinAddr: 0x1000143BC, symSize: 0x38 }
  - { offsetInCU: 0x2D1C5, offset: 0x2D532, size: 0x8, addend: 0x0, symName: '__ZNSt3__112__tuple_leafILm0EOZN3trd8Backtest3runERKNS_6vectorINS1_3BarENS_9allocatorIS4_EEEER8StrategyE3$_4Lb0EE3getB8ue170006Ev', symObjAddr: 0x1150C, symBinAddr: 0x100014418, symSize: 0x18 }
  - { offsetInCU: 0x2D1EA, offset: 0x2D557, size: 0x8, addend: 0x0, symName: '__ZNSt3__112__tuple_leafILm0EONS_9allocatorIZN3trd8Backtest3runERKNS_6vectorINS2_3BarENS1_IS5_EEEER8StrategyE3$_4EELb0EE3getB8ue170006Ev', symObjAddr: 0x11548, symBinAddr: 0x100014454, symSize: 0x18 }
  - { offsetInCU: 0x2D20F, offset: 0x2D57C, size: 0x8, addend: 0x0, symName: '__ZNSt3__110__function6__funcIZN3trd8Backtest3runERKNS_6vectorINS2_3BarENS_9allocatorIS5_EEEER8StrategyE3$_4NS6_ISD_EEFvRKNS_7variantIJN6events11MarketEventENSG_11SignalEventENSG_10OrderEventENSG_9FillEventEEEEEED2Ev', symObjAddr: 0x11560, symBinAddr: 0x10001446C, symSize: 0x2C }
  - { offsetInCU: 0x2D23B, offset: 0x2D5A8, size: 0x8, addend: 0x0, symName: '__ZNKSt3__110__function12__alloc_funcIZN3trd8Backtest3runERKNS_6vectorINS2_3BarENS_9allocatorIS5_EEEER8StrategyE3$_4NS6_ISD_EEFvRKNS_7variantIJN6events11MarketEventENSG_11SignalEventENSG_10OrderEventENSG_9FillEventEEEEEE15__get_allocatorB8ue170006Ev', symObjAddr: 0x1158C, symBinAddr: 0x100014498, symSize: 0x24 }
  - { offsetInCU: 0x2D260, offset: 0x2D5CD, size: 0x8, addend: 0x0, symName: '__ZNSt3__19allocatorINS_10__function6__funcIZN3trd8Backtest3runERKNS_6vectorINS3_3BarENS0_IS6_EEEER8StrategyE3$_4NS0_ISD_EEFvRKNS_7variantIJN6events11MarketEventENSG_11SignalEventENSG_10OrderEventENSG_9FillEventEEEEEEEE8allocateB8ue170006Em', symObjAddr: 0x115B0, symBinAddr: 0x1000144BC, symSize: 0x58 }
  - { offsetInCU: 0x2D2A4, offset: 0x2D611, size: 0x8, addend: 0x0, symName: '__ZNSt3__122__allocator_destructorINS_9allocatorINS_10__function6__funcIZN3trd8Backtest3runERKNS_6vectorINS4_3BarENS1_IS7_EEEER8StrategyE3$_4NS1_ISE_EEFvRKNS_7variantIJN6events11MarketEventENSH_11SignalEventENSH_10OrderEventENSH_9FillEventEEEEEEEEEEC1B8ue170006ERSR_m', symObjAddr: 0x11608, symBinAddr: 0x100014514, symSize: 0x3C }
  - { offsetInCU: 0x2D37F, offset: 0x2D6EC, size: 0x8, addend: 0x0, symName: '__ZNSt3__110unique_ptrINS_10__function6__funcIZN3trd8Backtest3runERKNS_6vectorINS3_3BarENS_9allocatorIS6_EEEER8StrategyE3$_4NS7_ISE_EEFvRKNS_7variantIJN6events11MarketEventENSH_11SignalEventENSH_10OrderEventENSH_9FillEventEEEEEEENS_22__allocator_destructorINS7_ISQ_EEEEEC1B8ue170006ILb1EvEEPSQ_NS_16__dependent_typeINS_27__unique_ptr_deleter_sfinaeIST_EEXT_EE20__good_rval_ref_typeE', symObjAddr: 0x11644, symBinAddr: 0x100014550, symSize: 0x3C }
  - { offsetInCU: 0x2D3CF, offset: 0x2D73C, size: 0x8, addend: 0x0, symName: '__ZNKSt3__110unique_ptrINS_10__function6__funcIZN3trd8Backtest3runERKNS_6vectorINS3_3BarENS_9allocatorIS6_EEEER8StrategyE3$_4NS7_ISE_EEFvRKNS_7variantIJN6events11MarketEventENSH_11SignalEventENSH_10OrderEventENSH_9FillEventEEEEEEENS_22__allocator_destructorINS7_ISQ_EEEEE3getB8ue170006Ev', symObjAddr: 0x11680, symBinAddr: 0x10001458C, symSize: 0x28 }
  - { offsetInCU: 0x2D3F4, offset: 0x2D761, size: 0x8, addend: 0x0, symName: '__ZNKSt3__110__function12__alloc_funcIZN3trd8Backtest3runERKNS_6vectorINS2_3BarENS_9allocatorIS5_EEEER8StrategyE3$_4NS6_ISD_EEFvRKNS_7variantIJN6events11MarketEventENSG_11SignalEventENSG_10OrderEventENSG_9FillEventEEEEEE8__targetB8ue170006Ev', symObjAddr: 0x116A8, symBinAddr: 0x1000145B4, symSize: 0x24 }
  - { offsetInCU: 0x2D419, offset: 0x2D786, size: 0x8, addend: 0x0, symName: '__ZNSt3__110__function6__funcIZN3trd8Backtest3runERKNS_6vectorINS2_3BarENS_9allocatorIS5_EEEER8StrategyE3$_4NS6_ISD_EEFvRKNS_7variantIJN6events11MarketEventENSG_11SignalEventENSG_10OrderEventENSG_9FillEventEEEEEEC1B8ue170006ERKSD_OSE_', symObjAddr: 0x116CC, symBinAddr: 0x1000145D8, symSize: 0x3C }
  - { offsetInCU: 0x2D460, offset: 0x2D7CD, size: 0x8, addend: 0x0, symName: '__ZNSt3__110unique_ptrINS_10__function6__funcIZN3trd8Backtest3runERKNS_6vectorINS3_3BarENS_9allocatorIS6_EEEER8StrategyE3$_4NS7_ISE_EEFvRKNS_7variantIJN6events11MarketEventENSH_11SignalEventENSH_10OrderEventENSH_9FillEventEEEEEEENS_22__allocator_destructorINS7_ISQ_EEEEE7releaseB8ue170006Ev', symObjAddr: 0x11708, symBinAddr: 0x100014614, symSize: 0x44 }
  - { offsetInCU: 0x2D494, offset: 0x2D801, size: 0x8, addend: 0x0, symName: '__ZNSt3__110unique_ptrINS_10__function6__funcIZN3trd8Backtest3runERKNS_6vectorINS3_3BarENS_9allocatorIS6_EEEER8StrategyE3$_4NS7_ISE_EEFvRKNS_7variantIJN6events11MarketEventENSH_11SignalEventENSH_10OrderEventENSH_9FillEventEEEEEEENS_22__allocator_destructorINS7_ISQ_EEEEED1B8ue170006Ev', symObjAddr: 0x1174C, symBinAddr: 0x100014658, symSize: 0x2C }
  - { offsetInCU: 0x2D4BD, offset: 0x2D82A, size: 0x8, addend: 0x0, symName: '__ZNKSt3__117__compressed_pairIZN3trd8Backtest3runERKNS_6vectorINS1_3BarENS_9allocatorIS4_EEEER8StrategyE3$_4NS5_ISC_EEE6secondB8ue170006Ev', symObjAddr: 0x11778, symBinAddr: 0x100014684, symSize: 0x24 }
  - { offsetInCU: 0x2D4E2, offset: 0x2D84F, size: 0x8, addend: 0x0, symName: '__ZNKSt3__122__compressed_pair_elemINS_9allocatorIZN3trd8Backtest3runERKNS_6vectorINS2_3BarENS1_IS5_EEEER8StrategyE3$_4EELi1ELb1EE5__getB8ue170006Ev', symObjAddr: 0x1179C, symBinAddr: 0x1000146A8, symSize: 0x14 }
  - { offsetInCU: 0x2D512, offset: 0x2D87F, size: 0x8, addend: 0x0, symName: '__ZNSt3__116allocator_traitsINS_9allocatorINS_10__function6__funcIZN3trd8Backtest3runERKNS_6vectorINS4_3BarENS1_IS7_EEEER8StrategyE3$_4NS1_ISE_EEFvRKNS_7variantIJN6events11MarketEventENSH_11SignalEventENSH_10OrderEventENSH_9FillEventEEEEEEEEEE8max_sizeB8ue170006ISR_vEEmRKSR_', symObjAddr: 0x117B0, symBinAddr: 0x1000146BC, symSize: 0x24 }
  - { offsetInCU: 0x2D540, offset: 0x2D8AD, size: 0x8, addend: 0x0, symName: '__ZNKSt3__19allocatorINS_10__function6__funcIZN3trd8Backtest3runERKNS_6vectorINS3_3BarENS0_IS6_EEEER8StrategyE3$_4NS0_ISD_EEFvRKNS_7variantIJN6events11MarketEventENSG_11SignalEventENSG_10OrderEventENSG_9FillEventEEEEEEEE8max_sizeB8ue170006Ev', symObjAddr: 0x117D4, symBinAddr: 0x1000146E0, symSize: 0x14 }
  - { offsetInCU: 0x2D565, offset: 0x2D8D2, size: 0x8, addend: 0x0, symName: '__ZNSt3__122__allocator_destructorINS_9allocatorINS_10__function6__funcIZN3trd8Backtest3runERKNS_6vectorINS4_3BarENS1_IS7_EEEER8StrategyE3$_4NS1_ISE_EEFvRKNS_7variantIJN6events11MarketEventENSH_11SignalEventENSH_10OrderEventENSH_9FillEventEEEEEEEEEEC2B8ue170006ERSR_m', symObjAddr: 0x117E8, symBinAddr: 0x1000146F4, symSize: 0x2C }
  - { offsetInCU: 0x2D5AA, offset: 0x2D917, size: 0x8, addend: 0x0, symName: '__ZNSt3__110unique_ptrINS_10__function6__funcIZN3trd8Backtest3runERKNS_6vectorINS3_3BarENS_9allocatorIS6_EEEER8StrategyE3$_4NS7_ISE_EEFvRKNS_7variantIJN6events11MarketEventENSH_11SignalEventENSH_10OrderEventENSH_9FillEventEEEEEEENS_22__allocator_destructorINS7_ISQ_EEEEEC2B8ue170006ILb1EvEEPSQ_NS_16__dependent_typeINS_27__unique_ptr_deleter_sfinaeIST_EEXT_EE20__good_rval_ref_typeE', symObjAddr: 0x11814, symBinAddr: 0x100014720, symSize: 0x48 }
  - { offsetInCU: 0x2D5FA, offset: 0x2D967, size: 0x8, addend: 0x0, symName: '__ZNSt3__117__compressed_pairIPNS_10__function6__funcIZN3trd8Backtest3runERKNS_6vectorINS3_3BarENS_9allocatorIS6_EEEER8StrategyE3$_4NS7_ISE_EEFvRKNS_7variantIJN6events11MarketEventENSH_11SignalEventENSH_10OrderEventENSH_9FillEventEEEEEEENS_22__allocator_destructorINS7_ISQ_EEEEEC1B8ue170006IRSR_SU_EEOT_OT0_', symObjAddr: 0x1185C, symBinAddr: 0x100014768, symSize: 0x3C }
  - { offsetInCU: 0x2D651, offset: 0x2D9BE, size: 0x8, addend: 0x0, symName: '__ZNSt3__117__compressed_pairIPNS_10__function6__funcIZN3trd8Backtest3runERKNS_6vectorINS3_3BarENS_9allocatorIS6_EEEER8StrategyE3$_4NS7_ISE_EEFvRKNS_7variantIJN6events11MarketEventENSH_11SignalEventENSH_10OrderEventENSH_9FillEventEEEEEEENS_22__allocator_destructorINS7_ISQ_EEEEEC2B8ue170006IRSR_SU_EEOT_OT0_', symObjAddr: 0x11898, symBinAddr: 0x1000147A4, symSize: 0x48 }
  - { offsetInCU: 0x2D6A8, offset: 0x2DA15, size: 0x8, addend: 0x0, symName: '__ZNSt3__122__compressed_pair_elemIPNS_10__function6__funcIZN3trd8Backtest3runERKNS_6vectorINS3_3BarENS_9allocatorIS6_EEEER8StrategyE3$_4NS7_ISE_EEFvRKNS_7variantIJN6events11MarketEventENSH_11SignalEventENSH_10OrderEventENSH_9FillEventEEEEEEELi0ELb0EEC2B8ue170006IRSR_vEEOT_', symObjAddr: 0x118E0, symBinAddr: 0x1000147EC, symSize: 0x24 }
  - { offsetInCU: 0x2D6E9, offset: 0x2DA56, size: 0x8, addend: 0x0, symName: '__ZNSt3__122__compressed_pair_elemINS_22__allocator_destructorINS_9allocatorINS_10__function6__funcIZN3trd8Backtest3runERKNS_6vectorINS5_3BarENS2_IS8_EEEER8StrategyE3$_4NS2_ISF_EEFvRKNS_7variantIJN6events11MarketEventENSI_11SignalEventENSI_10OrderEventENSI_9FillEventEEEEEEEEEEELi1ELb0EEC2B8ue170006IST_vEEOT_', symObjAddr: 0x11904, symBinAddr: 0x100014810, symSize: 0x24 }
  - { offsetInCU: 0x2D72A, offset: 0x2DA97, size: 0x8, addend: 0x0, symName: '__ZNKSt3__117__compressed_pairIPNS_10__function6__funcIZN3trd8Backtest3runERKNS_6vectorINS3_3BarENS_9allocatorIS6_EEEER8StrategyE3$_4NS7_ISE_EEFvRKNS_7variantIJN6events11MarketEventENSH_11SignalEventENSH_10OrderEventENSH_9FillEventEEEEEEENS_22__allocator_destructorINS7_ISQ_EEEEE5firstB8ue170006Ev', symObjAddr: 0x11928, symBinAddr: 0x100014834, symSize: 0x24 }
  - { offsetInCU: 0x2D74F, offset: 0x2DABC, size: 0x8, addend: 0x0, symName: '__ZNKSt3__122__compressed_pair_elemIPNS_10__function6__funcIZN3trd8Backtest3runERKNS_6vectorINS3_3BarENS_9allocatorIS6_EEEER8StrategyE3$_4NS7_ISE_EEFvRKNS_7variantIJN6events11MarketEventENSH_11SignalEventENSH_10OrderEventENSH_9FillEventEEEEEEELi0ELb0EE5__getB8ue170006Ev', symObjAddr: 0x1194C, symBinAddr: 0x100014858, symSize: 0x14 }
  - { offsetInCU: 0x2D774, offset: 0x2DAE1, size: 0x8, addend: 0x0, symName: '__ZNKSt3__117__compressed_pairIZN3trd8Backtest3runERKNS_6vectorINS1_3BarENS_9allocatorIS4_EEEER8StrategyE3$_4NS5_ISC_EEE5firstB8ue170006Ev', symObjAddr: 0x11960, symBinAddr: 0x10001486C, symSize: 0x24 }
  - { offsetInCU: 0x2D799, offset: 0x2DB06, size: 0x8, addend: 0x0, symName: '__ZNKSt3__122__compressed_pair_elemIZN3trd8Backtest3runERKNS_6vectorINS1_3BarENS_9allocatorIS4_EEEER8StrategyE3$_4Li0ELb0EE5__getB8ue170006Ev', symObjAddr: 0x11984, symBinAddr: 0x100014890, symSize: 0x14 }
  - { offsetInCU: 0x2D7BE, offset: 0x2DB2B, size: 0x8, addend: 0x0, symName: '__ZNSt3__110__function6__funcIZN3trd8Backtest3runERKNS_6vectorINS2_3BarENS_9allocatorIS5_EEEER8StrategyE3$_4NS6_ISD_EEFvRKNS_7variantIJN6events11MarketEventENSG_11SignalEventENSG_10OrderEventENSG_9FillEventEEEEEEC2B8ue170006ERKSD_OSE_', symObjAddr: 0x11998, symBinAddr: 0x1000148A4, symSize: 0x88 }
  - { offsetInCU: 0x2D805, offset: 0x2DB72, size: 0x8, addend: 0x0, symName: '__ZNSt3__110__function12__alloc_funcIZN3trd8Backtest3runERKNS_6vectorINS2_3BarENS_9allocatorIS5_EEEER8StrategyE3$_4NS6_ISD_EEFvRKNS_7variantIJN6events11MarketEventENSG_11SignalEventENSG_10OrderEventENSG_9FillEventEEEEEEC1B8ue170006ERKSD_OSE_', symObjAddr: 0x11A20, symBinAddr: 0x10001492C, symSize: 0x3C }
  - { offsetInCU: 0x2D84A, offset: 0x2DBB7, size: 0x8, addend: 0x0, symName: '__ZNSt3__110__function12__alloc_funcIZN3trd8Backtest3runERKNS_6vectorINS2_3BarENS_9allocatorIS5_EEEER8StrategyE3$_4NS6_ISD_EEFvRKNS_7variantIJN6events11MarketEventENSG_11SignalEventENSG_10OrderEventENSG_9FillEventEEEEEEC2B8ue170006ERKSD_OSE_', symObjAddr: 0x11A5C, symBinAddr: 0x100014968, symSize: 0x5C }
  - { offsetInCU: 0x2D88F, offset: 0x2DBFC, size: 0x8, addend: 0x0, symName: '__ZNSt3__117__compressed_pairIZN3trd8Backtest3runERKNS_6vectorINS1_3BarENS_9allocatorIS4_EEEER8StrategyE3$_4NS5_ISC_EEEC1B8ue170006IJRKSC_EJOSD_EEENS_21piecewise_construct_tENS_5tupleIJDpT_EEENSK_IJDpT0_EEE', symObjAddr: 0x11AE4, symBinAddr: 0x1000149F0, symSize: 0x3C }
  - { offsetInCU: 0x2D8F8, offset: 0x2DC65, size: 0x8, addend: 0x0, symName: '__ZNSt3__15tupleIJRKZN3trd8Backtest3runERKNS_6vectorINS1_3BarENS_9allocatorIS4_EEEER8StrategyE3$_4EEC1B8ue170006INS_4_AndELi0EEESE_', symObjAddr: 0x11B20, symBinAddr: 0x100014A2C, symSize: 0x34 }
  - { offsetInCU: 0x2D940, offset: 0x2DCAD, size: 0x8, addend: 0x0, symName: '__ZNSt3__15tupleIJRKZN3trd8Backtest3runERKNS_6vectorINS1_3BarENS_9allocatorIS4_EEEER8StrategyE3$_4EEC2B8ue170006INS_4_AndELi0EEESE_', symObjAddr: 0x11B54, symBinAddr: 0x100014A60, symSize: 0x34 }
  - { offsetInCU: 0x2D988, offset: 0x2DCF5, size: 0x8, addend: 0x0, symName: '__ZNSt3__112__tuple_implINS_15__tuple_indicesIJLm0EEEEJRKZN3trd8Backtest3runERKNS_6vectorINS3_3BarENS_9allocatorIS6_EEEER8StrategyE3$_4EEC1B8ue170006IJLm0EEJSG_EJEJEJSG_EEENS1_IJXspT_EEEENS_13__tuple_typesIJDpT0_EEENS1_IJXspT1_EEEENSK_IJDpT2_EEEDpOT3_', symObjAddr: 0x11B88, symBinAddr: 0x100014A94, symSize: 0x34 }
  - { offsetInCU: 0x2DA1C, offset: 0x2DD89, size: 0x8, addend: 0x0, symName: '__ZNSt3__112__tuple_implINS_15__tuple_indicesIJLm0EEEEJRKZN3trd8Backtest3runERKNS_6vectorINS3_3BarENS_9allocatorIS6_EEEER8StrategyE3$_4EEC2B8ue170006IJLm0EEJSG_EJEJEJSG_EEENS1_IJXspT_EEEENS_13__tuple_typesIJDpT0_EEENS1_IJXspT1_EEEENSK_IJDpT2_EEEDpOT3_', symObjAddr: 0x11BBC, symBinAddr: 0x100014AC8, symSize: 0x34 }
  - { offsetInCU: 0x2DAB0, offset: 0x2DE1D, size: 0x8, addend: 0x0, symName: '__ZNSt3__112__tuple_leafILm0ERKZN3trd8Backtest3runERKNS_6vectorINS1_3BarENS_9allocatorIS4_EEEER8StrategyE3$_4Lb0EEC2B8ue170006ISE_vEEOT_', symObjAddr: 0x11BF0, symBinAddr: 0x100014AFC, symSize: 0x20 }
  - { offsetInCU: 0x2DAF2, offset: 0x2DE5F, size: 0x8, addend: 0x0, symName: '__ZNSt3__117__compressed_pairIZN3trd8Backtest3runERKNS_6vectorINS1_3BarENS_9allocatorIS4_EEEER8StrategyE3$_4NS5_ISC_EEEC2B8ue170006IJRKSC_EJOSD_EEENS_21piecewise_construct_tENS_5tupleIJDpT_EEENSK_IJDpT0_EEE', symObjAddr: 0x11C10, symBinAddr: 0x100014B1C, symSize: 0x54 }
  - { offsetInCU: 0x2DB5B, offset: 0x2DEC8, size: 0x8, addend: 0x0, symName: '__ZNSt3__122__compressed_pair_elemIZN3trd8Backtest3runERKNS_6vectorINS1_3BarENS_9allocatorIS4_EEEER8StrategyE3$_4Li0ELb0EEC2B8ue170006IJRKSC_EJLm0EEEENS_21piecewise_construct_tENS_5tupleIJDpT_EEENS_15__tuple_indicesIJXspT0_EEEE', symObjAddr: 0x11C64, symBinAddr: 0x100014B70, symSize: 0x44 }
  - { offsetInCU: 0x2DBBD, offset: 0x2DF2A, size: 0x8, addend: 0x0, symName: '__ZNSt3__112__tuple_leafILm0ERKZN3trd8Backtest3runERKNS_6vectorINS1_3BarENS_9allocatorIS4_EEEER8StrategyE3$_4Lb0EE3getB8ue170006Ev', symObjAddr: 0x11CCC, symBinAddr: 0x100014BD8, symSize: 0x18 }
  - { offsetInCU: 0x2DBE2, offset: 0x2DF4F, size: 0x8, addend: 0x0, symName: '__ZNSt3__117__compressed_pairIPNS_10__function6__funcIZN3trd8Backtest3runERKNS_6vectorINS3_3BarENS_9allocatorIS6_EEEER8StrategyE3$_4NS7_ISE_EEFvRKNS_7variantIJN6events11MarketEventENSH_11SignalEventENSH_10OrderEventENSH_9FillEventEEEEEEENS_22__allocator_destructorINS7_ISQ_EEEEE5firstB8ue170006Ev', symObjAddr: 0x11CE4, symBinAddr: 0x100014BF0, symSize: 0x24 }
  - { offsetInCU: 0x2DC07, offset: 0x2DF74, size: 0x8, addend: 0x0, symName: '__ZNSt3__122__compressed_pair_elemIPNS_10__function6__funcIZN3trd8Backtest3runERKNS_6vectorINS3_3BarENS_9allocatorIS6_EEEER8StrategyE3$_4NS7_ISE_EEFvRKNS_7variantIJN6events11MarketEventENSH_11SignalEventENSH_10OrderEventENSH_9FillEventEEEEEEELi0ELb0EE5__getB8ue170006Ev', symObjAddr: 0x11D08, symBinAddr: 0x100014C14, symSize: 0x14 }
  - { offsetInCU: 0x2DC2C, offset: 0x2DF99, size: 0x8, addend: 0x0, symName: '__ZNSt3__110unique_ptrINS_10__function6__funcIZN3trd8Backtest3runERKNS_6vectorINS3_3BarENS_9allocatorIS6_EEEER8StrategyE3$_4NS7_ISE_EEFvRKNS_7variantIJN6events11MarketEventENSH_11SignalEventENSH_10OrderEventENSH_9FillEventEEEEEEENS_22__allocator_destructorINS7_ISQ_EEEEED2B8ue170006Ev', symObjAddr: 0x11D1C, symBinAddr: 0x100014C28, symSize: 0x30 }
  - { offsetInCU: 0x2DC55, offset: 0x2DFC2, size: 0x8, addend: 0x0, symName: '__ZNSt3__110unique_ptrINS_10__function6__funcIZN3trd8Backtest3runERKNS_6vectorINS3_3BarENS_9allocatorIS6_EEEER8StrategyE3$_4NS7_ISE_EEFvRKNS_7variantIJN6events11MarketEventENSH_11SignalEventENSH_10OrderEventENSH_9FillEventEEEEEEENS_22__allocator_destructorINS7_ISQ_EEEEE5resetB8ue170006EPSQ_', symObjAddr: 0x11D4C, symBinAddr: 0x100014C58, symSize: 0x78 }
  - { offsetInCU: 0x2DC98, offset: 0x2E005, size: 0x8, addend: 0x0, symName: '__ZNSt3__117__compressed_pairIPNS_10__function6__funcIZN3trd8Backtest3runERKNS_6vectorINS3_3BarENS_9allocatorIS6_EEEER8StrategyE3$_4NS7_ISE_EEFvRKNS_7variantIJN6events11MarketEventENSH_11SignalEventENSH_10OrderEventENSH_9FillEventEEEEEEENS_22__allocator_destructorINS7_ISQ_EEEEE6secondB8ue170006Ev', symObjAddr: 0x11DC4, symBinAddr: 0x100014CD0, symSize: 0x28 }
  - { offsetInCU: 0x2DCBD, offset: 0x2E02A, size: 0x8, addend: 0x0, symName: '__ZNSt3__122__allocator_destructorINS_9allocatorINS_10__function6__funcIZN3trd8Backtest3runERKNS_6vectorINS4_3BarENS1_IS7_EEEER8StrategyE3$_4NS1_ISE_EEFvRKNS_7variantIJN6events11MarketEventENSH_11SignalEventENSH_10OrderEventENSH_9FillEventEEEEEEEEEEclB8ue170006EPSQ_', symObjAddr: 0x11DEC, symBinAddr: 0x100014CF8, symSize: 0x34 }
  - { offsetInCU: 0x2DCF0, offset: 0x2E05D, size: 0x8, addend: 0x0, symName: '__ZNSt3__122__compressed_pair_elemINS_22__allocator_destructorINS_9allocatorINS_10__function6__funcIZN3trd8Backtest3runERKNS_6vectorINS5_3BarENS2_IS8_EEEER8StrategyE3$_4NS2_ISF_EEFvRKNS_7variantIJN6events11MarketEventENSI_11SignalEventENSI_10OrderEventENSI_9FillEventEEEEEEEEEEELi1ELb0EE5__getB8ue170006Ev', symObjAddr: 0x11E20, symBinAddr: 0x100014D2C, symSize: 0x14 }
  - { offsetInCU: 0x2DD15, offset: 0x2E082, size: 0x8, addend: 0x0, symName: '__ZNSt3__116allocator_traitsINS_9allocatorINS_10__function6__funcIZN3trd8Backtest3runERKNS_6vectorINS4_3BarENS1_IS7_EEEER8StrategyE3$_4NS1_ISE_EEFvRKNS_7variantIJN6events11MarketEventENSH_11SignalEventENSH_10OrderEventENSH_9FillEventEEEEEEEEEE10deallocateB8ue170006ERSR_PSQ_m', symObjAddr: 0x11E34, symBinAddr: 0x100014D40, symSize: 0x34 }
  - { offsetInCU: 0x2DD57, offset: 0x2E0C4, size: 0x8, addend: 0x0, symName: '__ZNSt3__19allocatorINS_10__function6__funcIZN3trd8Backtest3runERKNS_6vectorINS3_3BarENS0_IS6_EEEER8StrategyE3$_4NS0_ISD_EEFvRKNS_7variantIJN6events11MarketEventENSG_11SignalEventENSG_10OrderEventENSG_9FillEventEEEEEEEE10deallocateB8ue170006EPSP_m', symObjAddr: 0x11E68, symBinAddr: 0x100014D74, symSize: 0x40 }
  - { offsetInCU: 0x2DD98, offset: 0x2E105, size: 0x8, addend: 0x0, symName: '__ZNSt3__110__function6__funcIZN3trd8Backtest3runERKNS_6vectorINS2_3BarENS_9allocatorIS5_EEEER8StrategyE3$_4NS6_ISD_EEFvRKNS_7variantIJN6events11MarketEventENSG_11SignalEventENSG_10OrderEventENSG_9FillEventEEEEEEC1B8ue170006ERKSD_RKSE_', symObjAddr: 0x11EA8, symBinAddr: 0x100014DB4, symSize: 0x3C }
  - { offsetInCU: 0x2DDDF, offset: 0x2E14C, size: 0x8, addend: 0x0, symName: '__ZNSt3__110__function6__funcIZN3trd8Backtest3runERKNS_6vectorINS2_3BarENS_9allocatorIS5_EEEER8StrategyE3$_4NS6_ISD_EEFvRKNS_7variantIJN6events11MarketEventENSG_11SignalEventENSG_10OrderEventENSG_9FillEventEEEEEEC2B8ue170006ERKSD_RKSE_', symObjAddr: 0x11EE4, symBinAddr: 0x100014DF0, symSize: 0x88 }
  - { offsetInCU: 0x2DE26, offset: 0x2E193, size: 0x8, addend: 0x0, symName: '__ZNSt3__110__function12__alloc_funcIZN3trd8Backtest3runERKNS_6vectorINS2_3BarENS_9allocatorIS5_EEEER8StrategyE3$_4NS6_ISD_EEFvRKNS_7variantIJN6events11MarketEventENSG_11SignalEventENSG_10OrderEventENSG_9FillEventEEEEEEC1B8ue170006ERKSD_RKSE_', symObjAddr: 0x11F6C, symBinAddr: 0x100014E78, symSize: 0x3C }
  - { offsetInCU: 0x2DE6B, offset: 0x2E1D8, size: 0x8, addend: 0x0, symName: '__ZNSt3__110__function12__alloc_funcIZN3trd8Backtest3runERKNS_6vectorINS2_3BarENS_9allocatorIS5_EEEER8StrategyE3$_4NS6_ISD_EEFvRKNS_7variantIJN6events11MarketEventENSG_11SignalEventENSG_10OrderEventENSG_9FillEventEEEEEEC2B8ue170006ERKSD_RKSE_', symObjAddr: 0x11FA8, symBinAddr: 0x100014EB4, symSize: 0x5C }
  - { offsetInCU: 0x2DEB0, offset: 0x2E21D, size: 0x8, addend: 0x0, symName: '__ZNSt3__117__compressed_pairIZN3trd8Backtest3runERKNS_6vectorINS1_3BarENS_9allocatorIS4_EEEER8StrategyE3$_4NS5_ISC_EEEC1B8ue170006IJRKSC_EJRKSD_EEENS_21piecewise_construct_tENS_5tupleIJDpT_EEENSL_IJDpT0_EEE', symObjAddr: 0x12030, symBinAddr: 0x100014F3C, symSize: 0x3C }
  - { offsetInCU: 0x2DF19, offset: 0x2E286, size: 0x8, addend: 0x0, symName: '__ZNSt3__15tupleIJRKNS_9allocatorIZN3trd8Backtest3runERKNS_6vectorINS2_3BarENS1_IS5_EEEER8StrategyE3$_4EEEEC1B8ue170006INS_4_AndELi0EEESF_', symObjAddr: 0x1206C, symBinAddr: 0x100014F78, symSize: 0x34 }
  - { offsetInCU: 0x2DF61, offset: 0x2E2CE, size: 0x8, addend: 0x0, symName: '__ZNSt3__15tupleIJRKNS_9allocatorIZN3trd8Backtest3runERKNS_6vectorINS2_3BarENS1_IS5_EEEER8StrategyE3$_4EEEEC2B8ue170006INS_4_AndELi0EEESF_', symObjAddr: 0x120A0, symBinAddr: 0x100014FAC, symSize: 0x34 }
  - { offsetInCU: 0x2DFA9, offset: 0x2E316, size: 0x8, addend: 0x0, symName: '__ZNSt3__112__tuple_implINS_15__tuple_indicesIJLm0EEEEJRKNS_9allocatorIZN3trd8Backtest3runERKNS_6vectorINS4_3BarENS3_IS7_EEEER8StrategyE3$_4EEEEC1B8ue170006IJLm0EEJSH_EJEJEJSH_EEENS1_IJXspT_EEEENS_13__tuple_typesIJDpT0_EEENS1_IJXspT1_EEEENSL_IJDpT2_EEEDpOT3_', symObjAddr: 0x120D4, symBinAddr: 0x100014FE0, symSize: 0x34 }
  - { offsetInCU: 0x2E03D, offset: 0x2E3AA, size: 0x8, addend: 0x0, symName: '__ZNSt3__112__tuple_implINS_15__tuple_indicesIJLm0EEEEJRKNS_9allocatorIZN3trd8Backtest3runERKNS_6vectorINS4_3BarENS3_IS7_EEEER8StrategyE3$_4EEEEC2B8ue170006IJLm0EEJSH_EJEJEJSH_EEENS1_IJXspT_EEEENS_13__tuple_typesIJDpT0_EEENS1_IJXspT1_EEEENSL_IJDpT2_EEEDpOT3_', symObjAddr: 0x12108, symBinAddr: 0x100015014, symSize: 0x34 }
  - { offsetInCU: 0x2E0D1, offset: 0x2E43E, size: 0x8, addend: 0x0, symName: '__ZNSt3__112__tuple_leafILm0ERKNS_9allocatorIZN3trd8Backtest3runERKNS_6vectorINS2_3BarENS1_IS5_EEEER8StrategyE3$_4EELb0EEC2B8ue170006ISF_vEEOT_', symObjAddr: 0x1213C, symBinAddr: 0x100015048, symSize: 0x20 }
  - { offsetInCU: 0x2E113, offset: 0x2E480, size: 0x8, addend: 0x0, symName: '__ZNSt3__117__compressed_pairIZN3trd8Backtest3runERKNS_6vectorINS1_3BarENS_9allocatorIS4_EEEER8StrategyE3$_4NS5_ISC_EEEC2B8ue170006IJRKSC_EJRKSD_EEENS_21piecewise_construct_tENS_5tupleIJDpT_EEENSL_IJDpT0_EEE', symObjAddr: 0x1215C, symBinAddr: 0x100015068, symSize: 0x54 }
  - { offsetInCU: 0x2E17C, offset: 0x2E4E9, size: 0x8, addend: 0x0, symName: '__ZNSt3__122__compressed_pair_elemINS_9allocatorIZN3trd8Backtest3runERKNS_6vectorINS2_3BarENS1_IS5_EEEER8StrategyE3$_4EELi1ELb1EEC2B8ue170006IJRKSD_EJLm0EEEENS_21piecewise_construct_tENS_5tupleIJDpT_EEENS_15__tuple_indicesIJXspT0_EEEE', symObjAddr: 0x121B0, symBinAddr: 0x1000150BC, symSize: 0x38 }
  - { offsetInCU: 0x2E1DE, offset: 0x2E54B, size: 0x8, addend: 0x0, symName: '__ZNSt3__112__tuple_leafILm0ERKNS_9allocatorIZN3trd8Backtest3runERKNS_6vectorINS2_3BarENS1_IS5_EEEER8StrategyE3$_4EELb0EE3getB8ue170006Ev', symObjAddr: 0x1220C, symBinAddr: 0x100015118, symSize: 0x18 }
  - { offsetInCU: 0x2E203, offset: 0x2E570, size: 0x8, addend: 0x0, symName: '__ZNSt3__110__function12__alloc_funcIZN3trd8Backtest3runERKNS_6vectorINS2_3BarENS_9allocatorIS5_EEEER8StrategyE3$_4NS6_ISD_EEFvRKNS_7variantIJN6events11MarketEventENSG_11SignalEventENSG_10OrderEventENSG_9FillEventEEEEEE7destroyB8ue170006Ev', symObjAddr: 0x12224, symBinAddr: 0x100015130, symSize: 0x10 }
  - { offsetInCU: 0x2E228, offset: 0x2E595, size: 0x8, addend: 0x0, symName: '__ZNSt3__110__function12__alloc_funcIZN3trd8Backtest3runERKNS_6vectorINS2_3BarENS_9allocatorIS5_EEEER8StrategyE3$_4NS6_ISD_EEFvRKNS_7variantIJN6events11MarketEventENSG_11SignalEventENSG_10OrderEventENSG_9FillEventEEEEEEclB8ue170006ESN_', symObjAddr: 0x12234, symBinAddr: 0x100015140, symSize: 0x30 }
  - { offsetInCU: 0x2E25B, offset: 0x2E5C8, size: 0x8, addend: 0x0, symName: '__ZNSt3__128__invoke_void_return_wrapperIvLb1EE6__callB8ue170006IJRZN3trd8Backtest3runERKNS_6vectorINS3_3BarENS_9allocatorIS6_EEEER8StrategyE3$_4RKNS_7variantIJN6events11MarketEventENSH_11SignalEventENSH_10OrderEventENSH_9FillEventEEEEEEEvDpOT_', symObjAddr: 0x12264, symBinAddr: 0x100015170, symSize: 0x2C }
  - { offsetInCU: 0x2E29E, offset: 0x2E60B, size: 0x8, addend: 0x0, symName: '__ZNSt3__117__compressed_pairIZN3trd8Backtest3runERKNS_6vectorINS1_3BarENS_9allocatorIS4_EEEER8StrategyE3$_4NS5_ISC_EEE5firstB8ue170006Ev', symObjAddr: 0x12290, symBinAddr: 0x10001519C, symSize: 0x24 }
  - { offsetInCU: 0x2E2C8, offset: 0x2E635, size: 0x8, addend: 0x0, symName: '__ZZN3trd8Backtest3runERKNSt3__16vectorINS_3BarENS1_9allocatorIS3_EEEER8StrategyENK3$_4clERKNS1_7variantIJN6events11MarketEventENSD_11SignalEventENSD_10OrderEventENSD_9FillEventEEEE', symObjAddr: 0x122E0, symBinAddr: 0x1000151EC, symSize: 0x30 }
  - { offsetInCU: 0x2E2FF, offset: 0x2E66C, size: 0x8, addend: 0x0, symName: __ZN12TraceHandler2onERKNSt3__17variantIJN6events11MarketEventENS2_11SignalEventENS2_10OrderEventENS2_9FillEventEEEE, symObjAddr: 0x12310, symBinAddr: 0x10001521C, symSize: 0x170 }
  - { offsetInCU: 0x2E39B, offset: 0x2E708, size: 0x8, addend: 0x0, symName: __ZNSt18bad_variant_accessC1Ev, symObjAddr: 0x12620, symBinAddr: 0x10001552C, symSize: 0x2C }
  - { offsetInCU: 0x2E3C7, offset: 0x2E734, size: 0x8, addend: 0x0, symName: __ZNSt18bad_variant_accessD1Ev, symObjAddr: 0x1264C, symBinAddr: 0x100015558, symSize: 0x2C }
  - { offsetInCU: 0x2E3F3, offset: 0x2E760, size: 0x8, addend: 0x0, symName: __ZNSt18bad_variant_accessC2Ev, symObjAddr: 0x12678, symBinAddr: 0x100015584, symSize: 0x44 }
  - { offsetInCU: 0x2E41F, offset: 0x2E78C, size: 0x8, addend: 0x0, symName: __ZNSt18bad_variant_accessD2Ev, symObjAddr: 0x126BC, symBinAddr: 0x1000155C8, symSize: 0x2C }
  - { offsetInCU: 0x2E44B, offset: 0x2E7B8, size: 0x8, addend: 0x0, symName: '__ZNSt3__122__compressed_pair_elemIZN3trd8Backtest3runERKNS_6vectorINS1_3BarENS_9allocatorIS4_EEEER8StrategyE3$_4Li0ELb0EE5__getB8ue170006Ev', symObjAddr: 0x127A0, symBinAddr: 0x1000156AC, symSize: 0x14 }
  - { offsetInCU: 0xC7B4, offset: 0x3B52E, size: 0x8, addend: 0x0, symName: __ZNSt3__15countB8ue170006INS_11__wrap_iterIPcEEcEENS_15iterator_traitsIT_E15difference_typeES5_S5_RKT0_, symObjAddr: 0x564, symBinAddr: 0x100015C24, symSize: 0x88 }
  - { offsetInCU: 0xD5AC, offset: 0x3C326, size: 0x8, addend: 0x0, symName: __ZNSt3__112__to_addressB8ue170006IKcEEPT_S3_, symObjAddr: 0x17A4, symBinAddr: 0x100016D3C, symSize: 0x14 }
  - { offsetInCU: 0xD615, offset: 0x3C38F, size: 0x8, addend: 0x0, symName: __ZNSt3__1neB8ue170006IPcEEbRKNS_11__wrap_iterIT_EES6_, symObjAddr: 0x1EA8, symBinAddr: 0x100017194, symSize: 0x34 }
  - { offsetInCU: 0xD659, offset: 0x3C3D3, size: 0x8, addend: 0x0, symName: __ZNSt3__1eqB8ue170006IPcEEbRKNS_11__wrap_iterIT_EES6_, symObjAddr: 0x1F14, symBinAddr: 0x100017200, symSize: 0x48 }
  - { offsetInCU: 0xD69D, offset: 0x3C417, size: 0x8, addend: 0x0, symName: __ZNSt3__112__to_addressB8ue170006IN3trd3BarEEEPT_S4_, symObjAddr: 0x243C, symBinAddr: 0x100017728, symSize: 0x14 }
  - { offsetInCU: 0xD6D3, offset: 0x3C44D, size: 0x8, addend: 0x0, symName: __ZNSt3__119__allocate_at_leastB8ue170006INS_9allocatorIN3trd3BarEEEEENS_19__allocation_resultINS_16allocator_traitsIT_E7pointerEEERS7_m, symObjAddr: 0x2C40, symBinAddr: 0x100017C28, symSize: 0x40 }
  - { offsetInCU: 0xD717, offset: 0x3C491, size: 0x8, addend: 0x0, symName: __ZNSt3__142__uninitialized_allocator_move_if_noexceptB8ue170006INS_9allocatorIN3trd3BarEEENS_16reverse_iteratorIPS3_EES7_S3_vEET1_RT_T0_SB_S8_, symObjAddr: 0x2EF0, symBinAddr: 0x100017DF4, symSize: 0x78 }
  - { offsetInCU: 0xD795, offset: 0x3C50F, size: 0x8, addend: 0x0, symName: __ZNSt3__14swapB8ue170006IPN3trd3BarEEENS_9enable_ifIXaasr21is_move_constructibleIT_EE5valuesr18is_move_assignableIS5_EE5valueEvE4typeERS5_S8_, symObjAddr: 0x2FB4, symBinAddr: 0x100017EB8, symSize: 0x3C }
  - { offsetInCU: 0xD7E8, offset: 0x3C562, size: 0x8, addend: 0x0, symName: __ZNSt3__14moveB8ue170006INS_16reverse_iteratorIPN3trd3BarEEES5_EET0_T_S7_S6_, symObjAddr: 0x30E0, symBinAddr: 0x100017FE4, symSize: 0x78 }
  - { offsetInCU: 0xD843, offset: 0x3C5BD, size: 0x8, addend: 0x0, symName: __ZNSt3__16__moveB8ue170006INS_17_ClassicAlgPolicyENS_16reverse_iteratorIPN3trd3BarEEES6_S6_EENS_4pairIT0_T2_EES8_T1_S9_, symObjAddr: 0x3158, symBinAddr: 0x10001805C, symSize: 0x64 }
  - { offsetInCU: 0xD8B0, offset: 0x3C62A, size: 0x8, addend: 0x0, symName: __ZNSt3__123__dispatch_copy_or_moveB8ue170006INS_17_ClassicAlgPolicyENS_11__move_loopIS1_EENS_14__move_trivialENS_16reverse_iteratorIPN3trd3BarEEES9_S9_EENS_4pairIT2_T4_EESB_T3_SC_, symObjAddr: 0x31BC, symBinAddr: 0x1000180C0, symSize: 0x64 }
  - { offsetInCU: 0xD92F, offset: 0x3C6A9, size: 0x8, addend: 0x0, symName: __ZNSt3__121__unwrap_and_dispatchB8ue170006INS_10__overloadINS_11__move_loopINS_17_ClassicAlgPolicyEEENS_14__move_trivialEEENS_16reverse_iteratorIPN3trd3BarEEESB_SB_Li0EEENS_4pairIT0_T2_EESD_T1_SE_, symObjAddr: 0x3220, symBinAddr: 0x100018124, symSize: 0x12C }
  - { offsetInCU: 0xD9C2, offset: 0x3C73C, size: 0x8, addend: 0x0, symName: __ZNSt3__114__unwrap_rangeB8ue170006INS_16reverse_iteratorIPN3trd3BarEEES5_EENS_4pairIT0_S7_EET_S9_, symObjAddr: 0x334C, symBinAddr: 0x100018250, symSize: 0x84 }
  - { offsetInCU: 0xDB35, offset: 0x3C8AF, size: 0x8, addend: 0x0, symName: __ZNSt3__113__unwrap_iterB8ue170006INS_16reverse_iteratorIPN3trd3BarEEENS_18__unwrap_iter_implIS5_Lb0EEELi0EEEDTclsrT0_8__unwrapclsr3stdE7declvalIT_EEEES9_, symObjAddr: 0x346C, symBinAddr: 0x100018370, symSize: 0x44 }
  - { offsetInCU: 0xDB7A, offset: 0x3C8F4, size: 0x8, addend: 0x0, symName: __ZNSt3__19make_pairB8ue170006INS_16reverse_iteratorIPN3trd3BarEEES5_EENS_4pairINS_18__unwrap_ref_decayIT_E4typeENS7_IT0_E4typeEEEOS8_OSB_, symObjAddr: 0x34B0, symBinAddr: 0x1000183B4, symSize: 0x38 }
  - { offsetInCU: 0xDBC9, offset: 0x3C943, size: 0x8, addend: 0x0, symName: __ZNSt3__114__rewrap_rangeB8ue170006INS_16reverse_iteratorIPN3trd3BarEEES5_EET_S6_T0_, symObjAddr: 0x34E8, symBinAddr: 0x1000183EC, symSize: 0x5C }
  - { offsetInCU: 0xDC16, offset: 0x3C990, size: 0x8, addend: 0x0, symName: __ZNSt3__113__rewrap_iterB8ue170006INS_16reverse_iteratorIPN3trd3BarEEES5_NS_18__unwrap_iter_implIS5_Lb0EEEEET_S8_T0_, symObjAddr: 0x3544, symBinAddr: 0x100018448, symSize: 0x74 }
  - { offsetInCU: 0xDC6C, offset: 0x3C9E6, size: 0x8, addend: 0x0, symName: __ZNSt3__1neB8ue170006IPN3trd3BarES3_EEbRKNS_16reverse_iteratorIT_EERKNS4_IT0_EE, symObjAddr: 0x35B8, symBinAddr: 0x1000184BC, symSize: 0x48 }
  - { offsetInCU: 0xE6EF, offset: 0x3D469, size: 0x8, addend: 0x0, symName: __ZN3trd8printBarERKNS_3BarE, symObjAddr: 0x11FC, symBinAddr: 0x100016894, symSize: 0xC0 }
  - { offsetInCU: 0xE8AB, offset: 0x3D625, size: 0x8, addend: 0x0, symName: __ZNSt3__16vectorIN3trd3BarENS_9allocatorIS2_EEE26__swap_out_circular_bufferERNS_14__split_bufferIS2_RS4_EE, symObjAddr: 0x2798, symBinAddr: 0x100017934, symSize: 0x110 }
  - { offsetInCU: 0x10809, offset: 0x3F583, size: 0x8, addend: 0x0, symName: __ZN3trd9csvReader8loadBarsERKNSt3__112basic_stringIcNS1_11char_traitsIcEENS1_9allocatorIcEEEE, symObjAddr: 0x0, symBinAddr: 0x1000156C0, symSize: 0x358 }
  - { offsetInCU: 0x108AB, offset: 0x3F625, size: 0x8, addend: 0x0, symName: __ZL8readFileRKNSt3__112basic_stringIcNS_11char_traitsIcEENS_9allocatorIcEEEE, symObjAddr: 0x358, symBinAddr: 0x100015A18, symSize: 0x20C }
  - { offsetInCU: 0x108FA, offset: 0x3F674, size: 0x8, addend: 0x0, symName: __ZNSt3__112basic_stringIcNS_11char_traitsIcEENS_9allocatorIcEEE5beginB8ue170006Ev, symObjAddr: 0x5EC, symBinAddr: 0x100015CAC, symSize: 0x4C }
  - { offsetInCU: 0x1091F, offset: 0x3F699, size: 0x8, addend: 0x0, symName: __ZNSt3__112basic_stringIcNS_11char_traitsIcEENS_9allocatorIcEEE3endB8ue170006Ev, symObjAddr: 0x638, symBinAddr: 0x100015CF8, symSize: 0x54 }
  - { offsetInCU: 0x10944, offset: 0x3F6BE, size: 0x8, addend: 0x0, symName: __ZNSt3__16vectorIN3trd3BarENS_9allocatorIS2_EEEC1B8ue170006Ev, symObjAddr: 0x68C, symBinAddr: 0x100015D4C, symSize: 0x2C }
  - { offsetInCU: 0x1096D, offset: 0x3F6E7, size: 0x8, addend: 0x0, symName: __ZNKSt3__112basic_stringIcNS_11char_traitsIcEENS_9allocatorIcEEE5emptyB8ue170006Ev, symObjAddr: 0x6B8, symBinAddr: 0x100015D78, symSize: 0x30 }
  - { offsetInCU: 0x10992, offset: 0x3F70C, size: 0x8, addend: 0x0, symName: __ZNSt3__16vectorIN3trd3BarENS_9allocatorIS2_EEE7reserveEm, symObjAddr: 0x6E8, symBinAddr: 0x100015DA8, symSize: 0xE8 }
  - { offsetInCU: 0x109ED, offset: 0x3F767, size: 0x8, addend: 0x0, symName: __ZNKSt3__112basic_stringIcNS_11char_traitsIcEENS_9allocatorIcEEE4sizeB8ue170006Ev, symObjAddr: 0x7F8, symBinAddr: 0x100015E90, symSize: 0x54 }
  - { offsetInCU: 0x10A12, offset: 0x3F78C, size: 0x8, addend: 0x0, symName: __ZL8nextLineRPKcS0_, symObjAddr: 0x84C, symBinAddr: 0x100015EE4, symSize: 0xA8 }
  - { offsetInCU: 0x10A49, offset: 0x3F7C3, size: 0x8, addend: 0x0, symName: __ZL8parseYMDRPKcS0_Rx, symObjAddr: 0x8F4, symBinAddr: 0x100015F8C, symSize: 0x224 }
  - { offsetInCU: 0x10ADD, offset: 0x3F857, size: 0x8, addend: 0x0, symName: __ZL10parseOHLCVIdEbRPKcS1_RT_, symObjAddr: 0xB18, symBinAddr: 0x1000161B0, symSize: 0x31C }
  - { offsetInCU: 0x10BA7, offset: 0x3F921, size: 0x8, addend: 0x0, symName: __ZL10parseOHLCVIiEbRPKcS1_RT_, symObjAddr: 0xE34, symBinAddr: 0x1000164CC, symSize: 0x328 }
  - { offsetInCU: 0x10C71, offset: 0x3F9EB, size: 0x8, addend: 0x0, symName: __ZNSt3__16vectorIN3trd3BarENS_9allocatorIS2_EEE12emplace_backIJRS2_EEES7_DpOT_, symObjAddr: 0x115C, symBinAddr: 0x1000167F4, symSize: 0x74 }
  - { offsetInCU: 0x10CB2, offset: 0x3FA2C, size: 0x8, addend: 0x0, symName: __ZNSt3__16vectorIN3trd3BarENS_9allocatorIS2_EEED1B8ue170006Ev, symObjAddr: 0x11D0, symBinAddr: 0x100016868, symSize: 0x2C }
  - { offsetInCU: 0x10E1A, offset: 0x3FB94, size: 0x8, addend: 0x0, symName: __ZNSt3__114basic_ifstreamIcNS_11char_traitsIcEEEC1ERKNS_12basic_stringIcS2_NS_9allocatorIcEEEEj, symObjAddr: 0x1388, symBinAddr: 0x100016954, symSize: 0x16C }
  - { offsetInCU: 0x10E63, offset: 0x3FBDD, size: 0x8, addend: 0x0, symName: __ZNKSt3__19basic_iosIcNS_11char_traitsIcEEEntB8ue170006Ev, symObjAddr: 0x14F4, symBinAddr: 0x100016AC0, symSize: 0x28 }
  - { offsetInCU: 0x10E88, offset: 0x3FC02, size: 0x8, addend: 0x0, symName: __ZNSt3__112basic_stringIcNS_11char_traitsIcEENS_9allocatorIcEEEC1B8ue170006Ev, symObjAddr: 0x151C, symBinAddr: 0x100016AE8, symSize: 0x2C }
  - { offsetInCU: 0x10EB1, offset: 0x3FC2B, size: 0x8, addend: 0x0, symName: __ZNSt3__112basic_stringIcNS_11char_traitsIcEENS_9allocatorIcEEE6resizeB8ue170006Em, symObjAddr: 0x1548, symBinAddr: 0x100016B14, symSize: 0x30 }
  - { offsetInCU: 0x10EE5, offset: 0x3FC5F, size: 0x8, addend: 0x0, symName: __ZNKSt3__14fposI11__mbstate_tEcvxB8ue170006Ev, symObjAddr: 0x1578, symBinAddr: 0x100016B44, symSize: 0x18 }
  - { offsetInCU: 0x10F0F, offset: 0x3FC89, size: 0x8, addend: 0x0, symName: __ZNSt3__114basic_ifstreamIcNS_11char_traitsIcEEED1Ev, symObjAddr: 0x1590, symBinAddr: 0x100016B5C, symSize: 0x40 }
  - { offsetInCU: 0x10F3B, offset: 0x3FCB5, size: 0x8, addend: 0x0, symName: __ZNSt3__19basic_iosIcNS_11char_traitsIcEEEC2B8ue170006Ev, symObjAddr: 0x15D0, symBinAddr: 0x100016B9C, symSize: 0x44 }
  - { offsetInCU: 0x10F64, offset: 0x3FCDE, size: 0x8, addend: 0x0, symName: __ZNSt3__113basic_istreamIcNS_11char_traitsIcEEEC2B8ue170006EPNS_15basic_streambufIcS2_EE, symObjAddr: 0x1614, symBinAddr: 0x100016BE0, symSize: 0x64 }
  - { offsetInCU: 0x10FA7, offset: 0x3FD21, size: 0x8, addend: 0x0, symName: __ZNSt3__113basic_filebufIcNS_11char_traitsIcEEE4openERKNS_12basic_stringIcS2_NS_9allocatorIcEEEEj, symObjAddr: 0x1678, symBinAddr: 0x100016C44, symSize: 0x44 }
  - { offsetInCU: 0x10FEA, offset: 0x3FD64, size: 0x8, addend: 0x0, symName: __ZNSt3__18ios_baseC2B8ue170006Ev, symObjAddr: 0x16E8, symBinAddr: 0x100016C88, symSize: 0x24 }
  - { offsetInCU: 0x11013, offset: 0x3FD8D, size: 0x8, addend: 0x0, symName: __ZNSt3__19basic_iosIcNS_11char_traitsIcEEE4initB8ue170006EPNS_15basic_streambufIcS2_EE, symObjAddr: 0x170C, symBinAddr: 0x100016CAC, symSize: 0x44 }
  - { offsetInCU: 0x11049, offset: 0x3FDC3, size: 0x8, addend: 0x0, symName: __ZNKSt3__112basic_stringIcNS_11char_traitsIcEENS_9allocatorIcEEE5c_strB8ue170006Ev, symObjAddr: 0x1758, symBinAddr: 0x100016CF0, symSize: 0x24 }
  - { offsetInCU: 0x1106E, offset: 0x3FDE8, size: 0x8, addend: 0x0, symName: __ZNKSt3__112basic_stringIcNS_11char_traitsIcEENS_9allocatorIcEEE4dataB8ue170006Ev, symObjAddr: 0x177C, symBinAddr: 0x100016D14, symSize: 0x28 }
  - { offsetInCU: 0x11093, offset: 0x3FE0D, size: 0x8, addend: 0x0, symName: __ZNKSt3__112basic_stringIcNS_11char_traitsIcEENS_9allocatorIcEEE13__get_pointerB8ue170006Ev, symObjAddr: 0x17B8, symBinAddr: 0x100016D50, symSize: 0x54 }
  - { offsetInCU: 0x110B8, offset: 0x3FE32, size: 0x8, addend: 0x0, symName: __ZNKSt3__112basic_stringIcNS_11char_traitsIcEENS_9allocatorIcEEE18__get_long_pointerB8ue170006Ev, symObjAddr: 0x1844, symBinAddr: 0x100016DA4, symSize: 0x28 }
  - { offsetInCU: 0x110DD, offset: 0x3FE57, size: 0x8, addend: 0x0, symName: __ZNKSt3__112basic_stringIcNS_11char_traitsIcEENS_9allocatorIcEEE19__get_short_pointerB8ue170006Ev, symObjAddr: 0x186C, symBinAddr: 0x100016DCC, symSize: 0x28 }
  - { offsetInCU: 0x11102, offset: 0x3FE7C, size: 0x8, addend: 0x0, symName: __ZNSt3__114pointer_traitsIPKcE10pointer_toB8ue170006ERS1_, symObjAddr: 0x18CC, symBinAddr: 0x100016DF4, symSize: 0x14 }
  - { offsetInCU: 0x11125, offset: 0x3FE9F, size: 0x8, addend: 0x0, symName: __ZNKSt3__19basic_iosIcNS_11char_traitsIcEEE4failB8ue170006Ev, symObjAddr: 0x1914, symBinAddr: 0x100016E08, symSize: 0x28 }
  - { offsetInCU: 0x1114A, offset: 0x3FEC4, size: 0x8, addend: 0x0, symName: __ZNKSt3__18ios_base4failB8ue170006Ev, symObjAddr: 0x193C, symBinAddr: 0x100016E30, symSize: 0x28 }
  - { offsetInCU: 0x11171, offset: 0x3FEEB, size: 0x8, addend: 0x0, symName: __ZNSt3__112basic_stringIcNS_11char_traitsIcEENS_9allocatorIcEEEC2B8ue170006Ev, symObjAddr: 0x1964, symBinAddr: 0x100016E58, symSize: 0x48 }
  - { offsetInCU: 0x111A0, offset: 0x3FF1A, size: 0x8, addend: 0x0, symName: __ZNSt3__112basic_stringIcNS_11char_traitsIcEENS_9allocatorIcEEE14__default_initB8ue170006Ev, symObjAddr: 0x19F4, symBinAddr: 0x100016EA0, symSize: 0x40 }
  - { offsetInCU: 0x111C5, offset: 0x3FF3F, size: 0x8, addend: 0x0, symName: __ZNSt3__114basic_ifstreamIcNS_11char_traitsIcEEED2Ev, symObjAddr: 0x1B28, symBinAddr: 0x100016EE0, symSize: 0x64 }
  - { offsetInCU: 0x111FD, offset: 0x3FF77, size: 0x8, addend: 0x0, symName: __ZTv0_n24_NSt3__114basic_ifstreamIcNS_11char_traitsIcEEED1Ev, symObjAddr: 0x1B8C, symBinAddr: 0x100016F44, symSize: 0x28 }
  - { offsetInCU: 0x11214, offset: 0x3FF8E, size: 0x8, addend: 0x0, symName: __ZL5digitc, symObjAddr: 0x1BB4, symBinAddr: 0x100016F6C, symSize: 0x18 }
  - { offsetInCU: 0x11240, offset: 0x3FFBA, size: 0x8, addend: 0x0, symName: __ZL15days_from_civiljjj, symObjAddr: 0x1BCC, symBinAddr: 0x100016F84, symSize: 0x130 }
  - { offsetInCU: 0x112C4, offset: 0x4003E, size: 0x8, addend: 0x0, symName: __ZNKSt3__112basic_stringIcNS_11char_traitsIcEENS_9allocatorIcEEE15__get_long_sizeB8ue170006Ev, symObjAddr: 0x1DC8, symBinAddr: 0x1000170B4, symSize: 0x28 }
  - { offsetInCU: 0x112E9, offset: 0x40063, size: 0x8, addend: 0x0, symName: __ZNKSt3__112basic_stringIcNS_11char_traitsIcEENS_9allocatorIcEEE16__get_short_sizeB8ue170006Ev, symObjAddr: 0x1DF0, symBinAddr: 0x1000170DC, symSize: 0x34 }
  - { offsetInCU: 0x1130E, offset: 0x40088, size: 0x8, addend: 0x0, symName: __ZNSt3__112basic_stringIcNS_11char_traitsIcEENS_9allocatorIcEEE15__make_iteratorB8ue170006EPc, symObjAddr: 0x1E24, symBinAddr: 0x100017110, symSize: 0x30 }
  - { offsetInCU: 0x11342, offset: 0x400BC, size: 0x8, addend: 0x0, symName: __ZNSt3__111__wrap_iterIPcEC1B8ue170006ES1_, symObjAddr: 0x1E54, symBinAddr: 0x100017140, symSize: 0x34 }
  - { offsetInCU: 0x11379, offset: 0x400F3, size: 0x8, addend: 0x0, symName: __ZNSt3__111__wrap_iterIPcEC2B8ue170006ES1_, symObjAddr: 0x1E88, symBinAddr: 0x100017174, symSize: 0x20 }
  - { offsetInCU: 0x113B0, offset: 0x4012A, size: 0x8, addend: 0x0, symName: __ZNKSt3__111__wrap_iterIPcEdeB8ue170006Ev, symObjAddr: 0x1EDC, symBinAddr: 0x1000171C8, symSize: 0x18 }
  - { offsetInCU: 0x113D5, offset: 0x4014F, size: 0x8, addend: 0x0, symName: __ZNSt3__111__wrap_iterIPcEppB8ue170006Ev, symObjAddr: 0x1EF4, symBinAddr: 0x1000171E0, symSize: 0x20 }
  - { offsetInCU: 0x113FA, offset: 0x40174, size: 0x8, addend: 0x0, symName: __ZNKSt3__111__wrap_iterIPcE4baseB8ue170006Ev, symObjAddr: 0x1F5C, symBinAddr: 0x100017248, symSize: 0x18 }
  - { offsetInCU: 0x1141F, offset: 0x40199, size: 0x8, addend: 0x0, symName: __ZNSt3__16vectorIN3trd3BarENS_9allocatorIS2_EEEC2B8ue170006Ev, symObjAddr: 0x1F74, symBinAddr: 0x100017260, symSize: 0x4C }
  - { offsetInCU: 0x1144E, offset: 0x401C8, size: 0x8, addend: 0x0, symName: __ZNSt3__117__compressed_pairIPN3trd3BarENS_9allocatorIS2_EEEC1B8ue170006IDnNS_18__default_init_tagEEEOT_OT0_, symObjAddr: 0x1FC0, symBinAddr: 0x1000172AC, symSize: 0x3C }
  - { offsetInCU: 0x114A5, offset: 0x4021F, size: 0x8, addend: 0x0, symName: __ZNSt3__117__compressed_pairIPN3trd3BarENS_9allocatorIS2_EEEC2B8ue170006IDnNS_18__default_init_tagEEEOT_OT0_, symObjAddr: 0x1FFC, symBinAddr: 0x1000172E8, symSize: 0x40 }
  - { offsetInCU: 0x114FC, offset: 0x40276, size: 0x8, addend: 0x0, symName: __ZNSt3__122__compressed_pair_elemIPN3trd3BarELi0ELb0EEC2B8ue170006IDnvEEOT_, symObjAddr: 0x203C, symBinAddr: 0x100017328, symSize: 0x1C }
  - { offsetInCU: 0x1153D, offset: 0x402B7, size: 0x8, addend: 0x0, symName: __ZNSt3__122__compressed_pair_elemINS_9allocatorIN3trd3BarEEELi1ELb1EEC2B8ue170006ENS_18__default_init_tagE, symObjAddr: 0x2058, symBinAddr: 0x100017344, symSize: 0x2C }
  - { offsetInCU: 0x11570, offset: 0x402EA, size: 0x8, addend: 0x0, symName: __ZNSt3__19allocatorIN3trd3BarEEC2B8ue170006Ev, symObjAddr: 0x2084, symBinAddr: 0x100017370, symSize: 0x2C }
  - { offsetInCU: 0x11599, offset: 0x40313, size: 0x8, addend: 0x0, symName: __ZNSt3__116__non_trivial_ifILb1ENS_9allocatorIN3trd3BarEEEEC2B8ue170006Ev, symObjAddr: 0x20B0, symBinAddr: 0x10001739C, symSize: 0x14 }
  - { offsetInCU: 0x115C2, offset: 0x4033C, size: 0x8, addend: 0x0, symName: __ZNSt3__16vectorIN3trd3BarENS_9allocatorIS2_EEED2B8ue170006Ev, symObjAddr: 0x20C4, symBinAddr: 0x1000173B0, symSize: 0x44 }
  - { offsetInCU: 0x115EB, offset: 0x40365, size: 0x8, addend: 0x0, symName: __ZNSt3__16vectorIN3trd3BarENS_9allocatorIS2_EEE16__destroy_vectorC1B8ue170006ERS5_, symObjAddr: 0x2108, symBinAddr: 0x1000173F4, symSize: 0x34 }
  - { offsetInCU: 0x11623, offset: 0x4039D, size: 0x8, addend: 0x0, symName: __ZNSt3__16vectorIN3trd3BarENS_9allocatorIS2_EEE16__destroy_vectorclB8ue170006Ev, symObjAddr: 0x213C, symBinAddr: 0x100017428, symSize: 0x90 }
  - { offsetInCU: 0x11648, offset: 0x403C2, size: 0x8, addend: 0x0, symName: __ZNSt3__16vectorIN3trd3BarENS_9allocatorIS2_EEE16__destroy_vectorC2B8ue170006ERS5_, symObjAddr: 0x21CC, symBinAddr: 0x1000174B8, symSize: 0x20 }
  - { offsetInCU: 0x11680, offset: 0x403FA, size: 0x8, addend: 0x0, symName: __ZNSt3__16vectorIN3trd3BarENS_9allocatorIS2_EEE7__clearB8ue170006Ev, symObjAddr: 0x21EC, symBinAddr: 0x1000174D8, symSize: 0x28 }
  - { offsetInCU: 0x116A5, offset: 0x4041F, size: 0x8, addend: 0x0, symName: __ZNKSt3__16vectorIN3trd3BarENS_9allocatorIS2_EEE17__annotate_deleteB8ue170006Ev, symObjAddr: 0x2214, symBinAddr: 0x100017500, symSize: 0xD4 }
  - { offsetInCU: 0x116CA, offset: 0x40444, size: 0x8, addend: 0x0, symName: __ZNSt3__116allocator_traitsINS_9allocatorIN3trd3BarEEEE10deallocateB8ue170006ERS4_PS3_m, symObjAddr: 0x22E8, symBinAddr: 0x1000175D4, symSize: 0x34 }
  - { offsetInCU: 0x1170C, offset: 0x40486, size: 0x8, addend: 0x0, symName: __ZNSt3__16vectorIN3trd3BarENS_9allocatorIS2_EEE7__allocB8ue170006Ev, symObjAddr: 0x231C, symBinAddr: 0x100017608, symSize: 0x28 }
  - { offsetInCU: 0x11731, offset: 0x404AB, size: 0x8, addend: 0x0, symName: __ZNKSt3__16vectorIN3trd3BarENS_9allocatorIS2_EEE8capacityB8ue170006Ev, symObjAddr: 0x2344, symBinAddr: 0x100017630, symSize: 0x40 }
  - { offsetInCU: 0x11756, offset: 0x404D0, size: 0x8, addend: 0x0, symName: __ZNSt3__16vectorIN3trd3BarENS_9allocatorIS2_EEE22__base_destruct_at_endB8ue170006EPS2_, symObjAddr: 0x2384, symBinAddr: 0x100017670, symSize: 0x8C }
  - { offsetInCU: 0x11799, offset: 0x40513, size: 0x8, addend: 0x0, symName: __ZNSt3__116allocator_traitsINS_9allocatorIN3trd3BarEEEE7destroyB8ue170006IS3_vEEvRS4_PT_, symObjAddr: 0x2410, symBinAddr: 0x1000176FC, symSize: 0x2C }
  - { offsetInCU: 0x117D6, offset: 0x40550, size: 0x8, addend: 0x0, symName: __ZNSt3__19allocatorIN3trd3BarEE7destroyB8ue170006EPS2_, symObjAddr: 0x2450, symBinAddr: 0x10001773C, symSize: 0x14 }
  - { offsetInCU: 0x11809, offset: 0x40583, size: 0x8, addend: 0x0, symName: __ZNKSt3__16vectorIN3trd3BarENS_9allocatorIS2_EEE31__annotate_contiguous_containerB8ue170006EPKvS7_S7_S7_, symObjAddr: 0x2464, symBinAddr: 0x100017750, symSize: 0x20 }
  - { offsetInCU: 0x1185E, offset: 0x405D8, size: 0x8, addend: 0x0, symName: __ZNKSt3__16vectorIN3trd3BarENS_9allocatorIS2_EEE4dataB8ue170006Ev, symObjAddr: 0x2484, symBinAddr: 0x100017770, symSize: 0x28 }
  - { offsetInCU: 0x11883, offset: 0x405FD, size: 0x8, addend: 0x0, symName: __ZNSt3__19allocatorIN3trd3BarEE10deallocateB8ue170006EPS2_m, symObjAddr: 0x24D4, symBinAddr: 0x100017798, symSize: 0x44 }
  - { offsetInCU: 0x118C4, offset: 0x4063E, size: 0x8, addend: 0x0, symName: __ZNSt3__117__compressed_pairIPN3trd3BarENS_9allocatorIS2_EEE6secondB8ue170006Ev, symObjAddr: 0x2640, symBinAddr: 0x1000177DC, symSize: 0x24 }
  - { offsetInCU: 0x118E9, offset: 0x40663, size: 0x8, addend: 0x0, symName: __ZNSt3__122__compressed_pair_elemINS_9allocatorIN3trd3BarEEELi1ELb1EE5__getB8ue170006Ev, symObjAddr: 0x2664, symBinAddr: 0x100017800, symSize: 0x14 }
  - { offsetInCU: 0x1190E, offset: 0x40688, size: 0x8, addend: 0x0, symName: __ZNKSt3__16vectorIN3trd3BarENS_9allocatorIS2_EEE9__end_capB8ue170006Ev, symObjAddr: 0x2678, symBinAddr: 0x100017814, symSize: 0x28 }
  - { offsetInCU: 0x11933, offset: 0x406AD, size: 0x8, addend: 0x0, symName: __ZNKSt3__117__compressed_pairIPN3trd3BarENS_9allocatorIS2_EEE5firstB8ue170006Ev, symObjAddr: 0x26A0, symBinAddr: 0x10001783C, symSize: 0x24 }
  - { offsetInCU: 0x11958, offset: 0x406D2, size: 0x8, addend: 0x0, symName: __ZNKSt3__122__compressed_pair_elemIPN3trd3BarELi0ELb0EE5__getB8ue170006Ev, symObjAddr: 0x26C4, symBinAddr: 0x100017860, symSize: 0x14 }
  - { offsetInCU: 0x1197D, offset: 0x406F7, size: 0x8, addend: 0x0, symName: __ZNKSt3__16vectorIN3trd3BarENS_9allocatorIS2_EEE8max_sizeEv, symObjAddr: 0x26D8, symBinAddr: 0x100017874, symSize: 0x60 }
  - { offsetInCU: 0x119A4, offset: 0x4071E, size: 0x8, addend: 0x0, symName: __ZNKSt3__16vectorIN3trd3BarENS_9allocatorIS2_EEE20__throw_length_errorB8ue170006Ev, symObjAddr: 0x2738, symBinAddr: 0x1000178D4, symSize: 0x1C }
  - { offsetInCU: 0x119C9, offset: 0x40743, size: 0x8, addend: 0x0, symName: __ZNSt3__114__split_bufferIN3trd3BarERNS_9allocatorIS2_EEEC1EmmS5_, symObjAddr: 0x2754, symBinAddr: 0x1000178F0, symSize: 0x44 }
  - { offsetInCU: 0x11A1E, offset: 0x40798, size: 0x8, addend: 0x0, symName: __ZNSt3__114__split_bufferIN3trd3BarERNS_9allocatorIS2_EEED1Ev, symObjAddr: 0x28A8, symBinAddr: 0x100017A44, symSize: 0x2C }
  - { offsetInCU: 0x11A54, offset: 0x407CE, size: 0x8, addend: 0x0, symName: __ZNSt3__116allocator_traitsINS_9allocatorIN3trd3BarEEEE8max_sizeB8ue170006IS4_vEEmRKS4_, symObjAddr: 0x2900, symBinAddr: 0x100017A70, symSize: 0x24 }
  - { offsetInCU: 0x11A82, offset: 0x407FC, size: 0x8, addend: 0x0, symName: __ZNKSt3__16vectorIN3trd3BarENS_9allocatorIS2_EEE7__allocB8ue170006Ev, symObjAddr: 0x2924, symBinAddr: 0x100017A94, symSize: 0x28 }
  - { offsetInCU: 0x11AA7, offset: 0x40821, size: 0x8, addend: 0x0, symName: __ZNKSt3__19allocatorIN3trd3BarEE8max_sizeB8ue170006Ev, symObjAddr: 0x29E8, symBinAddr: 0x100017ABC, symSize: 0x18 }
  - { offsetInCU: 0x11ACC, offset: 0x40846, size: 0x8, addend: 0x0, symName: __ZNKSt3__117__compressed_pairIPN3trd3BarENS_9allocatorIS2_EEE6secondB8ue170006Ev, symObjAddr: 0x2A00, symBinAddr: 0x100017AD4, symSize: 0x24 }
  - { offsetInCU: 0x11AF1, offset: 0x4086B, size: 0x8, addend: 0x0, symName: __ZNKSt3__122__compressed_pair_elemINS_9allocatorIN3trd3BarEEELi1ELb1EE5__getB8ue170006Ev, symObjAddr: 0x2A24, symBinAddr: 0x100017AF8, symSize: 0x14 }
  - { offsetInCU: 0x11B16, offset: 0x40890, size: 0x8, addend: 0x0, symName: __ZNSt3__114__split_bufferIN3trd3BarERNS_9allocatorIS2_EEEC2EmmS5_, symObjAddr: 0x2B24, symBinAddr: 0x100017B0C, symSize: 0xE0 }
  - { offsetInCU: 0x11B89, offset: 0x40903, size: 0x8, addend: 0x0, symName: __ZNSt3__117__compressed_pairIPN3trd3BarERNS_9allocatorIS2_EEEC1B8ue170006IDnS6_EEOT_OT0_, symObjAddr: 0x2C04, symBinAddr: 0x100017BEC, symSize: 0x3C }
  - { offsetInCU: 0x11BE0, offset: 0x4095A, size: 0x8, addend: 0x0, symName: __ZNSt3__114__split_bufferIN3trd3BarERNS_9allocatorIS2_EEE7__allocB8ue170006Ev, symObjAddr: 0x2C80, symBinAddr: 0x100017C68, symSize: 0x28 }
  - { offsetInCU: 0x11C05, offset: 0x4097F, size: 0x8, addend: 0x0, symName: __ZNSt3__114__split_bufferIN3trd3BarERNS_9allocatorIS2_EEE9__end_capB8ue170006Ev, symObjAddr: 0x2CA8, symBinAddr: 0x100017C90, symSize: 0x28 }
  - { offsetInCU: 0x11C2A, offset: 0x409A4, size: 0x8, addend: 0x0, symName: __ZNSt3__117__compressed_pairIPN3trd3BarERNS_9allocatorIS2_EEEC2B8ue170006IDnS6_EEOT_OT0_, symObjAddr: 0x2CD0, symBinAddr: 0x100017CB8, symSize: 0x48 }
  - { offsetInCU: 0x11C81, offset: 0x409FB, size: 0x8, addend: 0x0, symName: __ZNSt3__122__compressed_pair_elemIRNS_9allocatorIN3trd3BarEEELi1ELb0EEC2B8ue170006IS5_vEEOT_, symObjAddr: 0x2D18, symBinAddr: 0x100017D00, symSize: 0x20 }
  - { offsetInCU: 0x11CC2, offset: 0x40A3C, size: 0x8, addend: 0x0, symName: __ZNSt3__19allocatorIN3trd3BarEE8allocateB8ue170006Em, symObjAddr: 0x2D38, symBinAddr: 0x100017D20, symSize: 0x5C }
  - { offsetInCU: 0x11CF5, offset: 0x40A6F, size: 0x8, addend: 0x0, symName: __ZNSt3__117__compressed_pairIPN3trd3BarERNS_9allocatorIS2_EEE6secondB8ue170006Ev, symObjAddr: 0x2E78, symBinAddr: 0x100017D7C, symSize: 0x28 }
  - { offsetInCU: 0x11D1A, offset: 0x40A94, size: 0x8, addend: 0x0, symName: __ZNSt3__122__compressed_pair_elemIRNS_9allocatorIN3trd3BarEEELi1ELb0EE5__getB8ue170006Ev, symObjAddr: 0x2EA0, symBinAddr: 0x100017DA4, symSize: 0x18 }
  - { offsetInCU: 0x11D3F, offset: 0x40AB9, size: 0x8, addend: 0x0, symName: __ZNSt3__117__compressed_pairIPN3trd3BarERNS_9allocatorIS2_EEE5firstB8ue170006Ev, symObjAddr: 0x2EB8, symBinAddr: 0x100017DBC, symSize: 0x24 }
  - { offsetInCU: 0x11D64, offset: 0x40ADE, size: 0x8, addend: 0x0, symName: __ZNSt3__122__compressed_pair_elemIPN3trd3BarELi0ELb0EE5__getB8ue170006Ev, symObjAddr: 0x2EDC, symBinAddr: 0x100017DE0, symSize: 0x14 }
  - { offsetInCU: 0x11D89, offset: 0x40B03, size: 0x8, addend: 0x0, symName: __ZNSt3__116reverse_iteratorIPN3trd3BarEEC1B8ue170006ES3_, symObjAddr: 0x2F68, symBinAddr: 0x100017E6C, symSize: 0x34 }
  - { offsetInCU: 0x11DC0, offset: 0x40B3A, size: 0x8, addend: 0x0, symName: __ZNKSt3__116reverse_iteratorIPN3trd3BarEE4baseB8ue170006Ev, symObjAddr: 0x2F9C, symBinAddr: 0x100017EA0, symSize: 0x18 }
  - { offsetInCU: 0x11DE5, offset: 0x40B5F, size: 0x8, addend: 0x0, symName: __ZNSt3__16vectorIN3trd3BarENS_9allocatorIS2_EEE9__end_capB8ue170006Ev, symObjAddr: 0x2FF0, symBinAddr: 0x100017EF4, symSize: 0x28 }
  - { offsetInCU: 0x11E0A, offset: 0x40B84, size: 0x8, addend: 0x0, symName: __ZNKSt3__16vectorIN3trd3BarENS_9allocatorIS2_EEE14__annotate_newB8ue170006Em, symObjAddr: 0x3018, symBinAddr: 0x100017F1C, symSize: 0xC8 }
  - { offsetInCU: 0x11E64, offset: 0x40BDE, size: 0x8, addend: 0x0, symName: __ZNKSt3__111__move_loopINS_17_ClassicAlgPolicyEEclB8ue170006INS_16reverse_iteratorIPN3trd3BarEEES8_S8_EENS_4pairIT_T1_EESA_T0_SB_, symObjAddr: 0x33D0, symBinAddr: 0x1000182D4, symSize: 0x9C }
  - { offsetInCU: 0x11ED4, offset: 0x40C4E, size: 0x8, addend: 0x0, symName: __ZNSt3__18_IterOpsINS_17_ClassicAlgPolicyEE11__iter_moveB8ue170006IRNS_16reverse_iteratorIPN3trd3BarEEEEENS_9enable_ifIXsr12is_referenceIDTdeclsr3stdE7declvalIRT_EEEEE5valueEDTclsr3stdE4movedeclsr3stdE7declvalISC_EEEEE4typeEOSB_, symObjAddr: 0x3600, symBinAddr: 0x100018504, symSize: 0x28 }
  - { offsetInCU: 0x11F00, offset: 0x40C7A, size: 0x8, addend: 0x0, symName: __ZNKSt3__116reverse_iteratorIPN3trd3BarEEdeB8ue170006Ev, symObjAddr: 0x3628, symBinAddr: 0x10001852C, symSize: 0x28 }
  - { offsetInCU: 0x11F34, offset: 0x40CAE, size: 0x8, addend: 0x0, symName: __ZNSt3__116reverse_iteratorIPN3trd3BarEEppB8ue170006Ev, symObjAddr: 0x3650, symBinAddr: 0x100018554, symSize: 0x20 }
  - { offsetInCU: 0x11F59, offset: 0x40CD3, size: 0x8, addend: 0x0, symName: __ZNSt3__18_IterOpsINS_17_ClassicAlgPolicyEE25__validate_iter_referenceB8ue170006IRNS_16reverse_iteratorIPN3trd3BarEEEEEvv, symObjAddr: 0x3670, symBinAddr: 0x100018574, symSize: 0x4 }
  - { offsetInCU: 0x11F77, offset: 0x40CF1, size: 0x8, addend: 0x0, symName: __ZNSt3__118__unwrap_iter_implINS_16reverse_iteratorIPN3trd3BarEEELb0EE8__unwrapB8ue170006ES5_, symObjAddr: 0x3674, symBinAddr: 0x100018578, symSize: 0x24 }
  - { offsetInCU: 0x11FA0, offset: 0x40D1A, size: 0x8, addend: 0x0, symName: __ZNSt3__14pairINS_16reverse_iteratorIPN3trd3BarEEES5_EC1B8ue170006IS5_S5_LPv0EEEOT_OT0_, symObjAddr: 0x3698, symBinAddr: 0x10001859C, symSize: 0x3C }
  - { offsetInCU: 0x11FFD, offset: 0x40D77, size: 0x8, addend: 0x0, symName: __ZNSt3__14pairINS_16reverse_iteratorIPN3trd3BarEEES5_EC2B8ue170006IS5_S5_LPv0EEEOT_OT0_, symObjAddr: 0x36D4, symBinAddr: 0x1000185D8, symSize: 0x34 }
  - { offsetInCU: 0x1205A, offset: 0x40DD4, size: 0x8, addend: 0x0, symName: __ZNSt3__118__unwrap_iter_implINS_16reverse_iteratorIPN3trd3BarEEELb0EE8__rewrapB8ue170006ES5_S5_, symObjAddr: 0x3708, symBinAddr: 0x10001860C, symSize: 0x2C }
  - { offsetInCU: 0x12087, offset: 0x40E01, size: 0x8, addend: 0x0, symName: __ZNSt3__116reverse_iteratorIPN3trd3BarEEC2B8ue170006ES3_, symObjAddr: 0x3734, symBinAddr: 0x100018638, symSize: 0x28 }
  - { offsetInCU: 0x120BE, offset: 0x40E38, size: 0x8, addend: 0x0, symName: __ZNSt3__117__compressed_pairIPN3trd3BarENS_9allocatorIS2_EEE5firstB8ue170006Ev, symObjAddr: 0x375C, symBinAddr: 0x100018660, symSize: 0x24 }
  - { offsetInCU: 0x120E3, offset: 0x40E5D, size: 0x8, addend: 0x0, symName: __ZNSt3__114__split_bufferIN3trd3BarERNS_9allocatorIS2_EEED2Ev, symObjAddr: 0x3780, symBinAddr: 0x100018684, symSize: 0x8C }
  - { offsetInCU: 0x1210E, offset: 0x40E88, size: 0x8, addend: 0x0, symName: __ZNSt3__114__split_bufferIN3trd3BarERNS_9allocatorIS2_EEE5clearB8ue170006Ev, symObjAddr: 0x380C, symBinAddr: 0x100018710, symSize: 0x28 }
  - { offsetInCU: 0x12133, offset: 0x40EAD, size: 0x8, addend: 0x0, symName: __ZNKSt3__114__split_bufferIN3trd3BarERNS_9allocatorIS2_EEE8capacityB8ue170006Ev, symObjAddr: 0x3834, symBinAddr: 0x100018738, symSize: 0x40 }
  - { offsetInCU: 0x12158, offset: 0x40ED2, size: 0x8, addend: 0x0, symName: __ZNSt3__114__split_bufferIN3trd3BarERNS_9allocatorIS2_EEE17__destruct_at_endB8ue170006EPS2_, symObjAddr: 0x3874, symBinAddr: 0x100018778, symSize: 0x2C }
  - { offsetInCU: 0x1218B, offset: 0x40F05, size: 0x8, addend: 0x0, symName: __ZNSt3__114__split_bufferIN3trd3BarERNS_9allocatorIS2_EEE17__destruct_at_endB8ue170006EPS2_NS_17integral_constantIbLb0EEE, symObjAddr: 0x38A0, symBinAddr: 0x1000187A4, symSize: 0x80 }
  - { offsetInCU: 0x121CA, offset: 0x40F44, size: 0x8, addend: 0x0, symName: __ZNKSt3__114__split_bufferIN3trd3BarERNS_9allocatorIS2_EEE9__end_capB8ue170006Ev, symObjAddr: 0x3920, symBinAddr: 0x100018824, symSize: 0x28 }
  - { offsetInCU: 0x121EF, offset: 0x40F69, size: 0x8, addend: 0x0, symName: __ZNKSt3__117__compressed_pairIPN3trd3BarERNS_9allocatorIS2_EEE5firstB8ue170006Ev, symObjAddr: 0x3948, symBinAddr: 0x10001884C, symSize: 0x24 }
  - { offsetInCU: 0x12214, offset: 0x40F8E, size: 0x8, addend: 0x0, symName: __ZNSt3__16vectorIN3trd3BarENS_9allocatorIS2_EEE22__construct_one_at_endB8ue170006IJRS2_EEEvDpOT_, symObjAddr: 0x396C, symBinAddr: 0x100018870, symSize: 0x90 }
  - { offsetInCU: 0x12262, offset: 0x40FDC, size: 0x8, addend: 0x0, symName: __ZNSt3__16vectorIN3trd3BarENS_9allocatorIS2_EEE24__emplace_back_slow_pathIJRS2_EEEvDpOT_, symObjAddr: 0x39FC, symBinAddr: 0x100018900, symSize: 0xD8 }
  - { offsetInCU: 0x122C1, offset: 0x4103B, size: 0x8, addend: 0x0, symName: __ZNSt3__16vectorIN3trd3BarENS_9allocatorIS2_EEE4backB8ue170006Ev, symObjAddr: 0x3AD4, symBinAddr: 0x1000189D8, symSize: 0x1C }
  - { offsetInCU: 0x12301, offset: 0x4107B, size: 0x8, addend: 0x0, symName: __ZNSt3__16vectorIN3trd3BarENS_9allocatorIS2_EEE21_ConstructTransactionC1B8ue170006ERS5_m, symObjAddr: 0x3AF0, symBinAddr: 0x1000189F4, symSize: 0x3C }
  - { offsetInCU: 0x12348, offset: 0x410C2, size: 0x8, addend: 0x0, symName: __ZNSt3__116allocator_traitsINS_9allocatorIN3trd3BarEEEE9constructB8ue170006IS3_JRS3_EvEEvRS4_PT_DpOT0_, symObjAddr: 0x3B2C, symBinAddr: 0x100018A30, symSize: 0x34 }
  - { offsetInCU: 0x1239F, offset: 0x41119, size: 0x8, addend: 0x0, symName: __ZNSt3__16vectorIN3trd3BarENS_9allocatorIS2_EEE21_ConstructTransactionD1B8ue170006Ev, symObjAddr: 0x3B60, symBinAddr: 0x100018A64, symSize: 0x2C }
  - { offsetInCU: 0x123C8, offset: 0x41142, size: 0x8, addend: 0x0, symName: __ZNSt3__16vectorIN3trd3BarENS_9allocatorIS2_EEE21_ConstructTransactionC2B8ue170006ERS5_m, symObjAddr: 0x3B8C, symBinAddr: 0x100018A90, symSize: 0x4C }
  - { offsetInCU: 0x1240F, offset: 0x41189, size: 0x8, addend: 0x0, symName: __ZNSt3__19allocatorIN3trd3BarEE9constructB8ue170006IS2_JRS2_EEEvPT_DpOT0_, symObjAddr: 0x3BD8, symBinAddr: 0x100018ADC, symSize: 0x34 }
  - { offsetInCU: 0x12464, offset: 0x411DE, size: 0x8, addend: 0x0, symName: __ZNSt3__16vectorIN3trd3BarENS_9allocatorIS2_EEE21_ConstructTransactionD2B8ue170006Ev, symObjAddr: 0x3C0C, symBinAddr: 0x100018B10, symSize: 0x20 }
  - { offsetInCU: 0x1248D, offset: 0x41207, size: 0x8, addend: 0x0, symName: __ZNKSt3__16vectorIN3trd3BarENS_9allocatorIS2_EEE11__recommendB8ue170006Em, symObjAddr: 0x3C2C, symBinAddr: 0x100018B30, symSize: 0xB4 }
  - { offsetInCU: 0x5325, offset: 0x4662D, size: 0x8, addend: 0x0, symName: __ZNSt3__113__countl_zeroB8ue170006IjEEiT_, symObjAddr: 0xA68, symBinAddr: 0x1000195AC, symSize: 0x54 }
  - { offsetInCU: 0x535B, offset: 0x46663, size: 0x8, addend: 0x0, symName: __ZNSt3__112__libcpp_clzB8ue170006Ej, symObjAddr: 0xF00, symBinAddr: 0x100019A44, symSize: 0x18 }
  - { offsetInCU: 0x54FA, offset: 0x46802, size: 0x8, addend: 0x0, symName: __ZNSt3__124uniform_int_distributionIiEclINS_23mersenne_twister_engineIjLm32ELm624ELm397ELm31ELj2567483615ELm11ELj4294967295ELm7ELj2636928640ELm15ELj4022730752ELm18ELj1812433253EEEEEiRT_RKNS1_10param_typeE, symObjAddr: 0x850, symBinAddr: 0x100019394, symSize: 0x188 }
  - { offsetInCU: 0x75EF, offset: 0x488F7, size: 0x8, addend: 0x0, symName: _main, symObjAddr: 0x0, symBinAddr: 0x100018BE4, symSize: 0x19C }
  - { offsetInCU: 0x7732, offset: 0x48A3A, size: 0x8, addend: 0x0, symName: __ZN9PortfolioC1Ev, symObjAddr: 0x19C, symBinAddr: 0x100018D80, symSize: 0x2C }
  - { offsetInCU: 0x775D, offset: 0x48A65, size: 0x8, addend: 0x0, symName: __ZN9Portfolio9setEquityEd, symObjAddr: 0x1C8, symBinAddr: 0x100018DAC, symSize: 0x20 }
  - { offsetInCU: 0x7790, offset: 0x48A98, size: 0x8, addend: 0x0, symName: __ZN10ExcecutionC1Ed, symObjAddr: 0x1E8, symBinAddr: 0x100018DCC, symSize: 0x34 }
  - { offsetInCU: 0x78A7, offset: 0x48BAF, size: 0x8, addend: 0x0, symName: __ZN16CoinFlipStrategyC1Ev, symObjAddr: 0x21C, symBinAddr: 0x100018E00, symSize: 0x2C }
  - { offsetInCU: 0x78DC, offset: 0x48BE4, size: 0x8, addend: 0x0, symName: __ZN3trd8BacktestC1ER9PortfolioR10Excecution, symObjAddr: 0x248, symBinAddr: 0x100018E2C, symSize: 0x3C }
  - { offsetInCU: 0x7926, offset: 0x48C2E, size: 0x8, addend: 0x0, symName: __ZNSt3__112basic_stringIcNS_11char_traitsIcEENS_9allocatorIcEEEC1B8ue170006ILi0EEEPKc, symObjAddr: 0x284, symBinAddr: 0x100018E68, symSize: 0x34 }
  - { offsetInCU: 0x7969, offset: 0x48C71, size: 0x8, addend: 0x0, symName: __ZN16CoinFlipStrategyD1Ev, symObjAddr: 0x358, symBinAddr: 0x100018E9C, symSize: 0x2C }
  - { offsetInCU: 0x7994, offset: 0x48C9C, size: 0x8, addend: 0x0, symName: __ZN9PortfolioC2Ev, symObjAddr: 0x384, symBinAddr: 0x100018EC8, symSize: 0x24 }
  - { offsetInCU: 0x79BF, offset: 0x48CC7, size: 0x8, addend: 0x0, symName: __ZN10ExcecutionC2Ed, symObjAddr: 0x3A8, symBinAddr: 0x100018EEC, symSize: 0x20 }
  - { offsetInCU: 0x79F6, offset: 0x48CFE, size: 0x8, addend: 0x0, symName: __ZN16CoinFlipStrategyC2Ev, symObjAddr: 0x3C8, symBinAddr: 0x100018F0C, symSize: 0xD4 }
  - { offsetInCU: 0x7A1F, offset: 0x48D27, size: 0x8, addend: 0x0, symName: __ZN8StrategyC2Ev, symObjAddr: 0x49C, symBinAddr: 0x100018FE0, symSize: 0x24 }
  - { offsetInCU: 0x7A64, offset: 0x48D6C, size: 0x8, addend: 0x0, symName: __ZNSt3__113random_deviceC1B8ue170006Ev, symObjAddr: 0x4C0, symBinAddr: 0x100019004, symSize: 0x74 }
  - { offsetInCU: 0x7A8D, offset: 0x48D95, size: 0x8, addend: 0x0, symName: __ZNSt3__123mersenne_twister_engineIjLm32ELm624ELm397ELm31ELj2567483615ELm11ELj4294967295ELm7ELj2636928640ELm15ELj4022730752ELm18ELj1812433253EEC1B8ue170006Ej, symObjAddr: 0x534, symBinAddr: 0x100019078, symSize: 0x34 }
  - { offsetInCU: 0x7AC4, offset: 0x48DCC, size: 0x8, addend: 0x0, symName: __ZNSt3__124uniform_int_distributionIiEC1B8ue170006Eii, symObjAddr: 0x568, symBinAddr: 0x1000190AC, symSize: 0x3C }
  - { offsetInCU: 0x7B09, offset: 0x48E11, size: 0x8, addend: 0x0, symName: __ZN8StrategyD2Ev, symObjAddr: 0x5A4, symBinAddr: 0x1000190E8, symSize: 0x14 }
  - { offsetInCU: 0x7B32, offset: 0x48E3A, size: 0x8, addend: 0x0, symName: __ZN16CoinFlipStrategyD0Ev, symObjAddr: 0x5B8, symBinAddr: 0x1000190FC, symSize: 0x30 }
  - { offsetInCU: 0x7B5D, offset: 0x48E65, size: 0x8, addend: 0x0, symName: __ZN16CoinFlipStrategy5onBarERKN3trd3BarE, symObjAddr: 0x5E8, symBinAddr: 0x10001912C, symSize: 0x64 }
  - { offsetInCU: 0x7B9B, offset: 0x48EA3, size: 0x8, addend: 0x0, symName: __ZN8StrategyD1Ev, symObjAddr: 0x64C, symBinAddr: 0x100019190, symSize: 0x14 }
  - { offsetInCU: 0x7BC4, offset: 0x48ECC, size: 0x8, addend: 0x0, symName: __ZN8StrategyD0Ev, symObjAddr: 0x660, symBinAddr: 0x1000191A4, symSize: 0xC }
  - { offsetInCU: 0x7BED, offset: 0x48EF5, size: 0x8, addend: 0x0, symName: __ZNSt3__123mersenne_twister_engineIjLm32ELm624ELm397ELm31ELj2567483615ELm11ELj4294967295ELm7ELj2636928640ELm15ELj4022730752ELm18ELj1812433253EEC2B8ue170006Ej, symObjAddr: 0x66C, symBinAddr: 0x1000191B0, symSize: 0x34 }
  - { offsetInCU: 0x7C24, offset: 0x48F2C, size: 0x8, addend: 0x0, symName: __ZNSt3__123mersenne_twister_engineIjLm32ELm624ELm397ELm31ELj2567483615ELm11ELj4294967295ELm7ELj2636928640ELm15ELj4022730752ELm18ELj1812433253EE4seedEj, symObjAddr: 0x6A0, symBinAddr: 0x1000191E4, symSize: 0xC4 }
  - { offsetInCU: 0x7C77, offset: 0x48F7F, size: 0x8, addend: 0x0, symName: __ZNSt3__123mersenne_twister_engineIjLm32ELm624ELm397ELm31ELj2567483615ELm11ELj4294967295ELm7ELj2636928640ELm15ELj4022730752ELm18ELj1812433253EE8__rshiftB8ue170006ILm30EEENS_9enable_ifIXltT_L_ZNS1_3_DtEEEjE4typeEj, symObjAddr: 0x764, symBinAddr: 0x1000192A8, symSize: 0x18 }
  - { offsetInCU: 0x7CA4, offset: 0x48FAC, size: 0x8, addend: 0x0, symName: __ZNSt3__124uniform_int_distributionIiEC2B8ue170006Eii, symObjAddr: 0x77C, symBinAddr: 0x1000192C0, symSize: 0x3C }
  - { offsetInCU: 0x7CE9, offset: 0x48FF1, size: 0x8, addend: 0x0, symName: __ZNSt3__124uniform_int_distributionIiE10param_typeC1B8ue170006Eii, symObjAddr: 0x7B8, symBinAddr: 0x1000192FC, symSize: 0x3C }
  - { offsetInCU: 0x7D2E, offset: 0x49036, size: 0x8, addend: 0x0, symName: __ZNSt3__124uniform_int_distributionIiE10param_typeC2B8ue170006Eii, symObjAddr: 0x7F4, symBinAddr: 0x100019338, symSize: 0x2C }
  - { offsetInCU: 0x7D73, offset: 0x4907B, size: 0x8, addend: 0x0, symName: __ZNSt3__124uniform_int_distributionIiEclB8ue170006INS_23mersenne_twister_engineIjLm32ELm624ELm397ELm31ELj2567483615ELm11ELj4294967295ELm7ELj2636928640ELm15ELj4022730752ELm18ELj1812433253EEEEEiRT_, symObjAddr: 0x820, symBinAddr: 0x100019364, symSize: 0x30 }
  - { offsetInCU: 0x7DAF, offset: 0x490B7, size: 0x8, addend: 0x0, symName: __ZNKSt3__124uniform_int_distributionIiE10param_type1bB8ue170006Ev, symObjAddr: 0x9D8, symBinAddr: 0x10001951C, symSize: 0x18 }
  - { offsetInCU: 0x7DD4, offset: 0x490DC, size: 0x8, addend: 0x0, symName: __ZNKSt3__124uniform_int_distributionIiE10param_type1aB8ue170006Ev, symObjAddr: 0x9F0, symBinAddr: 0x100019534, symSize: 0x18 }
  - { offsetInCU: 0x7DF9, offset: 0x49101, size: 0x8, addend: 0x0, symName: __ZNSt3__125__independent_bits_engineINS_23mersenne_twister_engineIjLm32ELm624ELm397ELm31ELj2567483615ELm11ELj4294967295ELm7ELj2636928640ELm15ELj4022730752ELm18ELj1812433253EEEjEC1ERS2_m, symObjAddr: 0xA08, symBinAddr: 0x10001954C, symSize: 0x3C }
  - { offsetInCU: 0x7E3F, offset: 0x49147, size: 0x8, addend: 0x0, symName: __ZNSt3__125__independent_bits_engineINS_23mersenne_twister_engineIjLm32ELm624ELm397ELm31ELj2567483615ELm11ELj4294967295ELm7ELj2636928640ELm15ELj4022730752ELm18ELj1812433253EEEjEclB8ue170006Ev, symObjAddr: 0xA44, symBinAddr: 0x100019588, symSize: 0x24 }
  - { offsetInCU: 0x7E64, offset: 0x4916C, size: 0x8, addend: 0x0, symName: __ZNSt3__114numeric_limitsIjE3maxB8ue170006Ev, symObjAddr: 0xABC, symBinAddr: 0x100019600, symSize: 0x14 }
  - { offsetInCU: 0x7E78, offset: 0x49180, size: 0x8, addend: 0x0, symName: __ZNSt3__125__independent_bits_engineINS_23mersenne_twister_engineIjLm32ELm624ELm397ELm31ELj2567483615ELm11ELj4294967295ELm7ELj2636928640ELm15ELj4022730752ELm18ELj1812433253EEEjEC2ERS2_m, symObjAddr: 0xAD0, symBinAddr: 0x100019614, symSize: 0x22C }
  - { offsetInCU: 0x7EBD, offset: 0x491C5, size: 0x8, addend: 0x0, symName: __ZNSt3__125__independent_bits_engineINS_23mersenne_twister_engineIjLm32ELm624ELm397ELm31ELj2567483615ELm11ELj4294967295ELm7ELj2636928640ELm15ELj4022730752ELm18ELj1812433253EEEjE6__evalENS_17integral_constantIbLb0EEE, symObjAddr: 0xCFC, symBinAddr: 0x100019840, symSize: 0x38 }
  - { offsetInCU: 0x7EEE, offset: 0x491F6, size: 0x8, addend: 0x0, symName: __ZNSt3__123mersenne_twister_engineIjLm32ELm624ELm397ELm31ELj2567483615ELm11ELj4294967295ELm7ELj2636928640ELm15ELj4022730752ELm18ELj1812433253EEclEv, symObjAddr: 0xD34, symBinAddr: 0x100019878, symSize: 0x14C }
  - { offsetInCU: 0x7F60, offset: 0x49268, size: 0x8, addend: 0x0, symName: __ZNSt3__123mersenne_twister_engineIjLm32ELm624ELm397ELm31ELj2567483615ELm11ELj4294967295ELm7ELj2636928640ELm15ELj4022730752ELm18ELj1812433253EE8__rshiftB8ue170006ILm1EEENS_9enable_ifIXltT_L_ZNS1_3_DtEEEjE4typeEj, symObjAddr: 0xE80, symBinAddr: 0x1000199C4, symSize: 0x18 }
  - { offsetInCU: 0x7F8D, offset: 0x49295, size: 0x8, addend: 0x0, symName: __ZNSt3__123mersenne_twister_engineIjLm32ELm624ELm397ELm31ELj2567483615ELm11ELj4294967295ELm7ELj2636928640ELm15ELj4022730752ELm18ELj1812433253EE8__rshiftB8ue170006ILm11EEENS_9enable_ifIXltT_L_ZNS1_3_DtEEEjE4typeEj, symObjAddr: 0xE98, symBinAddr: 0x1000199DC, symSize: 0x18 }
  - { offsetInCU: 0x7FBA, offset: 0x492C2, size: 0x8, addend: 0x0, symName: __ZNSt3__123mersenne_twister_engineIjLm32ELm624ELm397ELm31ELj2567483615ELm11ELj4294967295ELm7ELj2636928640ELm15ELj4022730752ELm18ELj1812433253EE8__lshiftB8ue170006ILm7EEENS_9enable_ifIXltT_Lm32EEjE4typeEj, symObjAddr: 0xEB0, symBinAddr: 0x1000199F4, symSize: 0x1C }
  - { offsetInCU: 0x7FE7, offset: 0x492EF, size: 0x8, addend: 0x0, symName: __ZNSt3__123mersenne_twister_engineIjLm32ELm624ELm397ELm31ELj2567483615ELm11ELj4294967295ELm7ELj2636928640ELm15ELj4022730752ELm18ELj1812433253EE8__lshiftB8ue170006ILm15EEENS_9enable_ifIXltT_Lm32EEjE4typeEj, symObjAddr: 0xECC, symBinAddr: 0x100019A10, symSize: 0x1C }
  - { offsetInCU: 0x8014, offset: 0x4931C, size: 0x8, addend: 0x0, symName: __ZNSt3__123mersenne_twister_engineIjLm32ELm624ELm397ELm31ELj2567483615ELm11ELj4294967295ELm7ELj2636928640ELm15ELj4022730752ELm18ELj1812433253EE8__rshiftB8ue170006ILm18EEENS_9enable_ifIXltT_L_ZNS1_3_DtEEEjE4typeEj, symObjAddr: 0xEE8, symBinAddr: 0x100019A2C, symSize: 0x18 }
  - { offsetInCU: 0x8041, offset: 0x49349, size: 0x8, addend: 0x0, symName: __ZNSt3__123__libcpp_numeric_limitsIjLb1EE3maxB8ue170006Ev, symObjAddr: 0xF18, symBinAddr: 0x100019A5C, symSize: 0x8 }
  - { offsetInCU: 0x8055, offset: 0x4935D, size: 0x8, addend: 0x0, symName: __ZN3trd8BacktestC2ER9PortfolioR10Excecution, symObjAddr: 0xF20, symBinAddr: 0x100019A64, symSize: 0x2C }
  - { offsetInCU: 0x809A, offset: 0x493A2, size: 0x8, addend: 0x0, symName: __ZN16CoinFlipStrategyD2Ev, symObjAddr: 0x1AA8, symBinAddr: 0x100019A90, symSize: 0x2C }
  - { offsetInCU: 0x80C5, offset: 0x493CD, size: 0x8, addend: 0x0, symName: __ZNSt3__112basic_stringIcNS_11char_traitsIcEENS_9allocatorIcEEEC2B8ue170006ILi0EEEPKc, symObjAddr: 0x1AD4, symBinAddr: 0x100019ABC, symSize: 0x58 }
...
